
TinyFoxSoftware.elf:     file format elf32-avr

Sections:
Idx Name          Size      VMA       LMA       File off  Algn
  0 .data         00000002  00803800  0000275f  00002813  2**0
                  CONTENTS, ALLOC, LOAD, DATA
  1 .text         000026f0  00000000  00000000  000000b4  2**1
                  CONTENTS, ALLOC, LOAD, READONLY, CODE
  2 .rodata       0000006f  0000a6f0  000026f0  000027a4  2**0
                  CONTENTS, ALLOC, LOAD, READONLY, DATA
  3 .bss          0000048a  00803802  00803802  00002815  2**0
                  ALLOC
  4 .comment      00000030  00000000  00000000  00002815  2**0
                  CONTENTS, READONLY
  5 .note.gnu.avr.deviceinfo 00000040  00000000  00000000  00002848  2**2
                  CONTENTS, READONLY
  6 .debug_aranges 00000338  00000000  00000000  00002888  2**3
                  CONTENTS, READONLY, DEBUGGING
  7 .debug_info   000075c4  00000000  00000000  00002bc0  2**0
                  CONTENTS, READONLY, DEBUGGING
  8 .debug_abbrev 00002c39  00000000  00000000  0000a184  2**0
                  CONTENTS, READONLY, DEBUGGING
  9 .debug_line   0000228b  00000000  00000000  0000cdbd  2**0
                  CONTENTS, READONLY, DEBUGGING
 10 .debug_frame  000008ac  00000000  00000000  0000f048  2**2
                  CONTENTS, READONLY, DEBUGGING
 11 .debug_str    000030d2  00000000  00000000  0000f8f4  2**0
                  CONTENTS, READONLY, DEBUGGING
 12 .debug_loc    0000323c  00000000  00000000  000129c6  2**0
                  CONTENTS, READONLY, DEBUGGING
 13 .debug_ranges 000002e8  00000000  00000000  00015c02  2**0
                  CONTENTS, READONLY, DEBUGGING

Disassembly of section .text:

00000000 <__vectors>:
       0:	0c 94 53 00 	jmp	0xa6	; 0xa6 <__ctors_end>
       4:	0c 94 70 00 	jmp	0xe0	; 0xe0 <__bad_interrupt>
       8:	0c 94 70 00 	jmp	0xe0	; 0xe0 <__bad_interrupt>
       c:	0c 94 48 07 	jmp	0xe90	; 0xe90 <__vector_3>
      10:	0c 94 70 00 	jmp	0xe0	; 0xe0 <__bad_interrupt>
      14:	0c 94 70 00 	jmp	0xe0	; 0xe0 <__bad_interrupt>
      18:	0c 94 70 00 	jmp	0xe0	; 0xe0 <__bad_interrupt>
      1c:	0c 94 70 00 	jmp	0xe0	; 0xe0 <__bad_interrupt>
      20:	0c 94 70 00 	jmp	0xe0	; 0xe0 <__bad_interrupt>
      24:	0c 94 70 00 	jmp	0xe0	; 0xe0 <__bad_interrupt>
      28:	0c 94 70 00 	jmp	0xe0	; 0xe0 <__bad_interrupt>
      2c:	0c 94 70 00 	jmp	0xe0	; 0xe0 <__bad_interrupt>
      30:	0c 94 70 00 	jmp	0xe0	; 0xe0 <__bad_interrupt>
      34:	0c 94 70 00 	jmp	0xe0	; 0xe0 <__bad_interrupt>
      38:	0c 94 70 00 	jmp	0xe0	; 0xe0 <__bad_interrupt>
      3c:	0c 94 70 00 	jmp	0xe0	; 0xe0 <__bad_interrupt>
      40:	0c 94 70 00 	jmp	0xe0	; 0xe0 <__bad_interrupt>
      44:	0c 94 70 00 	jmp	0xe0	; 0xe0 <__bad_interrupt>
      48:	0c 94 70 00 	jmp	0xe0	; 0xe0 <__bad_interrupt>
      4c:	0c 94 70 00 	jmp	0xe0	; 0xe0 <__bad_interrupt>
      50:	0c 94 70 00 	jmp	0xe0	; 0xe0 <__bad_interrupt>
      54:	0c 94 70 00 	jmp	0xe0	; 0xe0 <__bad_interrupt>
      58:	0c 94 70 00 	jmp	0xe0	; 0xe0 <__bad_interrupt>
      5c:	0c 94 70 00 	jmp	0xe0	; 0xe0 <__bad_interrupt>
      60:	0c 94 57 07 	jmp	0xeae	; 0xeae <__vector_24>
      64:	0c 94 70 00 	jmp	0xe0	; 0xe0 <__bad_interrupt>
      68:	0c 94 70 00 	jmp	0xe0	; 0xe0 <__bad_interrupt>
      6c:	0c 94 70 00 	jmp	0xe0	; 0xe0 <__bad_interrupt>
      70:	0c 94 70 00 	jmp	0xe0	; 0xe0 <__bad_interrupt>
      74:	0c 94 70 00 	jmp	0xe0	; 0xe0 <__bad_interrupt>
      78:	08 4a       	sbci	r16, 0xA8	; 168
      7a:	d7 3b       	cpi	r29, 0xB7	; 183
      7c:	3b ce       	rjmp	.-906    	; 0xfffffcf4 <__eeprom_end+0xff7efcf4>
      7e:	01 6e       	ori	r16, 0xE1	; 225
      80:	84 bc       	out	0x24, r8	; 36
      82:	bf fd       	.word	0xfdbf	; ????
      84:	c1 2f       	mov	r28, r17
      86:	3d 6c       	ori	r19, 0xCD	; 205
      88:	74 31       	cpi	r23, 0x14	; 20
      8a:	9a bd       	out	0x2a, r25	; 42
      8c:	56 83       	std	Z+6, r21	; 0x06
      8e:	3d da       	rcall	.-2950   	; 0xfffff50a <__eeprom_end+0xff7ef50a>
      90:	3d 00       	.word	0x003d	; ????
      92:	c7 7f       	andi	r28, 0xF7	; 247
      94:	11 be       	out	0x31, r1	; 49
      96:	d9 e4       	ldi	r29, 0x49	; 73
      98:	bb 4c       	sbci	r27, 0xCB	; 203
      9a:	3e 91       	ld	r19, -X
      9c:	6b aa       	std	Y+51, r6	; 0x33
      9e:	aa be       	out	0x3a, r10	; 58
      a0:	00 00       	nop
      a2:	00 80       	ld	r0, Z
      a4:	3f 00       	.word	0x003f	; ????

000000a6 <__ctors_end>:
      a6:	11 24       	eor	r1, r1
      a8:	1f be       	out	0x3f, r1	; 63
      aa:	cf ef       	ldi	r28, 0xFF	; 255
      ac:	cd bf       	out	0x3d, r28	; 61
      ae:	df e3       	ldi	r29, 0x3F	; 63
      b0:	de bf       	out	0x3e, r29	; 62

000000b2 <__do_copy_data>:
      b2:	18 e3       	ldi	r17, 0x38	; 56
      b4:	a0 e0       	ldi	r26, 0x00	; 0
      b6:	b8 e3       	ldi	r27, 0x38	; 56
      b8:	ef e5       	ldi	r30, 0x5F	; 95
      ba:	f7 e2       	ldi	r31, 0x27	; 39
      bc:	02 c0       	rjmp	.+4      	; 0xc2 <__do_copy_data+0x10>
      be:	05 90       	lpm	r0, Z+
      c0:	0d 92       	st	X+, r0
      c2:	a2 30       	cpi	r26, 0x02	; 2
      c4:	b1 07       	cpc	r27, r17
      c6:	d9 f7       	brne	.-10     	; 0xbe <__do_copy_data+0xc>

000000c8 <__do_clear_bss>:
      c8:	2c e3       	ldi	r18, 0x3C	; 60
      ca:	a2 e0       	ldi	r26, 0x02	; 2
      cc:	b8 e3       	ldi	r27, 0x38	; 56
      ce:	01 c0       	rjmp	.+2      	; 0xd2 <.do_clear_bss_start>

000000d0 <.do_clear_bss_loop>:
      d0:	1d 92       	st	X+, r1

000000d2 <.do_clear_bss_start>:
      d2:	ac 38       	cpi	r26, 0x8C	; 140
      d4:	b2 07       	cpc	r27, r18
      d6:	e1 f7       	brne	.-8      	; 0xd0 <.do_clear_bss_loop>
      d8:	0e 94 fa 0b 	call	0x17f4	; 0x17f4 <main>
      dc:	0c 94 76 13 	jmp	0x26ec	; 0x26ec <_exit>

000000e0 <__bad_interrupt>:
      e0:	0c 94 00 00 	jmp	0	; 0x0 <__vectors>

000000e4 <_Z18accMC3635FifoEmptyv>:

uint8_t accMC3635ReadAndClearInterrupt() {
	bool error = false;
	uint8_t reg = i2cReadRegister(ACC_MC3635_ADDRESS, ACC_MC3635_REG_STATUS_2, &error);
	return reg;
}
      e4:	cf 93       	push	r28
      e6:	df 93       	push	r29
      e8:	1f 92       	push	r1
      ea:	cd b7       	in	r28, 0x3d	; 61
      ec:	de b7       	in	r29, 0x3e	; 62
      ee:	19 82       	std	Y+1, r1	; 0x01
      f0:	ae 01       	movw	r20, r28
      f2:	4f 5f       	subi	r20, 0xFF	; 255
      f4:	5f 4f       	sbci	r21, 0xFF	; 255
      f6:	68 e0       	ldi	r22, 0x08	; 8
      f8:	8c e4       	ldi	r24, 0x4C	; 76
      fa:	0e 94 02 07 	call	0xe04	; 0xe04 <_Z15i2cReadRegisterhhPb>
      fe:	91 e0       	ldi	r25, 0x01	; 1
     100:	84 ff       	sbrs	r24, 4
     102:	90 e0       	ldi	r25, 0x00	; 0
     104:	89 2f       	mov	r24, r25
     106:	0f 90       	pop	r0
     108:	df 91       	pop	r29
     10a:	cf 91       	pop	r28
     10c:	08 95       	ret

0000010e <_Z13accMC3635ReadPiS_S_>:
     10e:	8f 92       	push	r8
     110:	9f 92       	push	r9
     112:	af 92       	push	r10
     114:	bf 92       	push	r11
     116:	cf 92       	push	r12
     118:	df 92       	push	r13
     11a:	ef 92       	push	r14
     11c:	ff 92       	push	r15
     11e:	0f 93       	push	r16
     120:	1f 93       	push	r17
     122:	cf 93       	push	r28
     124:	df 93       	push	r29
     126:	cd b7       	in	r28, 0x3d	; 61
     128:	de b7       	in	r29, 0x3e	; 62
     12a:	26 97       	sbiw	r28, 0x06	; 6
     12c:	cd bf       	out	0x3d, r28	; 61
     12e:	de bf       	out	0x3e, r29	; 62
     130:	5c 01       	movw	r10, r24
     132:	6b 01       	movw	r12, r22
     134:	7a 01       	movw	r14, r20
     136:	8e 01       	movw	r16, r28
     138:	0f 5f       	subi	r16, 0xFF	; 255
     13a:	1f 4f       	sbci	r17, 0xFF	; 255
     13c:	86 e0       	ldi	r24, 0x06	; 6
     13e:	f8 01       	movw	r30, r16
     140:	11 92       	st	Z+, r1
     142:	8a 95       	dec	r24
     144:	e9 f7       	brne	.-6      	; 0x140 <_Z13accMC3635ReadPiS_S_+0x32>
     146:	8c e4       	ldi	r24, 0x4C	; 76
     148:	0e 94 aa 06 	call	0xd54	; 0xd54 <_Z13i2cStartWriteh>
     14c:	82 e0       	ldi	r24, 0x02	; 2
     14e:	0e 94 db 06 	call	0xdb6	; 0xdb6 <_Z8i2cWriteh>
     152:	8c e4       	ldi	r24, 0x4C	; 76
     154:	0e 94 98 06 	call	0xd30	; 0xd30 <_Z12i2cStartReadh>
     158:	4e 01       	movw	r8, r28
     15a:	f6 e0       	ldi	r31, 0x06	; 6
     15c:	8f 0e       	add	r8, r31
     15e:	91 1c       	adc	r9, r1
     160:	81 e0       	ldi	r24, 0x01	; 1
     162:	0e 94 bb 06 	call	0xd76	; 0xd76 <_Z7i2cReadb>
     166:	f8 01       	movw	r30, r16
     168:	81 93       	st	Z+, r24
     16a:	8f 01       	movw	r16, r30
     16c:	e8 15       	cp	r30, r8
     16e:	f9 05       	cpc	r31, r9
     170:	b9 f7       	brne	.-18     	; 0x160 <_Z13accMC3635ReadPiS_S_+0x52>
     172:	80 e0       	ldi	r24, 0x00	; 0
     174:	0e 94 bb 06 	call	0xd76	; 0xd76 <_Z7i2cReadb>
     178:	18 2f       	mov	r17, r24
     17a:	0e 94 f9 06 	call	0xdf2	; 0xdf2 <_Z7i2cStopv>
     17e:	8a 81       	ldd	r24, Y+2	; 0x02
     180:	90 e0       	ldi	r25, 0x00	; 0
     182:	98 2f       	mov	r25, r24
     184:	88 27       	eor	r24, r24
     186:	29 81       	ldd	r18, Y+1	; 0x01
     188:	82 2b       	or	r24, r18
     18a:	f5 01       	movw	r30, r10
     18c:	80 83       	st	Z, r24
     18e:	91 83       	std	Z+1, r25	; 0x01
     190:	8c 81       	ldd	r24, Y+4	; 0x04
     192:	90 e0       	ldi	r25, 0x00	; 0
     194:	98 2f       	mov	r25, r24
     196:	88 27       	eor	r24, r24
     198:	2b 81       	ldd	r18, Y+3	; 0x03
     19a:	82 2b       	or	r24, r18
     19c:	f6 01       	movw	r30, r12
     19e:	80 83       	st	Z, r24
     1a0:	91 83       	std	Z+1, r25	; 0x01
     1a2:	81 2f       	mov	r24, r17
     1a4:	90 e0       	ldi	r25, 0x00	; 0
     1a6:	98 2f       	mov	r25, r24
     1a8:	88 27       	eor	r24, r24
     1aa:	2d 81       	ldd	r18, Y+5	; 0x05
     1ac:	82 2b       	or	r24, r18
     1ae:	f7 01       	movw	r30, r14
     1b0:	80 83       	st	Z, r24
     1b2:	91 83       	std	Z+1, r25	; 0x01
     1b4:	26 96       	adiw	r28, 0x06	; 6
     1b6:	cd bf       	out	0x3d, r28	; 61
     1b8:	de bf       	out	0x3e, r29	; 62
     1ba:	df 91       	pop	r29
     1bc:	cf 91       	pop	r28
     1be:	1f 91       	pop	r17
     1c0:	0f 91       	pop	r16
     1c2:	ff 90       	pop	r15
     1c4:	ef 90       	pop	r14
     1c6:	df 90       	pop	r13
     1c8:	cf 90       	pop	r12
     1ca:	bf 90       	pop	r11
     1cc:	af 90       	pop	r10
     1ce:	9f 90       	pop	r9
     1d0:	8f 90       	pop	r8
     1d2:	08 95       	ret

000001d4 <_Z14accMC3635Alivev>:

bool accMC3635Alive() {
     1d4:	cf 93       	push	r28
	if(!i2cStartRead(ACC_MC3635_ADDRESS)) {
     1d6:	8c e4       	ldi	r24, 0x4C	; 76
     1d8:	0e 94 98 06 	call	0xd30	; 0xd30 <_Z12i2cStartReadh>
     1dc:	c8 2f       	mov	r28, r24
     1de:	81 11       	cpse	r24, r1
     1e0:	03 c0       	rjmp	.+6      	; 0x1e8 <_Z14accMC3635Alivev+0x14>
		i2cStop();
     1e2:	0e 94 f9 06 	call	0xdf2	; 0xdf2 <_Z7i2cStopv>
		return false;
     1e6:	02 c0       	rjmp	.+4      	; 0x1ec <_Z14accMC3635Alivev+0x18>
	}
	i2cStop();
     1e8:	0e 94 f9 06 	call	0xdf2	; 0xdf2 <_Z7i2cStopv>
	return true;
}
     1ec:	8c 2f       	mov	r24, r28
     1ee:	cf 91       	pop	r28
     1f0:	08 95       	ret

000001f2 <_Z26accMC3635Start54HzWithFIFOv>:

void accMC3635Start54HzWithFIFO() {
	// reset procedure
	i2cWriteRegister(ACC_MC3635_ADDRESS, ACC_MC3635_REG_MODE_C, 0x01); // go to standby
     1f2:	41 e0       	ldi	r20, 0x01	; 1
     1f4:	60 e1       	ldi	r22, 0x10	; 16
     1f6:	8c e4       	ldi	r24, 0x4C	; 76
     1f8:	0e 94 2c 07 	call	0xe58	; 0xe58 <_Z16i2cWriteRegisterhhh>
	i2cWriteRegister(ACC_MC3635_ADDRESS, 0x24, 0x40); // reset
     1fc:	40 e4       	ldi	r20, 0x40	; 64
     1fe:	64 e2       	ldi	r22, 0x24	; 36
     200:	8c e4       	ldi	r24, 0x4C	; 76
     202:	0e 94 2c 07 	call	0xe58	; 0xe58 <_Z16i2cWriteRegisterhhh>
	#else
		//round up by default
		__ticks_dc = (uint32_t)(ceil(fabs(__tmp)));
	#endif

	__builtin_avr_delay_cycles(__ticks_dc);
     206:	83 ef       	ldi	r24, 0xF3	; 243
     208:	91 e0       	ldi	r25, 0x01	; 1
     20a:	01 97       	sbiw	r24, 0x01	; 1
     20c:	f1 f7       	brne	.-4      	; 0x20a <_Z26accMC3635Start54HzWithFIFOv+0x18>
     20e:	00 c0       	rjmp	.+0      	; 0x210 <_Z26accMC3635Start54HzWithFIFOv+0x1e>
     210:	00 00       	nop
	_delay_ms(2); // wait for reset to complete
	i2cWriteRegister(ACC_MC3635_ADDRESS, 0x0D, 0x40); // i2c mode enabled
     212:	40 e4       	ldi	r20, 0x40	; 64
     214:	6d e0       	ldi	r22, 0x0D	; 13
     216:	8c e4       	ldi	r24, 0x4C	; 76
     218:	0e 94 2c 07 	call	0xe58	; 0xe58 <_Z16i2cWriteRegisterhhh>
	i2cWriteRegister(ACC_MC3635_ADDRESS, 0x0F, 0x42); // initialization
     21c:	42 e4       	ldi	r20, 0x42	; 66
     21e:	6f e0       	ldi	r22, 0x0F	; 15
     220:	8c e4       	ldi	r24, 0x4C	; 76
     222:	0e 94 2c 07 	call	0xe58	; 0xe58 <_Z16i2cWriteRegisterhhh>
	i2cWriteRegister(ACC_MC3635_ADDRESS, 0x20, 0x01); // initialization
     226:	41 e0       	ldi	r20, 0x01	; 1
     228:	60 e2       	ldi	r22, 0x20	; 32
     22a:	8c e4       	ldi	r24, 0x4C	; 76
     22c:	0e 94 2c 07 	call	0xe58	; 0xe58 <_Z16i2cWriteRegisterhhh>
	i2cWriteRegister(ACC_MC3635_ADDRESS, 0x21, 0x80); // initialization
     230:	40 e8       	ldi	r20, 0x80	; 128
     232:	61 e2       	ldi	r22, 0x21	; 33
     234:	8c e4       	ldi	r24, 0x4C	; 76
     236:	0e 94 2c 07 	call	0xe58	; 0xe58 <_Z16i2cWriteRegisterhhh>
	i2cWriteRegister(ACC_MC3635_ADDRESS, 0x28, 0x00); // initialization
     23a:	40 e0       	ldi	r20, 0x00	; 0
     23c:	68 e2       	ldi	r22, 0x28	; 40
     23e:	8c e4       	ldi	r24, 0x4C	; 76
     240:	0e 94 2c 07 	call	0xe58	; 0xe58 <_Z16i2cWriteRegisterhhh>
	i2cWriteRegister(ACC_MC3635_ADDRESS, 0x1A, 0x00); // initialization
     244:	40 e0       	ldi	r20, 0x00	; 0
     246:	6a e1       	ldi	r22, 0x1A	; 26
     248:	8c e4       	ldi	r24, 0x4C	; 76
     24a:	0e 94 2c 07 	call	0xe58	; 0xe58 <_Z16i2cWriteRegisterhhh>
	
	// set configuration
	i2cWriteRegister(ACC_MC3635_ADDRESS, ACC_MC3635_REG_RANGE_C, 0b00100100); // initialization: 8G range, 12 bits resolution
     24e:	44 e2       	ldi	r20, 0x24	; 36
     250:	65 e1       	ldi	r22, 0x15	; 21
     252:	8c e4       	ldi	r24, 0x4C	; 76
     254:	0e 94 2c 07 	call	0xe58	; 0xe58 <_Z16i2cWriteRegisterhhh>
	i2cWriteRegister(ACC_MC3635_ADDRESS, ACC_MC3635_REG_WAKE_C, 0x07); // low power mode then: 0x07 = 54 Hz, 2.7 uA
     258:	47 e0       	ldi	r20, 0x07	; 7
     25a:	61 e1       	ldi	r22, 0x11	; 17
     25c:	8c e4       	ldi	r24, 0x4C	; 76
     25e:	0e 94 2c 07 	call	0xe58	; 0xe58 <_Z16i2cWriteRegisterhhh>
	// register 0x1C: default value = low power mode (nominal noise levels) -> ultra low power or normal mode also exist

	// set fifo
	i2cWriteRegister(ACC_MC3635_ADDRESS, ACC_MC3635_REG_FIFO_C, 0b01011111); // fifo enabled, normal operation, 31 sample threshold
     262:	4f e5       	ldi	r20, 0x5F	; 95
     264:	66 e1       	ldi	r22, 0x16	; 22
     266:	8c e4       	ldi	r24, 0x4C	; 76
     268:	0e 94 2c 07 	call	0xe58	; 0xe58 <_Z16i2cWriteRegisterhhh>
	//i2cWriteRegister(ACC_MC3635_ADDRESS, ACC_MC3635_REG_INTR_C, 0b01000011); // fifo threshold interrupt enabled, active int drive (push-pull), active high
	//i2cWriteRegister(ACC_MC3635_ADDRESS, ACC_MC3635_REG_INTR_C, 0b01000000); // fifo threshold interrupt enabled, open drain interrupt (pull-up needed), active low

	// go into cwake state
	i2cWriteRegister(ACC_MC3635_ADDRESS, ACC_MC3635_REG_MODE_C, 0b101);
     26c:	45 e0       	ldi	r20, 0x05	; 5
     26e:	60 e1       	ldi	r22, 0x10	; 16
     270:	8c e4       	ldi	r24, 0x4C	; 76
     272:	0e 94 2c 07 	call	0xe58	; 0xe58 <_Z16i2cWriteRegisterhhh>
     276:	89 ef       	ldi	r24, 0xF9	; 249
     278:	90 e0       	ldi	r25, 0x00	; 0
     27a:	01 97       	sbiw	r24, 0x01	; 1
     27c:	f1 f7       	brne	.-4      	; 0x27a <_Z26accMC3635Start54HzWithFIFOv+0x88>
     27e:	00 c0       	rjmp	.+0      	; 0x280 <_Z26accMC3635Start54HzWithFIFOv+0x8e>
     280:	00 00       	nop
     282:	08 95       	ret

00000284 <_Z20baroReadCoefficientsPj>:
#include "BaroMS5637.h"

void baroReadCoefficients(uint16_t *eepromCoeff) {
     284:	ff 92       	push	r15
     286:	0f 93       	push	r16
     288:	1f 93       	push	r17
     28a:	cf 93       	push	r28
     28c:	df 93       	push	r29
     28e:	d8 2f       	mov	r29, r24
     290:	c9 2f       	mov	r28, r25
	uint8_t buffer[2];
	
	// reset (recommended in datasheet)
	i2cStartWrite(MS5637_ADDR);
     292:	86 e7       	ldi	r24, 0x76	; 118
     294:	0e 94 aa 06 	call	0xd54	; 0xd54 <_Z13i2cStartWriteh>
	i2cWrite(0x1E);
     298:	8e e1       	ldi	r24, 0x1E	; 30
     29a:	0e 94 db 06 	call	0xdb6	; 0xdb6 <_Z8i2cWriteh>
	i2cStop();
     29e:	0e 94 f9 06 	call	0xdf2	; 0xdf2 <_Z7i2cStopv>
     2a2:	81 ee       	ldi	r24, 0xE1	; 225
     2a4:	94 e0       	ldi	r25, 0x04	; 4
     2a6:	01 97       	sbiw	r24, 0x01	; 1
     2a8:	f1 f7       	brne	.-4      	; 0x2a6 <_Z20baroReadCoefficientsPj+0x22>
     2aa:	00 c0       	rjmp	.+0      	; 0x2ac <_Z20baroReadCoefficientsPj+0x28>
     2ac:	00 00       	nop
     2ae:	0d 2f       	mov	r16, r29
     2b0:	1c 2f       	mov	r17, r28
     2b2:	d0 ea       	ldi	r29, 0xA0	; 160
	_delay_ms(5);
	
	for(uint8_t i=0 ;i<MS5637_COEFFICIENT_NUMBERS; i++) {
		i2cStartWrite(MS5637_ADDR);
     2b4:	86 e7       	ldi	r24, 0x76	; 118
     2b6:	0e 94 aa 06 	call	0xd54	; 0xd54 <_Z13i2cStartWriteh>
		i2cWrite(MS5637_PROM_ADDRESS_READ_ADDRESS_0 + (i*2));
     2ba:	8d 2f       	mov	r24, r29
     2bc:	0e 94 db 06 	call	0xdb6	; 0xdb6 <_Z8i2cWriteh>
		i2cStop(); // ???
     2c0:	0e 94 f9 06 	call	0xdf2	; 0xdf2 <_Z7i2cStopv>
		i2cStartRead(MS5637_ADDR);
     2c4:	86 e7       	ldi	r24, 0x76	; 118
     2c6:	0e 94 98 06 	call	0xd30	; 0xd30 <_Z12i2cStartReadh>
		buffer[0] = i2cRead(true); // with ack
     2ca:	81 e0       	ldi	r24, 0x01	; 1
     2cc:	0e 94 bb 06 	call	0xd76	; 0xd76 <_Z7i2cReadb>
     2d0:	f8 2e       	mov	r15, r24
		buffer[1] = i2cRead(false); // last one: no ack
     2d2:	80 e0       	ldi	r24, 0x00	; 0
     2d4:	0e 94 bb 06 	call	0xd76	; 0xd76 <_Z7i2cReadb>
     2d8:	c8 2f       	mov	r28, r24
		i2cStop();
     2da:	0e 94 f9 06 	call	0xdf2	; 0xdf2 <_Z7i2cStopv>
		eepromCoeff[i] = (buffer[0] << 8) | buffer[1];
     2de:	8c 2f       	mov	r24, r28
     2e0:	90 e0       	ldi	r25, 0x00	; 0
     2e2:	9f 29       	or	r25, r15
     2e4:	f8 01       	movw	r30, r16
     2e6:	81 93       	st	Z+, r24
     2e8:	91 93       	st	Z+, r25
     2ea:	8f 01       	movw	r16, r30
     2ec:	de 5f       	subi	r29, 0xFE	; 254
	i2cStartWrite(MS5637_ADDR);
	i2cWrite(0x1E);
	i2cStop();
	_delay_ms(5);
	
	for(uint8_t i=0 ;i<MS5637_COEFFICIENT_NUMBERS; i++) {
     2ee:	de 3a       	cpi	r29, 0xAE	; 174
     2f0:	09 f7       	brne	.-62     	; 0x2b4 <_Z20baroReadCoefficientsPj+0x30>
		buffer[0] = i2cRead(true); // with ack
		buffer[1] = i2cRead(false); // last one: no ack
		i2cStop();
		eepromCoeff[i] = (buffer[0] << 8) | buffer[1];
	}
}
     2f2:	df 91       	pop	r29
     2f4:	cf 91       	pop	r28
     2f6:	1f 91       	pop	r17
     2f8:	0f 91       	pop	r16
     2fa:	ff 90       	pop	r15
     2fc:	08 95       	ret

000002fe <_Z11baroReadAdchPm>:

void baroReadAdc(uint8_t cmd, uint32_t *adc) {
     2fe:	ff 92       	push	r15
     300:	0f 93       	push	r16
     302:	1f 93       	push	r17
     304:	cf 93       	push	r28
     306:	df 93       	push	r29
     308:	18 2f       	mov	r17, r24
     30a:	eb 01       	movw	r28, r22
	uint8_t buffer[3];

	// write cmd
	i2cStartWrite(MS5637_ADDR);
     30c:	86 e7       	ldi	r24, 0x76	; 118
     30e:	0e 94 aa 06 	call	0xd54	; 0xd54 <_Z13i2cStartWriteh>
	i2cWrite(cmd);
     312:	81 2f       	mov	r24, r17
     314:	0e 94 db 06 	call	0xdb6	; 0xdb6 <_Z8i2cWriteh>
	i2cStop();
     318:	0e 94 f9 06 	call	0xdf2	; 0xdf2 <_Z7i2cStopv>
     31c:	83 e9       	ldi	r24, 0x93	; 147
     31e:	91 e1       	ldi	r25, 0x11	; 17
     320:	01 97       	sbiw	r24, 0x01	; 1
     322:	f1 f7       	brne	.-4      	; 0x320 <_Z11baroReadAdchPm+0x22>
     324:	00 c0       	rjmp	.+0      	; 0x326 <_Z11baroReadAdchPm+0x28>
     326:	00 00       	nop
	
	// delay conversion depending on resolution
	_delay_ms(MS5637_CONVERSION_TIME_OSR_8192 + 1);

	// send the read command
	i2cStartWrite(MS5637_ADDR);
     328:	86 e7       	ldi	r24, 0x76	; 118
     32a:	0e 94 aa 06 	call	0xd54	; 0xd54 <_Z13i2cStartWriteh>
	i2cWrite(MS5637_READ_ADC);
     32e:	80 e0       	ldi	r24, 0x00	; 0
     330:	0e 94 db 06 	call	0xdb6	; 0xdb6 <_Z8i2cWriteh>
	i2cStop(); // ???
     334:	0e 94 f9 06 	call	0xdf2	; 0xdf2 <_Z7i2cStopv>
	i2cStartRead(MS5637_ADDR);
     338:	86 e7       	ldi	r24, 0x76	; 118
     33a:	0e 94 98 06 	call	0xd30	; 0xd30 <_Z12i2cStartReadh>
	buffer[0] = i2cRead(true); // with ack
     33e:	81 e0       	ldi	r24, 0x01	; 1
     340:	0e 94 bb 06 	call	0xd76	; 0xd76 <_Z7i2cReadb>
     344:	f8 2e       	mov	r15, r24
	buffer[1] = i2cRead(true); // with ack
     346:	81 e0       	ldi	r24, 0x01	; 1
     348:	0e 94 bb 06 	call	0xd76	; 0xd76 <_Z7i2cReadb>
     34c:	18 2f       	mov	r17, r24
	buffer[2] = i2cRead(false); // last one: no ack
     34e:	80 e0       	ldi	r24, 0x00	; 0
     350:	0e 94 bb 06 	call	0xd76	; 0xd76 <_Z7i2cReadb>
     354:	08 2f       	mov	r16, r24
	i2cStop();
     356:	0e 94 f9 06 	call	0xdf2	; 0xdf2 <_Z7i2cStopv>

	*adc = ((uint32_t)buffer[0] << 16) | ((uint32_t)buffer[1] << 8) | buffer[2];
     35a:	81 2f       	mov	r24, r17
     35c:	90 e0       	ldi	r25, 0x00	; 0
     35e:	a0 e0       	ldi	r26, 0x00	; 0
     360:	b0 e0       	ldi	r27, 0x00	; 0
     362:	ba 2f       	mov	r27, r26
     364:	a9 2f       	mov	r26, r25
     366:	98 2f       	mov	r25, r24
     368:	88 27       	eor	r24, r24
     36a:	af 29       	or	r26, r15
     36c:	80 2b       	or	r24, r16
     36e:	88 83       	st	Y, r24
     370:	99 83       	std	Y+1, r25	; 0x01
     372:	aa 83       	std	Y+2, r26	; 0x02
     374:	bb 83       	std	Y+3, r27	; 0x03
}
     376:	df 91       	pop	r29
     378:	cf 91       	pop	r28
     37a:	1f 91       	pop	r17
     37c:	0f 91       	pop	r16
     37e:	ff 90       	pop	r15
     380:	08 95       	ret

00000382 <_Z27baroReadPressureTemperaturePlS_Pj>:

void baroReadPressureTemperature(int32_t *pressure, int32_t *temperature, uint16_t *eepromCoeff) {
     382:	2f 92       	push	r2
     384:	3f 92       	push	r3
     386:	4f 92       	push	r4
     388:	5f 92       	push	r5
     38a:	6f 92       	push	r6
     38c:	7f 92       	push	r7
     38e:	8f 92       	push	r8
     390:	9f 92       	push	r9
     392:	af 92       	push	r10
     394:	bf 92       	push	r11
     396:	cf 92       	push	r12
     398:	df 92       	push	r13
     39a:	ef 92       	push	r14
     39c:	ff 92       	push	r15
     39e:	0f 93       	push	r16
     3a0:	1f 93       	push	r17
     3a2:	cf 93       	push	r28
     3a4:	df 93       	push	r29
     3a6:	cd b7       	in	r28, 0x3d	; 61
     3a8:	de b7       	in	r29, 0x3e	; 62
     3aa:	c0 54       	subi	r28, 0x40	; 64
     3ac:	d1 09       	sbc	r29, r1
     3ae:	cd bf       	out	0x3d, r28	; 61
     3b0:	de bf       	out	0x3e, r29	; 62
     3b2:	8a a3       	std	Y+34, r24	; 0x22
     3b4:	9b a3       	std	Y+35, r25	; 0x23
     3b6:	69 ab       	std	Y+49, r22	; 0x31
     3b8:	7a ab       	std	Y+50, r23	; 0x32
     3ba:	1a 01       	movw	r2, r20
	uint32_t adc_temperature, adc_pressure;
	int32_t dT, TEMP;
	int64_t OFF, SENS, P, T2, OFF2, SENS2;
	uint8_t cmd;
	
	*pressure = 0;
     3bc:	dc 01       	movw	r26, r24
     3be:	1d 92       	st	X+, r1
     3c0:	1d 92       	st	X+, r1
     3c2:	1d 92       	st	X+, r1
     3c4:	1c 92       	st	X, r1
     3c6:	13 97       	sbiw	r26, 0x03	; 3
	*temperature = 0;
     3c8:	fb 01       	movw	r30, r22
     3ca:	10 82       	st	Z, r1
     3cc:	11 82       	std	Z+1, r1	; 0x01
     3ce:	12 82       	std	Z+2, r1	; 0x02
     3d0:	13 82       	std	Z+3, r1	; 0x03

	// First read temperature
	cmd = (MS5637_RESOLUTION_OSR_8192*2) | MS5637_START_TEMPERATURE_ADC_CONVERSION;
	baroReadAdc(cmd, &adc_temperature);
     3d2:	be 01       	movw	r22, r28
     3d4:	6f 5f       	subi	r22, 0xFF	; 255
     3d6:	7f 4f       	sbci	r23, 0xFF	; 255
     3d8:	8a e5       	ldi	r24, 0x5A	; 90
     3da:	0e 94 7f 01 	call	0x2fe	; 0x2fe <_Z11baroReadAdchPm>

	// Now read pressure
	cmd = (MS5637_RESOLUTION_OSR_8192*2) | MS5637_START_PRESSURE_ADC_CONVERSION;
	baroReadAdc(cmd, &adc_pressure);
     3de:	be 01       	movw	r22, r28
     3e0:	6b 5f       	subi	r22, 0xFB	; 251
     3e2:	7f 4f       	sbci	r23, 0xFF	; 255
     3e4:	8a e4       	ldi	r24, 0x4A	; 74
     3e6:	0e 94 7f 01 	call	0x2fe	; 0x2fe <_Z11baroReadAdchPm>

	// Difference between actual and reference temperature = D2 - Tref
	dT = (int32_t)adc_temperature - ((int32_t)eepromCoeff[MS5637_REFERENCE_TEMPERATURE_INDEX] <<8 );
	
	// Actual temperature = 2000 + dT * TEMPSENS
	TEMP = 2000 + ((int64_t)dT * (int64_t)eepromCoeff[MS5637_TEMP_COEFF_OF_TEMPERATURE_INDEX] >> 23) ;
     3ea:	d1 01       	movw	r26, r2
     3ec:	1a 96       	adiw	r26, 0x0a	; 10
     3ee:	8d 91       	ld	r24, X+
     3f0:	9c 91       	ld	r25, X
     3f2:	1b 97       	sbiw	r26, 0x0b	; 11
     3f4:	a0 e0       	ldi	r26, 0x00	; 0
     3f6:	b0 e0       	ldi	r27, 0x00	; 0
     3f8:	ba 2f       	mov	r27, r26
     3fa:	a9 2f       	mov	r26, r25
     3fc:	98 2f       	mov	r25, r24
     3fe:	88 27       	eor	r24, r24
     400:	49 81       	ldd	r20, Y+1	; 0x01
     402:	5a 81       	ldd	r21, Y+2	; 0x02
     404:	6b 81       	ldd	r22, Y+3	; 0x03
     406:	7c 81       	ldd	r23, Y+4	; 0x04
     408:	2a 01       	movw	r4, r20
     40a:	3b 01       	movw	r6, r22
     40c:	48 1a       	sub	r4, r24
     40e:	59 0a       	sbc	r5, r25
     410:	6a 0a       	sbc	r6, r26
     412:	7b 0a       	sbc	r7, r27
     414:	83 01       	movw	r16, r6
     416:	72 01       	movw	r14, r4
     418:	11 0f       	add	r17, r17
     41a:	ee 08       	sbc	r14, r14
     41c:	fe 2c       	mov	r15, r14
     41e:	87 01       	movw	r16, r14
     420:	e9 86       	std	Y+9, r14	; 0x09
     422:	fa 86       	std	Y+10, r15	; 0x0a
     424:	0b 87       	std	Y+11, r16	; 0x0b
     426:	1c 87       	std	Y+12, r17	; 0x0c
     428:	d1 01       	movw	r26, r2
     42a:	1c 96       	adiw	r26, 0x0c	; 12
     42c:	4d 91       	ld	r20, X+
     42e:	5c 91       	ld	r21, X
     430:	1d 97       	sbiw	r26, 0x0d	; 13
     432:	a4 2c       	mov	r10, r4
     434:	b5 2c       	mov	r11, r5
     436:	c6 2c       	mov	r12, r6
     438:	d7 2c       	mov	r13, r7
     43a:	e9 84       	ldd	r14, Y+9	; 0x09
     43c:	fe 2c       	mov	r15, r14
     43e:	0e 2d       	mov	r16, r14
     440:	1e 2d       	mov	r17, r14
     442:	24 2f       	mov	r18, r20
     444:	35 2f       	mov	r19, r21
     446:	40 e0       	ldi	r20, 0x00	; 0
     448:	50 e0       	ldi	r21, 0x00	; 0
     44a:	60 e0       	ldi	r22, 0x00	; 0
     44c:	70 e0       	ldi	r23, 0x00	; 0
     44e:	80 e0       	ldi	r24, 0x00	; 0
     450:	90 e0       	ldi	r25, 0x00	; 0
     452:	0e 94 8e 12 	call	0x251c	; 0x251c <__muldi3>
     456:	07 e1       	ldi	r16, 0x17	; 23
     458:	0e 94 00 13 	call	0x2600	; 0x2600 <__ashrdi3>
     45c:	82 2e       	mov	r8, r18
     45e:	93 2e       	mov	r9, r19
     460:	a4 2e       	mov	r10, r20
     462:	b5 2e       	mov	r11, r21
     464:	d5 01       	movw	r26, r10
     466:	c4 01       	movw	r24, r8
     468:	80 53       	subi	r24, 0x30	; 48
     46a:	98 4f       	sbci	r25, 0xF8	; 248
     46c:	af 4f       	sbci	r26, 0xFF	; 255
     46e:	bf 4f       	sbci	r27, 0xFF	; 255
     470:	8e 8f       	std	Y+30, r24	; 0x1e
     472:	9f 8f       	std	Y+31, r25	; 0x1f
     474:	a8 a3       	std	Y+32, r26	; 0x20
     476:	b9 a3       	std	Y+33, r27	; 0x21
	
	// Second order temperature compensation
	if(TEMP < 2000) {
     478:	80 3d       	cpi	r24, 0xD0	; 208
     47a:	97 40       	sbci	r25, 0x07	; 7
     47c:	a1 05       	cpc	r26, r1
     47e:	b1 05       	cpc	r27, r1
     480:	0c f0       	brlt	.+2      	; 0x484 <__LOCK_REGION_LENGTH__+0x84>
     482:	64 c1       	rjmp	.+712    	; 0x74c <__LOCK_REGION_LENGTH__+0x34c>
		T2 = (3 * ((int64_t)dT * (int64_t)dT)) >> 33;
     484:	a4 2c       	mov	r10, r4
     486:	b5 2c       	mov	r11, r5
     488:	c6 2c       	mov	r12, r6
     48a:	d7 2c       	mov	r13, r7
     48c:	e1 2e       	mov	r14, r17
     48e:	f1 2e       	mov	r15, r17
     490:	0e 2d       	mov	r16, r14
     492:	24 2d       	mov	r18, r4
     494:	35 2d       	mov	r19, r5
     496:	46 2d       	mov	r20, r6
     498:	57 2d       	mov	r21, r7
     49a:	61 2f       	mov	r22, r17
     49c:	71 2f       	mov	r23, r17
     49e:	81 2f       	mov	r24, r17
     4a0:	91 2f       	mov	r25, r17
     4a2:	0e 94 8e 12 	call	0x251c	; 0x251c <__muldi3>
     4a6:	a2 2e       	mov	r10, r18
     4a8:	b3 2e       	mov	r11, r19
     4aa:	c4 2e       	mov	r12, r20
     4ac:	d5 2e       	mov	r13, r21
     4ae:	e6 2e       	mov	r14, r22
     4b0:	f7 2e       	mov	r15, r23
     4b2:	e8 2f       	mov	r30, r24
     4b4:	19 2f       	mov	r17, r25
     4b6:	01 e0       	ldi	r16, 0x01	; 1
     4b8:	0e 94 e7 12 	call	0x25ce	; 0x25ce <__ashldi3>
     4bc:	0e 2f       	mov	r16, r30
     4be:	0e 94 1e 13 	call	0x263c	; 0x263c <__adddi3>
     4c2:	01 e2       	ldi	r16, 0x21	; 33
     4c4:	0e 94 00 13 	call	0x2600	; 0x2600 <__ashrdi3>
     4c8:	2d 87       	std	Y+13, r18	; 0x0d
     4ca:	3e 87       	std	Y+14, r19	; 0x0e
     4cc:	4f 87       	std	Y+15, r20	; 0x0f
     4ce:	58 8b       	std	Y+16, r21	; 0x10
     4d0:	69 8b       	std	Y+17, r22	; 0x11
     4d2:	7a 8b       	std	Y+18, r23	; 0x12
     4d4:	8b 8b       	std	Y+19, r24	; 0x13
     4d6:	9c 8b       	std	Y+20, r25	; 0x14
		OFF2 = 61 * ((int64_t)TEMP - 2000) * ((int64_t)TEMP - 2000) / 16;
     4d8:	ee 8c       	ldd	r14, Y+30	; 0x1e
     4da:	ff 8c       	ldd	r15, Y+31	; 0x1f
     4dc:	08 a1       	ldd	r16, Y+32	; 0x20
     4de:	19 a1       	ldd	r17, Y+33	; 0x21
     4e0:	11 0f       	add	r17, r17
     4e2:	ee 08       	sbc	r14, r14
     4e4:	fe 2c       	mov	r15, r14
     4e6:	87 01       	movw	r16, r14
     4e8:	ed 8a       	std	Y+21, r14	; 0x15
     4ea:	fe 8a       	std	Y+22, r15	; 0x16
     4ec:	0f 8b       	std	Y+23, r16	; 0x17
     4ee:	18 8f       	std	Y+24, r17	; 0x18
     4f0:	2e 8d       	ldd	r18, Y+30	; 0x1e
     4f2:	3f 8d       	ldd	r19, Y+31	; 0x1f
     4f4:	48 a1       	ldd	r20, Y+32	; 0x20
     4f6:	59 a1       	ldd	r21, Y+33	; 0x21
     4f8:	6d 89       	ldd	r22, Y+21	; 0x15
     4fa:	76 2f       	mov	r23, r22
     4fc:	86 2f       	mov	r24, r22
     4fe:	96 2f       	mov	r25, r22
     500:	20 5d       	subi	r18, 0xD0	; 208
     502:	37 40       	sbci	r19, 0x07	; 7
     504:	41 09       	sbc	r20, r1
     506:	51 09       	sbc	r21, r1
     508:	61 09       	sbc	r22, r1
     50a:	71 09       	sbc	r23, r1
     50c:	81 09       	sbc	r24, r1
     50e:	91 09       	sbc	r25, r1
     510:	29 8f       	std	Y+25, r18	; 0x19
     512:	83 2e       	mov	r8, r19
     514:	94 2e       	mov	r9, r20
     516:	5a 8f       	std	Y+26, r21	; 0x1a
     518:	6b 8f       	std	Y+27, r22	; 0x1b
     51a:	7c 8f       	std	Y+28, r23	; 0x1c
     51c:	8d 8f       	std	Y+29, r24	; 0x1d
     51e:	9c a3       	std	Y+36, r25	; 0x24
     520:	02 e0       	ldi	r16, 0x02	; 2
     522:	0e 94 e7 12 	call	0x25ce	; 0x25ce <__ashldi3>
     526:	a2 2e       	mov	r10, r18
     528:	b3 2e       	mov	r11, r19
     52a:	c4 2e       	mov	r12, r20
     52c:	d5 2e       	mov	r13, r21
     52e:	e6 2e       	mov	r14, r22
     530:	f7 2e       	mov	r15, r23
     532:	e8 2f       	mov	r30, r24
     534:	19 2f       	mov	r17, r25
     536:	04 e0       	ldi	r16, 0x04	; 4
     538:	0e 94 e7 12 	call	0x25ce	; 0x25ce <__ashldi3>
     53c:	0e 2f       	mov	r16, r30
     53e:	0e 94 33 13 	call	0x2666	; 0x2666 <__subdi3>
     542:	a9 8c       	ldd	r10, Y+25	; 0x19
     544:	b8 2c       	mov	r11, r8
     546:	c9 2c       	mov	r12, r9
     548:	da 8c       	ldd	r13, Y+26	; 0x1a
     54a:	eb 8c       	ldd	r14, Y+27	; 0x1b
     54c:	fc 8c       	ldd	r15, Y+28	; 0x1c
     54e:	0d 8d       	ldd	r16, Y+29	; 0x1d
     550:	1c a1       	ldd	r17, Y+36	; 0x24
     552:	0e 94 1e 13 	call	0x263c	; 0x263c <__adddi3>
     556:	0e 94 8e 12 	call	0x251c	; 0x251c <__muldi3>
     55a:	f2 2e       	mov	r15, r18
     55c:	03 2f       	mov	r16, r19
     55e:	14 2f       	mov	r17, r20
     560:	5e a3       	std	Y+38, r21	; 0x26
     562:	6f a3       	std	Y+39, r22	; 0x27
     564:	78 a7       	std	Y+40, r23	; 0x28
     566:	89 a7       	std	Y+41, r24	; 0x29
     568:	9a a7       	std	Y+42, r25	; 0x2a
     56a:	a0 e0       	ldi	r26, 0x00	; 0
     56c:	0e 94 3c 13 	call	0x2678	; 0x2678 <__cmpdi2_s8>
     570:	5c f4       	brge	.+22     	; 0x588 <__LOCK_REGION_LENGTH__+0x188>
     572:	af e0       	ldi	r26, 0x0F	; 15
     574:	0e 94 27 13 	call	0x264e	; 0x264e <__adddi3_s8>
     578:	f2 2e       	mov	r15, r18
     57a:	03 2f       	mov	r16, r19
     57c:	14 2f       	mov	r17, r20
     57e:	5e a3       	std	Y+38, r21	; 0x26
     580:	6f a3       	std	Y+39, r22	; 0x27
     582:	78 a7       	std	Y+40, r23	; 0x28
     584:	89 a7       	std	Y+41, r24	; 0x29
     586:	9a a7       	std	Y+42, r25	; 0x2a
     588:	2f 2d       	mov	r18, r15
     58a:	30 2f       	mov	r19, r16
     58c:	41 2f       	mov	r20, r17
     58e:	5e a1       	ldd	r21, Y+38	; 0x26
     590:	6f a1       	ldd	r22, Y+39	; 0x27
     592:	78 a5       	ldd	r23, Y+40	; 0x28
     594:	89 a5       	ldd	r24, Y+41	; 0x29
     596:	9a a5       	ldd	r25, Y+42	; 0x2a
     598:	04 e0       	ldi	r16, 0x04	; 4
     59a:	0e 94 00 13 	call	0x2600	; 0x2600 <__ashrdi3>
     59e:	2d a3       	std	Y+37, r18	; 0x25
     5a0:	3b a7       	std	Y+43, r19	; 0x2b
     5a2:	4c a7       	std	Y+44, r20	; 0x2c
     5a4:	5d a7       	std	Y+45, r21	; 0x2d
     5a6:	6e a7       	std	Y+46, r22	; 0x2e
     5a8:	7f a7       	std	Y+47, r23	; 0x2f
     5aa:	88 ab       	std	Y+48, r24	; 0x30
     5ac:	98 af       	std	Y+56, r25	; 0x38
     5ae:	2e a3       	std	Y+38, r18	; 0x26
     5b0:	3f a3       	std	Y+39, r19	; 0x27
     5b2:	48 a7       	std	Y+40, r20	; 0x28
     5b4:	59 a7       	std	Y+41, r21	; 0x29
     5b6:	6a a7       	std	Y+42, r22	; 0x2a
     5b8:	7b ab       	std	Y+51, r23	; 0x33
     5ba:	8c ab       	std	Y+52, r24	; 0x34
     5bc:	9d ab       	std	Y+53, r25	; 0x35
		SENS2 = 29 * ((int64_t)TEMP - 2000) * ((int64_t)TEMP - 2000) / 16;
     5be:	29 8d       	ldd	r18, Y+25	; 0x19
     5c0:	38 2d       	mov	r19, r8
     5c2:	49 2d       	mov	r20, r9
     5c4:	5a 8d       	ldd	r21, Y+26	; 0x1a
     5c6:	6b 8d       	ldd	r22, Y+27	; 0x1b
     5c8:	7c 8d       	ldd	r23, Y+28	; 0x1c
     5ca:	8d 8d       	ldd	r24, Y+29	; 0x1d
     5cc:	9c a1       	ldd	r25, Y+36	; 0x24
     5ce:	02 e0       	ldi	r16, 0x02	; 2
     5d0:	0e 94 e7 12 	call	0x25ce	; 0x25ce <__ashldi3>
     5d4:	a2 2e       	mov	r10, r18
     5d6:	b3 2e       	mov	r11, r19
     5d8:	c4 2e       	mov	r12, r20
     5da:	d5 2e       	mov	r13, r21
     5dc:	e6 2e       	mov	r14, r22
     5de:	f7 2e       	mov	r15, r23
     5e0:	e8 2f       	mov	r30, r24
     5e2:	19 2f       	mov	r17, r25
     5e4:	03 e0       	ldi	r16, 0x03	; 3
     5e6:	0e 94 e7 12 	call	0x25ce	; 0x25ce <__ashldi3>
     5ea:	0e 2f       	mov	r16, r30
     5ec:	0e 94 33 13 	call	0x2666	; 0x2666 <__subdi3>
     5f0:	a9 8c       	ldd	r10, Y+25	; 0x19
     5f2:	b8 2c       	mov	r11, r8
     5f4:	c9 2c       	mov	r12, r9
     5f6:	da 8c       	ldd	r13, Y+26	; 0x1a
     5f8:	eb 8c       	ldd	r14, Y+27	; 0x1b
     5fa:	fc 8c       	ldd	r15, Y+28	; 0x1c
     5fc:	0d 8d       	ldd	r16, Y+29	; 0x1d
     5fe:	1c a1       	ldd	r17, Y+36	; 0x24
     600:	0e 94 1e 13 	call	0x263c	; 0x263c <__adddi3>
     604:	0e 94 8e 12 	call	0x251c	; 0x251c <__muldi3>
     608:	f2 2e       	mov	r15, r18
     60a:	03 2f       	mov	r16, r19
     60c:	14 2f       	mov	r17, r20
     60e:	b5 2f       	mov	r27, r21
     610:	f6 2f       	mov	r31, r22
     612:	79 8f       	std	Y+25, r23	; 0x19
     614:	8a 8f       	std	Y+26, r24	; 0x1a
     616:	9b 8f       	std	Y+27, r25	; 0x1b
     618:	a0 e0       	ldi	r26, 0x00	; 0
     61a:	0e 94 3c 13 	call	0x2678	; 0x2678 <__cmpdi2_s8>
     61e:	5c f4       	brge	.+22     	; 0x636 <__LOCK_REGION_LENGTH__+0x236>
     620:	af e0       	ldi	r26, 0x0F	; 15
     622:	0e 94 27 13 	call	0x264e	; 0x264e <__adddi3_s8>
     626:	f2 2e       	mov	r15, r18
     628:	03 2f       	mov	r16, r19
     62a:	14 2f       	mov	r17, r20
     62c:	b5 2f       	mov	r27, r21
     62e:	f6 2f       	mov	r31, r22
     630:	79 8f       	std	Y+25, r23	; 0x19
     632:	8a 8f       	std	Y+26, r24	; 0x1a
     634:	9b 8f       	std	Y+27, r25	; 0x1b
     636:	2f 2d       	mov	r18, r15
     638:	30 2f       	mov	r19, r16
     63a:	41 2f       	mov	r20, r17
     63c:	5b 2f       	mov	r21, r27
     63e:	6f 2f       	mov	r22, r31
     640:	79 8d       	ldd	r23, Y+25	; 0x19
     642:	8a 8d       	ldd	r24, Y+26	; 0x1a
     644:	9b 8d       	ldd	r25, Y+27	; 0x1b
     646:	04 e0       	ldi	r16, 0x04	; 4
     648:	0e 94 00 13 	call	0x2600	; 0x2600 <__ashrdi3>
     64c:	29 af       	std	Y+57, r18	; 0x39
     64e:	3a af       	std	Y+58, r19	; 0x3a
     650:	4b af       	std	Y+59, r20	; 0x3b
     652:	5c af       	std	Y+60, r21	; 0x3c
     654:	6d af       	std	Y+61, r22	; 0x3d
     656:	7e af       	std	Y+62, r23	; 0x3e
     658:	8f af       	std	Y+63, r24	; 0x3f
     65a:	21 96       	adiw	r28, 0x01	; 1
     65c:	9f af       	std	Y+63, r25	; 0x3f
     65e:	21 97       	sbiw	r28, 0x01	; 1
     660:	29 8f       	std	Y+25, r18	; 0x19
     662:	3a 8f       	std	Y+26, r19	; 0x1a
     664:	4b 8f       	std	Y+27, r20	; 0x1b
     666:	5c 8f       	std	Y+28, r21	; 0x1c
     668:	6d 8f       	std	Y+29, r22	; 0x1d
     66a:	7c a3       	std	Y+36, r23	; 0x24
     66c:	8e ab       	std	Y+54, r24	; 0x36
     66e:	9f ab       	std	Y+55, r25	; 0x37
		if(TEMP < -1500) {
     670:	8e 8d       	ldd	r24, Y+30	; 0x1e
     672:	9f 8d       	ldd	r25, Y+31	; 0x1f
     674:	a8 a1       	ldd	r26, Y+32	; 0x20
     676:	b9 a1       	ldd	r27, Y+33	; 0x21
     678:	84 32       	cpi	r24, 0x24	; 36
     67a:	9a 4f       	sbci	r25, 0xFA	; 250
     67c:	af 4f       	sbci	r26, 0xFF	; 255
     67e:	bf 4f       	sbci	r27, 0xFF	; 255
     680:	0c f0       	brlt	.+2      	; 0x684 <__LOCK_REGION_LENGTH__+0x284>
     682:	9f c0       	rjmp	.+318    	; 0x7c2 <__LOCK_REGION_LENGTH__+0x3c2>
			OFF2 += 17 * ((int64_t)TEMP + 1500) * ((int64_t)TEMP + 1500);
     684:	2e 8d       	ldd	r18, Y+30	; 0x1e
     686:	3f 8d       	ldd	r19, Y+31	; 0x1f
     688:	48 a1       	ldd	r20, Y+32	; 0x20
     68a:	59 a1       	ldd	r21, Y+33	; 0x21
     68c:	6d 89       	ldd	r22, Y+21	; 0x15
     68e:	76 2f       	mov	r23, r22
     690:	86 2f       	mov	r24, r22
     692:	96 2f       	mov	r25, r22
     694:	24 52       	subi	r18, 0x24	; 36
     696:	3a 4f       	sbci	r19, 0xFA	; 250
     698:	4f 4f       	sbci	r20, 0xFF	; 255
     69a:	5f 4f       	sbci	r21, 0xFF	; 255
     69c:	6f 4f       	sbci	r22, 0xFF	; 255
     69e:	7f 4f       	sbci	r23, 0xFF	; 255
     6a0:	8f 4f       	sbci	r24, 0xFF	; 255
     6a2:	9f 4f       	sbci	r25, 0xFF	; 255
     6a4:	2d 8b       	std	Y+21, r18	; 0x15
     6a6:	39 8f       	std	Y+25, r19	; 0x19
     6a8:	4a 8f       	std	Y+26, r20	; 0x1a
     6aa:	5b 8f       	std	Y+27, r21	; 0x1b
     6ac:	6c 8f       	std	Y+28, r22	; 0x1c
     6ae:	87 2e       	mov	r8, r23
     6b0:	98 2e       	mov	r9, r24
     6b2:	9d 8f       	std	Y+29, r25	; 0x1d
     6b4:	0e 94 e7 12 	call	0x25ce	; 0x25ce <__ashldi3>
     6b8:	ad 88       	ldd	r10, Y+21	; 0x15
     6ba:	b9 8c       	ldd	r11, Y+25	; 0x19
     6bc:	ca 8c       	ldd	r12, Y+26	; 0x1a
     6be:	db 8c       	ldd	r13, Y+27	; 0x1b
     6c0:	ec 8c       	ldd	r14, Y+28	; 0x1c
     6c2:	f8 2c       	mov	r15, r8
     6c4:	09 2d       	mov	r16, r9
     6c6:	1d 8d       	ldd	r17, Y+29	; 0x1d
     6c8:	0e 94 1e 13 	call	0x263c	; 0x263c <__adddi3>
     6cc:	0e 94 8e 12 	call	0x251c	; 0x251c <__muldi3>
     6d0:	ad a0       	ldd	r10, Y+37	; 0x25
     6d2:	bb a4       	ldd	r11, Y+43	; 0x2b
     6d4:	cc a4       	ldd	r12, Y+44	; 0x2c
     6d6:	dd a4       	ldd	r13, Y+45	; 0x2d
     6d8:	ee a4       	ldd	r14, Y+46	; 0x2e
     6da:	ff a4       	ldd	r15, Y+47	; 0x2f
     6dc:	08 a9       	ldd	r16, Y+48	; 0x30
     6de:	18 ad       	ldd	r17, Y+56	; 0x38
     6e0:	0e 94 1e 13 	call	0x263c	; 0x263c <__adddi3>
     6e4:	2e a3       	std	Y+38, r18	; 0x26
     6e6:	3f a3       	std	Y+39, r19	; 0x27
     6e8:	48 a7       	std	Y+40, r20	; 0x28
     6ea:	59 a7       	std	Y+41, r21	; 0x29
     6ec:	6a a7       	std	Y+42, r22	; 0x2a
     6ee:	7b ab       	std	Y+51, r23	; 0x33
     6f0:	8c ab       	std	Y+52, r24	; 0x34
     6f2:	9d ab       	std	Y+53, r25	; 0x35
			SENS2 += 9 * ((int64_t)TEMP + 1500) * ((int64_t)TEMP + 1500);
     6f4:	2d 89       	ldd	r18, Y+21	; 0x15
     6f6:	39 8d       	ldd	r19, Y+25	; 0x19
     6f8:	4a 8d       	ldd	r20, Y+26	; 0x1a
     6fa:	5b 8d       	ldd	r21, Y+27	; 0x1b
     6fc:	6c 8d       	ldd	r22, Y+28	; 0x1c
     6fe:	78 2d       	mov	r23, r8
     700:	89 2d       	mov	r24, r9
     702:	9d 8d       	ldd	r25, Y+29	; 0x1d
     704:	03 e0       	ldi	r16, 0x03	; 3
     706:	0e 94 e7 12 	call	0x25ce	; 0x25ce <__ashldi3>
     70a:	ad 88       	ldd	r10, Y+21	; 0x15
     70c:	b9 8c       	ldd	r11, Y+25	; 0x19
     70e:	ca 8c       	ldd	r12, Y+26	; 0x1a
     710:	db 8c       	ldd	r13, Y+27	; 0x1b
     712:	ec 8c       	ldd	r14, Y+28	; 0x1c
     714:	f8 2c       	mov	r15, r8
     716:	09 2d       	mov	r16, r9
     718:	1d 8d       	ldd	r17, Y+29	; 0x1d
     71a:	0e 94 1e 13 	call	0x263c	; 0x263c <__adddi3>
     71e:	0e 94 8e 12 	call	0x251c	; 0x251c <__muldi3>
     722:	a9 ac       	ldd	r10, Y+57	; 0x39
     724:	ba ac       	ldd	r11, Y+58	; 0x3a
     726:	cb ac       	ldd	r12, Y+59	; 0x3b
     728:	dc ac       	ldd	r13, Y+60	; 0x3c
     72a:	ed ac       	ldd	r14, Y+61	; 0x3d
     72c:	fe ac       	ldd	r15, Y+62	; 0x3e
     72e:	0f ad       	ldd	r16, Y+63	; 0x3f
     730:	21 96       	adiw	r28, 0x01	; 1
     732:	1f ad       	ldd	r17, Y+63	; 0x3f
     734:	21 97       	sbiw	r28, 0x01	; 1
     736:	0e 94 1e 13 	call	0x263c	; 0x263c <__adddi3>
     73a:	29 8f       	std	Y+25, r18	; 0x19
     73c:	3a 8f       	std	Y+26, r19	; 0x1a
     73e:	4b 8f       	std	Y+27, r20	; 0x1b
     740:	5c 8f       	std	Y+28, r21	; 0x1c
     742:	6d 8f       	std	Y+29, r22	; 0x1d
     744:	7c a3       	std	Y+36, r23	; 0x24
     746:	8e ab       	std	Y+54, r24	; 0x36
     748:	9f ab       	std	Y+55, r25	; 0x37
     74a:	3b c0       	rjmp	.+118    	; 0x7c2 <__LOCK_REGION_LENGTH__+0x3c2>
		}
	}
	else {
		T2 = (5 * ((int64_t)dT * (int64_t)dT)) >> 38;
     74c:	a4 2c       	mov	r10, r4
     74e:	b5 2c       	mov	r11, r5
     750:	c6 2c       	mov	r12, r6
     752:	d7 2c       	mov	r13, r7
     754:	e9 84       	ldd	r14, Y+9	; 0x09
     756:	fe 2c       	mov	r15, r14
     758:	0e 2d       	mov	r16, r14
     75a:	1e 2d       	mov	r17, r14
     75c:	24 2d       	mov	r18, r4
     75e:	35 2d       	mov	r19, r5
     760:	46 2d       	mov	r20, r6
     762:	57 2d       	mov	r21, r7
     764:	60 2f       	mov	r22, r16
     766:	70 2f       	mov	r23, r16
     768:	80 2f       	mov	r24, r16
     76a:	9e 2d       	mov	r25, r14
     76c:	0e 94 8e 12 	call	0x251c	; 0x251c <__muldi3>
     770:	a2 2e       	mov	r10, r18
     772:	b3 2e       	mov	r11, r19
     774:	c4 2e       	mov	r12, r20
     776:	d5 2e       	mov	r13, r21
     778:	e6 2e       	mov	r14, r22
     77a:	f7 2e       	mov	r15, r23
     77c:	e8 2f       	mov	r30, r24
     77e:	19 2f       	mov	r17, r25
     780:	02 e0       	ldi	r16, 0x02	; 2
     782:	0e 94 e7 12 	call	0x25ce	; 0x25ce <__ashldi3>
     786:	0e 2f       	mov	r16, r30
     788:	0e 94 1e 13 	call	0x263c	; 0x263c <__adddi3>
     78c:	06 e2       	ldi	r16, 0x26	; 38
     78e:	0e 94 00 13 	call	0x2600	; 0x2600 <__ashrdi3>
     792:	2d 87       	std	Y+13, r18	; 0x0d
     794:	3e 87       	std	Y+14, r19	; 0x0e
     796:	4f 87       	std	Y+15, r20	; 0x0f
     798:	58 8b       	std	Y+16, r21	; 0x10
     79a:	69 8b       	std	Y+17, r22	; 0x11
     79c:	7a 8b       	std	Y+18, r23	; 0x12
     79e:	8b 8b       	std	Y+19, r24	; 0x13
     7a0:	9c 8b       	std	Y+20, r25	; 0x14
		OFF2 = 0;
		SENS2 = 0;
     7a2:	19 8e       	std	Y+25, r1	; 0x19
     7a4:	1a 8e       	std	Y+26, r1	; 0x1a
     7a6:	1b 8e       	std	Y+27, r1	; 0x1b
     7a8:	1c 8e       	std	Y+28, r1	; 0x1c
     7aa:	1d 8e       	std	Y+29, r1	; 0x1d
     7ac:	1c a2       	std	Y+36, r1	; 0x24
     7ae:	1e aa       	std	Y+54, r1	; 0x36
     7b0:	1f aa       	std	Y+55, r1	; 0x37
			SENS2 += 9 * ((int64_t)TEMP + 1500) * ((int64_t)TEMP + 1500);
		}
	}
	else {
		T2 = (5 * ((int64_t)dT * (int64_t)dT)) >> 38;
		OFF2 = 0;
     7b2:	1e a2       	std	Y+38, r1	; 0x26
     7b4:	1f a2       	std	Y+39, r1	; 0x27
     7b6:	18 a6       	std	Y+40, r1	; 0x28
     7b8:	19 a6       	std	Y+41, r1	; 0x29
     7ba:	1a a6       	std	Y+42, r1	; 0x2a
     7bc:	1b aa       	std	Y+51, r1	; 0x33
     7be:	1c aa       	std	Y+52, r1	; 0x34
     7c0:	1d aa       	std	Y+53, r1	; 0x35
		SENS2 = 0;
	}
	
	// OFF = OFF_T1 + TCO * dT
	OFF = ((int64_t)(eepromCoeff[MS5637_PRESSURE_OFFSET_INDEX]) << 17) + (((int64_t)(eepromCoeff[MS5637_TEMP_COEFF_OF_PRESSURE_OFFSET_INDEX]) * dT) >> 6);
     7c2:	d1 01       	movw	r26, r2
     7c4:	18 96       	adiw	r26, 0x08	; 8
     7c6:	4d 91       	ld	r20, X+
     7c8:	5c 91       	ld	r21, X
     7ca:	19 97       	sbiw	r26, 0x09	; 9
     7cc:	a4 2c       	mov	r10, r4
     7ce:	b5 2c       	mov	r11, r5
     7d0:	c6 2c       	mov	r12, r6
     7d2:	d7 2c       	mov	r13, r7
     7d4:	e9 84       	ldd	r14, Y+9	; 0x09
     7d6:	fe 2c       	mov	r15, r14
     7d8:	0e 2d       	mov	r16, r14
     7da:	1e 2d       	mov	r17, r14
     7dc:	24 2f       	mov	r18, r20
     7de:	35 2f       	mov	r19, r21
     7e0:	40 e0       	ldi	r20, 0x00	; 0
     7e2:	50 e0       	ldi	r21, 0x00	; 0
     7e4:	60 e0       	ldi	r22, 0x00	; 0
     7e6:	70 e0       	ldi	r23, 0x00	; 0
     7e8:	80 e0       	ldi	r24, 0x00	; 0
     7ea:	90 e0       	ldi	r25, 0x00	; 0
     7ec:	0e 94 8e 12 	call	0x251c	; 0x251c <__muldi3>
     7f0:	06 e0       	ldi	r16, 0x06	; 6
     7f2:	0e 94 00 13 	call	0x2600	; 0x2600 <__ashrdi3>
     7f6:	2d 8b       	std	Y+21, r18	; 0x15
     7f8:	3d a3       	std	Y+37, r19	; 0x25
     7fa:	84 2e       	mov	r8, r20
     7fc:	95 2e       	mov	r9, r21
     7fe:	b6 2f       	mov	r27, r22
     800:	a7 2f       	mov	r26, r23
     802:	8b a7       	std	Y+43, r24	; 0x2b
     804:	9c a7       	std	Y+44, r25	; 0x2c
     806:	f1 01       	movw	r30, r2
     808:	a4 80       	ldd	r10, Z+4	; 0x04
     80a:	b5 80       	ldd	r11, Z+5	; 0x05
     80c:	2a 2d       	mov	r18, r10
     80e:	3b 2d       	mov	r19, r11
     810:	40 e0       	ldi	r20, 0x00	; 0
     812:	50 e0       	ldi	r21, 0x00	; 0
     814:	60 e0       	ldi	r22, 0x00	; 0
     816:	70 e0       	ldi	r23, 0x00	; 0
     818:	80 e0       	ldi	r24, 0x00	; 0
     81a:	90 e0       	ldi	r25, 0x00	; 0
     81c:	01 e1       	ldi	r16, 0x11	; 17
     81e:	0e 94 e7 12 	call	0x25ce	; 0x25ce <__ashldi3>
     822:	a2 2e       	mov	r10, r18
     824:	b3 2e       	mov	r11, r19
     826:	c4 2e       	mov	r12, r20
     828:	d5 2e       	mov	r13, r21
     82a:	e6 2e       	mov	r14, r22
     82c:	f7 2e       	mov	r15, r23
     82e:	08 2f       	mov	r16, r24
     830:	19 2f       	mov	r17, r25
     832:	2d 89       	ldd	r18, Y+21	; 0x15
     834:	3d a1       	ldd	r19, Y+37	; 0x25
     836:	48 2d       	mov	r20, r8
     838:	59 2d       	mov	r21, r9
     83a:	6b 2f       	mov	r22, r27
     83c:	7a 2f       	mov	r23, r26
     83e:	8b a5       	ldd	r24, Y+43	; 0x2b
     840:	9c a5       	ldd	r25, Y+44	; 0x2c
     842:	0e 94 1e 13 	call	0x263c	; 0x263c <__adddi3>
     846:	2d 8b       	std	Y+21, r18	; 0x15
     848:	3d a3       	std	Y+37, r19	; 0x25
     84a:	4b a7       	std	Y+43, r20	; 0x2b
     84c:	5c a7       	std	Y+44, r21	; 0x2c
     84e:	6d a7       	std	Y+45, r22	; 0x2d
     850:	7e a7       	std	Y+46, r23	; 0x2e
     852:	8f a7       	std	Y+47, r24	; 0x2f
     854:	98 ab       	std	Y+48, r25	; 0x30
	OFF -= OFF2 ;
	
	// Sensitivity at actual temperature = SENS_T1 + TCS * dT
	SENS = ((int64_t)eepromCoeff[MS5637_PRESSURE_SENSITIVITY_INDEX] << 16) + (((int64_t)eepromCoeff[MS5637_TEMP_COEFF_OF_PRESSURE_SENSITIVITY_INDEX] * dT) >> 7);
     856:	46 81       	ldd	r20, Z+6	; 0x06
     858:	57 81       	ldd	r21, Z+7	; 0x07
     85a:	a4 2c       	mov	r10, r4
     85c:	b5 2c       	mov	r11, r5
     85e:	c6 2c       	mov	r12, r6
     860:	d7 2c       	mov	r13, r7
     862:	e9 84       	ldd	r14, Y+9	; 0x09
     864:	fe 2c       	mov	r15, r14
     866:	0e 2d       	mov	r16, r14
     868:	1e 2d       	mov	r17, r14
     86a:	24 2f       	mov	r18, r20
     86c:	35 2f       	mov	r19, r21
     86e:	40 e0       	ldi	r20, 0x00	; 0
     870:	50 e0       	ldi	r21, 0x00	; 0
     872:	60 e0       	ldi	r22, 0x00	; 0
     874:	70 e0       	ldi	r23, 0x00	; 0
     876:	80 e0       	ldi	r24, 0x00	; 0
     878:	90 e0       	ldi	r25, 0x00	; 0
     87a:	0e 94 8e 12 	call	0x251c	; 0x251c <__muldi3>
     87e:	07 e0       	ldi	r16, 0x07	; 7
     880:	0e 94 00 13 	call	0x2600	; 0x2600 <__ashrdi3>
     884:	62 2e       	mov	r6, r18
     886:	73 2e       	mov	r7, r19
     888:	44 2e       	mov	r4, r20
     88a:	55 2e       	mov	r5, r21
     88c:	b6 2f       	mov	r27, r22
     88e:	a7 2f       	mov	r26, r23
     890:	89 87       	std	Y+9, r24	; 0x09
     892:	98 af       	std	Y+56, r25	; 0x38
     894:	f1 01       	movw	r30, r2
     896:	a2 80       	ldd	r10, Z+2	; 0x02
     898:	b3 80       	ldd	r11, Z+3	; 0x03
     89a:	45 01       	movw	r8, r10
     89c:	28 2d       	mov	r18, r8
     89e:	39 2d       	mov	r19, r9
     8a0:	40 e0       	ldi	r20, 0x00	; 0
     8a2:	50 e0       	ldi	r21, 0x00	; 0
     8a4:	60 e0       	ldi	r22, 0x00	; 0
     8a6:	70 e0       	ldi	r23, 0x00	; 0
     8a8:	80 e0       	ldi	r24, 0x00	; 0
     8aa:	90 e0       	ldi	r25, 0x00	; 0
     8ac:	00 e1       	ldi	r16, 0x10	; 16
     8ae:	0e 94 e7 12 	call	0x25ce	; 0x25ce <__ashldi3>
     8b2:	a2 2e       	mov	r10, r18
     8b4:	b3 2e       	mov	r11, r19
     8b6:	c4 2e       	mov	r12, r20
     8b8:	d5 2e       	mov	r13, r21
     8ba:	e6 2e       	mov	r14, r22
     8bc:	f7 2e       	mov	r15, r23
     8be:	08 2f       	mov	r16, r24
     8c0:	19 2f       	mov	r17, r25
     8c2:	26 2d       	mov	r18, r6
     8c4:	37 2d       	mov	r19, r7
     8c6:	44 2d       	mov	r20, r4
     8c8:	55 2d       	mov	r21, r5
     8ca:	6b 2f       	mov	r22, r27
     8cc:	7a 2f       	mov	r23, r26
     8ce:	89 85       	ldd	r24, Y+9	; 0x09
     8d0:	98 ad       	ldd	r25, Y+56	; 0x38
     8d2:	0e 94 1e 13 	call	0x263c	; 0x263c <__adddi3>
	SENS -= SENS2 ;
	
	// Temperature compensated pressure = D1 * SENS - OFF
	P = (((adc_pressure * SENS) >> 21 ) - OFF) >> 15;
     8d6:	cd 80       	ldd	r12, Y+5	; 0x05
     8d8:	de 80       	ldd	r13, Y+6	; 0x06
     8da:	ef 80       	ldd	r14, Y+7	; 0x07
     8dc:	f8 84       	ldd	r15, Y+8	; 0x08
     8de:	16 01       	movw	r2, r12
     8e0:	27 01       	movw	r4, r14
     8e2:	a9 8c       	ldd	r10, Y+25	; 0x19
     8e4:	ba 8c       	ldd	r11, Y+26	; 0x1a
     8e6:	cb 8c       	ldd	r12, Y+27	; 0x1b
     8e8:	dc 8c       	ldd	r13, Y+28	; 0x1c
     8ea:	ed 8c       	ldd	r14, Y+29	; 0x1d
     8ec:	fc a0       	ldd	r15, Y+36	; 0x24
     8ee:	0e a9       	ldd	r16, Y+54	; 0x36
     8f0:	1f a9       	ldd	r17, Y+55	; 0x37
     8f2:	0e 94 33 13 	call	0x2666	; 0x2666 <__subdi3>
     8f6:	a2 2e       	mov	r10, r18
     8f8:	b3 2e       	mov	r11, r19
     8fa:	c4 2e       	mov	r12, r20
     8fc:	d5 2e       	mov	r13, r21
     8fe:	e6 2e       	mov	r14, r22
     900:	f7 2e       	mov	r15, r23
     902:	08 2f       	mov	r16, r24
     904:	19 2f       	mov	r17, r25
     906:	22 2d       	mov	r18, r2
     908:	33 2d       	mov	r19, r3
     90a:	44 2d       	mov	r20, r4
     90c:	55 2d       	mov	r21, r5
     90e:	60 e0       	ldi	r22, 0x00	; 0
     910:	70 e0       	ldi	r23, 0x00	; 0
     912:	80 e0       	ldi	r24, 0x00	; 0
     914:	90 e0       	ldi	r25, 0x00	; 0
     916:	0e 94 8e 12 	call	0x251c	; 0x251c <__muldi3>
     91a:	05 e1       	ldi	r16, 0x15	; 21
     91c:	0e 94 00 13 	call	0x2600	; 0x2600 <__ashrdi3>
     920:	22 2e       	mov	r2, r18
     922:	33 2e       	mov	r3, r19
     924:	44 2e       	mov	r4, r20
     926:	55 2e       	mov	r5, r21
     928:	b6 2f       	mov	r27, r22
     92a:	a7 2f       	mov	r26, r23
     92c:	f8 2f       	mov	r31, r24
     92e:	e9 2f       	mov	r30, r25
     930:	2d 89       	ldd	r18, Y+21	; 0x15
     932:	3d a1       	ldd	r19, Y+37	; 0x25
     934:	4b a5       	ldd	r20, Y+43	; 0x2b
     936:	5c a5       	ldd	r21, Y+44	; 0x2c
     938:	6d a5       	ldd	r22, Y+45	; 0x2d
     93a:	7e a5       	ldd	r23, Y+46	; 0x2e
     93c:	8f a5       	ldd	r24, Y+47	; 0x2f
     93e:	98 a9       	ldd	r25, Y+48	; 0x30
     940:	ae a0       	ldd	r10, Y+38	; 0x26
     942:	bf a0       	ldd	r11, Y+39	; 0x27
     944:	c8 a4       	ldd	r12, Y+40	; 0x28
     946:	d9 a4       	ldd	r13, Y+41	; 0x29
     948:	ea a4       	ldd	r14, Y+42	; 0x2a
     94a:	fb a8       	ldd	r15, Y+51	; 0x33
     94c:	0c a9       	ldd	r16, Y+52	; 0x34
     94e:	1d a9       	ldd	r17, Y+53	; 0x35
     950:	0e 94 33 13 	call	0x2666	; 0x2666 <__subdi3>
     954:	a2 2e       	mov	r10, r18
     956:	b3 2e       	mov	r11, r19
     958:	c4 2e       	mov	r12, r20
     95a:	d5 2e       	mov	r13, r21
     95c:	e6 2e       	mov	r14, r22
     95e:	f7 2e       	mov	r15, r23
     960:	08 2f       	mov	r16, r24
     962:	19 2f       	mov	r17, r25
     964:	22 2d       	mov	r18, r2
     966:	33 2d       	mov	r19, r3
     968:	44 2d       	mov	r20, r4
     96a:	55 2d       	mov	r21, r5
     96c:	6b 2f       	mov	r22, r27
     96e:	7a 2f       	mov	r23, r26
     970:	8f 2f       	mov	r24, r31
     972:	9e 2f       	mov	r25, r30
     974:	0e 94 33 13 	call	0x2666	; 0x2666 <__subdi3>
     978:	0f e0       	ldi	r16, 0x0F	; 15
     97a:	0e 94 00 13 	call	0x2600	; 0x2600 <__ashrdi3>
	
	*temperature = TEMP - ((int32_t) T2);
     97e:	8e 8d       	ldd	r24, Y+30	; 0x1e
     980:	9f 8d       	ldd	r25, Y+31	; 0x1f
     982:	a8 a1       	ldd	r26, Y+32	; 0x20
     984:	b9 a1       	ldd	r27, Y+33	; 0x21
     986:	ed 84       	ldd	r14, Y+13	; 0x0d
     988:	fe 84       	ldd	r15, Y+14	; 0x0e
     98a:	0f 85       	ldd	r16, Y+15	; 0x0f
     98c:	18 89       	ldd	r17, Y+16	; 0x10
     98e:	8e 19       	sub	r24, r14
     990:	9f 09       	sbc	r25, r15
     992:	a0 0b       	sbc	r26, r16
     994:	b1 0b       	sbc	r27, r17
     996:	e9 a9       	ldd	r30, Y+49	; 0x31
     998:	fa a9       	ldd	r31, Y+50	; 0x32
     99a:	80 83       	st	Z, r24
     99c:	91 83       	std	Z+1, r25	; 0x01
     99e:	a2 83       	std	Z+2, r26	; 0x02
     9a0:	b3 83       	std	Z+3, r27	; 0x03
	*pressure = P;
     9a2:	aa a1       	ldd	r26, Y+34	; 0x22
     9a4:	bb a1       	ldd	r27, Y+35	; 0x23
     9a6:	2c 93       	st	X, r18
     9a8:	11 96       	adiw	r26, 0x01	; 1
     9aa:	3c 93       	st	X, r19
     9ac:	11 97       	sbiw	r26, 0x01	; 1
     9ae:	12 96       	adiw	r26, 0x02	; 2
     9b0:	4c 93       	st	X, r20
     9b2:	12 97       	sbiw	r26, 0x02	; 2
     9b4:	13 96       	adiw	r26, 0x03	; 3
     9b6:	5c 93       	st	X, r21
     9b8:	c0 5c       	subi	r28, 0xC0	; 192
     9ba:	df 4f       	sbci	r29, 0xFF	; 255
     9bc:	cd bf       	out	0x3d, r28	; 61
     9be:	de bf       	out	0x3e, r29	; 62
     9c0:	df 91       	pop	r29
     9c2:	cf 91       	pop	r28
     9c4:	1f 91       	pop	r17
     9c6:	0f 91       	pop	r16
     9c8:	ff 90       	pop	r15
     9ca:	ef 90       	pop	r14
     9cc:	df 90       	pop	r13
     9ce:	cf 90       	pop	r12
     9d0:	bf 90       	pop	r11
     9d2:	af 90       	pop	r10
     9d4:	9f 90       	pop	r9
     9d6:	8f 90       	pop	r8
     9d8:	7f 90       	pop	r7
     9da:	6f 90       	pop	r6
     9dc:	5f 90       	pop	r5
     9de:	4f 90       	pop	r4
     9e0:	3f 90       	pop	r3
     9e2:	2f 90       	pop	r2
     9e4:	08 95       	ret

000009e6 <_Z16sigfoxFirstStartv>:
#include "SigfoxAxSip.h"

void sigfoxFirstStart() {
	println("\n"); // IMPORTANT: wake sigfox up
     9e6:	80 ef       	ldi	r24, 0xF0	; 240
     9e8:	96 ea       	ldi	r25, 0xA6	; 166
     9ea:	0e 94 8d 0e 	call	0x1d1a	; 0x1d1a <_Z7printlnPKc>
     9ee:	2f e3       	ldi	r18, 0x3F	; 63
     9f0:	8d e0       	ldi	r24, 0x0D	; 13
     9f2:	93 e0       	ldi	r25, 0x03	; 3
     9f4:	21 50       	subi	r18, 0x01	; 1
     9f6:	80 40       	sbci	r24, 0x00	; 0
     9f8:	90 40       	sbci	r25, 0x00	; 0
     9fa:	e1 f7       	brne	.-8      	; 0x9f4 <_Z16sigfoxFirstStartv+0xe>
     9fc:	00 c0       	rjmp	.+0      	; 0x9fe <_Z16sigfoxFirstStartv+0x18>
     9fe:	00 00       	nop
     a00:	08 95       	ret

00000a02 <_Z17sigfoxWaitForOkayj>:
	println("AT");
	if(!sigfoxWaitForOkay(1000)) { return false; }
	return true;
}

bool sigfoxWaitForOkay(uint16_t timeoutMs) {
     a02:	cf 93       	push	r28
     a04:	df 93       	push	r29
     a06:	cd b7       	in	r28, 0x3d	; 61
     a08:	de b7       	in	r29, 0x3e	; 62
     a0a:	c4 5b       	subi	r28, 0xB4	; 180
     a0c:	d1 09       	sbc	r29, r1
     a0e:	cd bf       	out	0x3d, r28	; 61
     a10:	de bf       	out	0x3e, r29	; 62
	char *startMessage;
	char messageBuffer[SIGFOX_START_BUFFER_SIZE];

	if(!uartRead('\n', messageBuffer, SIGFOX_START_BUFFER_SIZE, timeoutMs)) { return false; } // wait until L70 is booted, should return $PMTK010,00X*2E\r\n
     a12:	9c 01       	movw	r18, r24
     a14:	44 eb       	ldi	r20, 0xB4	; 180
     a16:	be 01       	movw	r22, r28
     a18:	6f 5f       	subi	r22, 0xFF	; 255
     a1a:	7f 4f       	sbci	r23, 0xFF	; 255
     a1c:	8a e0       	ldi	r24, 0x0A	; 10
     a1e:	0e 94 36 0e 	call	0x1c6c	; 0x1c6c <_Z8uartReadcPchj>
     a22:	88 23       	and	r24, r24
     a24:	81 f0       	breq	.+32     	; 0xa46 <_Z17sigfoxWaitForOkayj+0x44>
	startMessage = strchr(messageBuffer, 'O'); // remove possible noise before $
     a26:	6f e4       	ldi	r22, 0x4F	; 79
     a28:	70 e0       	ldi	r23, 0x00	; 0
     a2a:	ce 01       	movw	r24, r28
     a2c:	01 96       	adiw	r24, 0x01	; 1
     a2e:	0e 94 4f 13 	call	0x269e	; 0x269e <strchr>
     a32:	fc 01       	movw	r30, r24
	if((startMessage != NULL) && (strlen(startMessage) > 0)) {
     a34:	89 2b       	or	r24, r25
     a36:	31 f0       	breq	.+12     	; 0xa44 <_Z17sigfoxWaitForOkayj+0x42>
		if(startMessage[0] == 'O') {
     a38:	81 e0       	ldi	r24, 0x01	; 1
     a3a:	90 81       	ld	r25, Z
     a3c:	9f 34       	cpi	r25, 0x4F	; 79
     a3e:	19 f0       	breq	.+6      	; 0xa46 <_Z17sigfoxWaitForOkayj+0x44>
     a40:	80 e0       	ldi	r24, 0x00	; 0
     a42:	01 c0       	rjmp	.+2      	; 0xa46 <_Z17sigfoxWaitForOkayj+0x44>
			return true;
		}
	}	
	return false;
     a44:	80 e0       	ldi	r24, 0x00	; 0
}
     a46:	cc 54       	subi	r28, 0x4C	; 76
     a48:	df 4f       	sbci	r29, 0xFF	; 255
     a4a:	cd bf       	out	0x3d, r28	; 61
     a4c:	de bf       	out	0x3e, r29	; 62
     a4e:	df 91       	pop	r29
     a50:	cf 91       	pop	r28
     a52:	08 95       	ret

00000a54 <_Z11sigfoxAlivev>:
	println("\n"); // IMPORTANT: wake sigfox up
	_delay_ms(1000);	
}

bool sigfoxAlive() {
	println("AT");
     a54:	82 ef       	ldi	r24, 0xF2	; 242
     a56:	96 ea       	ldi	r25, 0xA6	; 166
     a58:	0e 94 8d 0e 	call	0x1d1a	; 0x1d1a <_Z7printlnPKc>
	if(!sigfoxWaitForOkay(1000)) { return false; }
     a5c:	88 ee       	ldi	r24, 0xE8	; 232
     a5e:	93 e0       	ldi	r25, 0x03	; 3
     a60:	0e 94 01 05 	call	0xa02	; 0xa02 <_Z17sigfoxWaitForOkayj>
	return true;
}
     a64:	08 95       	ret

00000a66 <_Z11sigfoxSleepv>:
	}	
	return false;
}

bool sigfoxSleep() {
	println("AT$P=2");
     a66:	85 ef       	ldi	r24, 0xF5	; 245
     a68:	96 ea       	ldi	r25, 0xA6	; 166
     a6a:	0e 94 8d 0e 	call	0x1d1a	; 0x1d1a <_Z7printlnPKc>
	if(!sigfoxWaitForOkay(2000)) { return false; }
     a6e:	80 ed       	ldi	r24, 0xD0	; 208
     a70:	97 e0       	ldi	r25, 0x07	; 7
     a72:	0e 94 01 05 	call	0xa02	; 0xa02 <_Z17sigfoxWaitForOkayj>
	return true;
}
     a76:	08 95       	ret

00000a78 <_Z10sigfoxSendPhh>:

bool sigfoxSend(uint8_t *data, uint8_t len) {
     a78:	ef 92       	push	r14
     a7a:	ff 92       	push	r15
     a7c:	0f 93       	push	r16
     a7e:	1f 93       	push	r17
     a80:	cf 93       	push	r28
	if(len > 12) { return false; } // sigfox supports a maximum of 12 byte
     a82:	6d 30       	cpi	r22, 0x0D	; 13
     a84:	40 f5       	brcc	.+80     	; 0xad6 <_Z10sigfoxSendPhh+0x5e>
     a86:	06 2f       	mov	r16, r22
     a88:	7c 01       	movw	r14, r24
	print("AT$SF=");
     a8a:	8c ef       	ldi	r24, 0xFC	; 252
     a8c:	96 ea       	ldi	r25, 0xA6	; 166
     a8e:	0e 94 78 0e 	call	0x1cf0	; 0x1cf0 <_Z5printPKc>
	int8_t i = 0;
	while(i<len) {
     a92:	10 e0       	ldi	r17, 0x00	; 0
     a94:	10 16       	cp	r1, r16
     a96:	11 06       	cpc	r1, r17
     a98:	8c f4       	brge	.+34     	; 0xabc <_Z10sigfoxSendPhh+0x44>
     a9a:	c0 e0       	ldi	r28, 0x00	; 0
		printByteAsHex(data[i]); // with printf and without _delay_ms(1) other device receives corrupted data, seems to be printf problem
     a9c:	f7 01       	movw	r30, r14
     a9e:	ec 0f       	add	r30, r28
     aa0:	f1 1d       	adc	r31, r1
     aa2:	c7 fd       	sbrc	r28, 7
     aa4:	fa 95       	dec	r31
     aa6:	80 81       	ld	r24, Z
     aa8:	0e 94 c5 0e 	call	0x1d8a	; 0x1d8a <_Z14printByteAsHexh>
     aac:	cf 5f       	subi	r28, 0xFF	; 255

bool sigfoxSend(uint8_t *data, uint8_t len) {
	if(len > 12) { return false; } // sigfox supports a maximum of 12 byte
	print("AT$SF=");
	int8_t i = 0;
	while(i<len) {
     aae:	2c 2f       	mov	r18, r28
     ab0:	0c 2e       	mov	r0, r28
     ab2:	00 0c       	add	r0, r0
     ab4:	33 0b       	sbc	r19, r19
     ab6:	20 17       	cp	r18, r16
     ab8:	31 07       	cpc	r19, r17
     aba:	84 f3       	brlt	.-32     	; 0xa9c <_Z10sigfoxSendPhh+0x24>
		printByteAsHex(data[i]); // with printf and without _delay_ms(1) other device receives corrupted data, seems to be printf problem
		i++;
	}
	print("\n");
     abc:	80 ef       	ldi	r24, 0xF0	; 240
     abe:	96 ea       	ldi	r25, 0xA6	; 166
     ac0:	0e 94 78 0e 	call	0x1cf0	; 0x1cf0 <_Z5printPKc>
	print("\r");
     ac4:	84 e1       	ldi	r24, 0x14	; 20
     ac6:	97 ea       	ldi	r25, 0xA7	; 167
     ac8:	0e 94 78 0e 	call	0x1cf0	; 0x1cf0 <_Z5printPKc>
	if(!sigfoxWaitForOkay(12000)) { return false; } // wait for some seconds
     acc:	80 ee       	ldi	r24, 0xE0	; 224
     ace:	9e e2       	ldi	r25, 0x2E	; 46
     ad0:	0e 94 01 05 	call	0xa02	; 0xa02 <_Z17sigfoxWaitForOkayj>
     ad4:	01 c0       	rjmp	.+2      	; 0xad8 <_Z10sigfoxSendPhh+0x60>
	if(!sigfoxWaitForOkay(2000)) { return false; }
	return true;
}

bool sigfoxSend(uint8_t *data, uint8_t len) {
	if(len > 12) { return false; } // sigfox supports a maximum of 12 byte
     ad6:	80 e0       	ldi	r24, 0x00	; 0
	}
	print("\n");
	print("\r");
	if(!sigfoxWaitForOkay(12000)) { return false; } // wait for some seconds
	return true;
}
     ad8:	cf 91       	pop	r28
     ada:	1f 91       	pop	r17
     adc:	0f 91       	pop	r16
     ade:	ff 90       	pop	r15
     ae0:	ef 90       	pop	r14
     ae2:	08 95       	ret

00000ae4 <_Z14deviceInitPinsv>:
	// after settings speed to 32KHz all delays are wrong by a factor of 1MHz / 32kHz = 31UL, use _delay_ms(Helper::to32KHz(1000));
	_PROTECTED_WRITE(CLKCTRL.MCLKCTRLB, CLKCTRL_PDIV_2X_gc | 0 << CLKCTRL_PEN_bp); // set the main clock prescaler divisor to 2X and disable the Main clock prescaler (with PEN = 0, means CLK_PER = CLK_MAIN (prescaler disabled))
	_PROTECTED_WRITE(CLKCTRL.MCLKCTRLA, CLKCTRL_CLKSEL_OSCULP32K_gc | 0 << CLKCTRL_CLKOUT_bp); // set the main clock to internal 32kHz oscillator, clock out disabled
	_PROTECTED_WRITE(CLKCTRL.OSC20MCTRLA, 0x00); // ensure 20MHz isn't forced on
	while(CLKCTRL.MCLKSTATUS & CLKCTRL_SOSC_bm) { ; } // wait until clock changed	
}
     ae4:	8e ef       	ldi	r24, 0xFE	; 254
     ae6:	80 93 00 04 	sts	0x0400, r24	; 0x800400 <__RODATA_PM_OFFSET__+0x7f8400>
     aea:	87 e3       	ldi	r24, 0x37	; 55
     aec:	80 93 20 04 	sts	0x0420, r24	; 0x800420 <__RODATA_PM_OFFSET__+0x7f8420>
     af0:	8b e0       	ldi	r24, 0x0B	; 11
     af2:	80 93 40 04 	sts	0x0440, r24	; 0x800440 <__RODATA_PM_OFFSET__+0x7f8440>
     af6:	08 95       	ret

00000af8 <_Z15deviceStopTimerv>:
     af8:	f8 94       	cli
     afa:	e0 e0       	ldi	r30, 0x00	; 0
     afc:	fa e0       	ldi	r31, 0x0A	; 10
     afe:	12 86       	std	Z+10, r1	; 0x0a
     b00:	10 82       	st	Z, r1
     b02:	78 94       	sei
     b04:	08 95       	ret

00000b06 <_Z18deviceStandbySleepv>:
     b06:	0e 94 7c 05 	call	0xaf8	; 0xaf8 <_Z15deviceStopTimerv>
     b0a:	e0 e2       	ldi	r30, 0x20	; 32
     b0c:	f4 e0       	ldi	r31, 0x04	; 4
     b0e:	10 8a       	std	Z+16, r1	; 0x10
     b10:	11 8a       	std	Z+17, r1	; 0x11
     b12:	e0 e5       	ldi	r30, 0x50	; 80
     b14:	f0 e0       	ldi	r31, 0x00	; 0
     b16:	80 81       	ld	r24, Z
     b18:	89 7f       	andi	r24, 0xF9	; 249
     b1a:	82 60       	ori	r24, 0x02	; 2
     b1c:	80 83       	st	Z, r24
     b1e:	80 81       	ld	r24, Z
     b20:	81 60       	ori	r24, 0x01	; 1
     b22:	80 83       	st	Z, r24
     b24:	88 95       	sleep
     b26:	08 95       	ret

00000b28 <_Z30deviceInitInternalRTCInterruptj>:
     b28:	9c 01       	movw	r18, r24
     b2a:	f8 94       	cli
     b2c:	e0 e4       	ldi	r30, 0x40	; 64
     b2e:	f1 e0       	ldi	r31, 0x01	; 1
     b30:	91 81       	ldd	r25, Z+1	; 0x01
     b32:	91 11       	cpse	r25, r1
     b34:	fd cf       	rjmp	.-6      	; 0xb30 <_Z30deviceInitInternalRTCInterruptj+0x8>
     b36:	10 92 48 01 	sts	0x0148, r1	; 0x800148 <__RODATA_PM_OFFSET__+0x7f8148>
     b3a:	10 92 49 01 	sts	0x0149, r1	; 0x800149 <__RODATA_PM_OFFSET__+0x7f8149>
     b3e:	e0 e4       	ldi	r30, 0x40	; 64
     b40:	f1 e0       	ldi	r31, 0x01	; 1
     b42:	91 81       	ldd	r25, Z+1	; 0x01
     b44:	91 11       	cpse	r25, r1
     b46:	fd cf       	rjmp	.-6      	; 0xb42 <_Z30deviceInitInternalRTCInterruptj+0x1a>
     b48:	c9 01       	movw	r24, r18
     b4a:	88 0f       	add	r24, r24
     b4c:	99 1f       	adc	r25, r25
     b4e:	88 0f       	add	r24, r24
     b50:	99 1f       	adc	r25, r25
     b52:	e0 e4       	ldi	r30, 0x40	; 64
     b54:	f1 e0       	ldi	r31, 0x01	; 1
     b56:	82 87       	std	Z+10, r24	; 0x0a
     b58:	93 87       	std	Z+11, r25	; 0x0b
     b5a:	81 e0       	ldi	r24, 0x01	; 1
     b5c:	87 83       	std	Z+7, r24	; 0x07
     b5e:	91 ec       	ldi	r25, 0xC1	; 193
     b60:	90 83       	st	Z, r25
     b62:	82 83       	std	Z+2, r24	; 0x02
     b64:	78 94       	sei
     b66:	08 95       	ret

00000b68 <_Z22getInternalTemperaturev>:
     b68:	e0 e0       	ldi	r30, 0x00	; 0
     b6a:	f6 e0       	ldi	r31, 0x06	; 6
     b6c:	81 e0       	ldi	r24, 0x01	; 1
     b6e:	80 83       	st	Z, r24
     b70:	11 82       	std	Z+1, r1	; 0x01
     b72:	8c e0       	ldi	r24, 0x0C	; 12
     b74:	82 83       	std	Z+2, r24	; 0x02
     b76:	80 e1       	ldi	r24, 0x10	; 16
     b78:	80 87       	std	Z+8, r24	; 0x08
     b7a:	92 e3       	ldi	r25, 0x32	; 50
     b7c:	94 87       	std	Z+12, r25	; 0x0c
     b7e:	82 87       	std	Z+10, r24	; 0x0a
     b80:	a0 e0       	ldi	r26, 0x00	; 0
     b82:	b1 e1       	ldi	r27, 0x11	; 17
     b84:	91 96       	adiw	r26, 0x21	; 33
     b86:	2c 91       	ld	r18, X
     b88:	91 97       	sbiw	r26, 0x21	; 33
     b8a:	90 96       	adiw	r26, 0x20	; 32
     b8c:	4c 91       	ld	r20, X
     b8e:	82 85       	ldd	r24, Z+10	; 0x0a
     b90:	81 60       	ori	r24, 0x01	; 1
     b92:	82 87       	std	Z+10, r24	; 0x0a
     b94:	85 81       	ldd	r24, Z+5	; 0x05
     b96:	80 ff       	sbrs	r24, 0
     b98:	fd cf       	rjmp	.-6      	; 0xb94 <_Z22getInternalTemperaturev+0x2c>
     b9a:	e0 e0       	ldi	r30, 0x00	; 0
     b9c:	f6 e0       	ldi	r31, 0x06	; 6
     b9e:	80 89       	ldd	r24, Z+16	; 0x10
     ba0:	91 89       	ldd	r25, Z+17	; 0x11
     ba2:	a2 89       	ldd	r26, Z+18	; 0x12
     ba4:	b3 89       	ldd	r27, Z+19	; 0x13
     ba6:	b6 95       	lsr	r27
     ba8:	a7 95       	ror	r26
     baa:	97 95       	ror	r25
     bac:	87 95       	ror	r24
     bae:	b6 95       	lsr	r27
     bb0:	a7 95       	ror	r26
     bb2:	97 95       	ror	r25
     bb4:	87 95       	ror	r24
     bb6:	02 2e       	mov	r0, r18
     bb8:	00 0c       	add	r0, r0
     bba:	33 0b       	sbc	r19, r19
     bbc:	bc 01       	movw	r22, r24
     bbe:	62 1b       	sub	r22, r18
     bc0:	73 0b       	sbc	r23, r19
     bc2:	9b 01       	movw	r18, r22
     bc4:	a4 2f       	mov	r26, r20
     bc6:	b0 e0       	ldi	r27, 0x00	; 0
     bc8:	0e 94 78 12 	call	0x24f0	; 0x24f0 <__umulhisi3>
     bcc:	dc 01       	movw	r26, r24
     bce:	cb 01       	movw	r24, r22
     bd0:	80 58       	subi	r24, 0x80	; 128
     bd2:	9f 4f       	sbci	r25, 0xFF	; 255
     bd4:	af 4f       	sbci	r26, 0xFF	; 255
     bd6:	bf 4f       	sbci	r27, 0xFF	; 255
     bd8:	10 82       	st	Z, r1
     bda:	89 2f       	mov	r24, r25
     bdc:	9a 2f       	mov	r25, r26
     bde:	ab 2f       	mov	r26, r27
     be0:	bb 27       	eor	r27, r27
     be2:	81 51       	subi	r24, 0x11	; 17
     be4:	91 40       	sbci	r25, 0x01	; 1
     be6:	08 95       	ret

00000be8 <_Z23deviceReadSupplyVoltagev>:
     be8:	e0 e0       	ldi	r30, 0x00	; 0
     bea:	f6 e0       	ldi	r31, 0x06	; 6
     bec:	81 e0       	ldi	r24, 0x01	; 1
     bee:	80 83       	st	Z, r24
     bf0:	88 e0       	ldi	r24, 0x08	; 8
     bf2:	82 83       	std	Z+2, r24	; 0x02
     bf4:	84 e6       	ldi	r24, 0x64	; 100
     bf6:	80 87       	std	Z+8, r24	; 0x08
     bf8:	83 e3       	ldi	r24, 0x33	; 51
     bfa:	84 87       	std	Z+12, r24	; 0x0c
     bfc:	80 e1       	ldi	r24, 0x10	; 16
     bfe:	82 87       	std	Z+10, r24	; 0x0a
     c00:	82 85       	ldd	r24, Z+10	; 0x0a
     c02:	81 60       	ori	r24, 0x01	; 1
     c04:	82 87       	std	Z+10, r24	; 0x0a
     c06:	85 81       	ldd	r24, Z+5	; 0x05
     c08:	80 ff       	sbrs	r24, 0
     c0a:	fd cf       	rjmp	.-6      	; 0xc06 <_Z23deviceReadSupplyVoltagev+0x1e>
     c0c:	20 91 10 06 	lds	r18, 0x0610	; 0x800610 <__RODATA_PM_OFFSET__+0x7f8610>
     c10:	30 91 11 06 	lds	r19, 0x0611	; 0x800611 <__RODATA_PM_OFFSET__+0x7f8611>
     c14:	40 91 12 06 	lds	r20, 0x0612	; 0x800612 <__RODATA_PM_OFFSET__+0x7f8612>
     c18:	50 91 13 06 	lds	r21, 0x0613	; 0x800613 <__RODATA_PM_OFFSET__+0x7f8613>
     c1c:	21 15       	cp	r18, r1
     c1e:	31 05       	cpc	r19, r1
     c20:	41 05       	cpc	r20, r1
     c22:	51 05       	cpc	r21, r1
     c24:	21 f4       	brne	.+8      	; 0xc2e <_Z23deviceReadSupplyVoltagev+0x46>
     c26:	21 e0       	ldi	r18, 0x01	; 1
     c28:	30 e0       	ldi	r19, 0x00	; 0
     c2a:	40 e0       	ldi	r20, 0x00	; 0
     c2c:	50 e0       	ldi	r21, 0x00	; 0
     c2e:	10 92 00 06 	sts	0x0600, r1	; 0x800600 <__RODATA_PM_OFFSET__+0x7f8600>
     c32:	60 e0       	ldi	r22, 0x00	; 0
     c34:	70 e0       	ldi	r23, 0x00	; 0
     c36:	80 e4       	ldi	r24, 0x40	; 64
     c38:	90 e0       	ldi	r25, 0x00	; 0
     c3a:	0e 94 2f 12 	call	0x245e	; 0x245e <__udivmodsi4>
     c3e:	c9 01       	movw	r24, r18
     c40:	08 95       	ret

00000c42 <_Z17deviceSetCPUSpeedh>:

void deviceSetCPUSpeed(uint8_t prescalerDivision) {
	_PROTECTED_WRITE(CLKCTRL.MCLKCTRLB, prescalerDivision | 1 << CLKCTRL_PEN_bp); // first bit = prescaler, always enabled
     c42:	28 ed       	ldi	r18, 0xD8	; 216
     c44:	81 60       	ori	r24, 0x01	; 1
     c46:	90 e0       	ldi	r25, 0x00	; 0
     c48:	24 bf       	out	0x34, r18	; 52
     c4a:	80 93 61 00 	sts	0x0061, r24	; 0x800061 <__RODATA_PM_OFFSET__+0x7f8061>
	_PROTECTED_WRITE(CLKCTRL.MCLKCTRLA, 0); // use internal 16/20MHz oscillator
     c4e:	80 e0       	ldi	r24, 0x00	; 0
     c50:	24 bf       	out	0x34, r18	; 52
     c52:	80 93 60 00 	sts	0x0060, r24	; 0x800060 <__RODATA_PM_OFFSET__+0x7f8060>
	while(CLKCTRL.MCLKSTATUS & CLKCTRL_SOSC_bm) { ; } // wait until clock changed
     c56:	e0 e6       	ldi	r30, 0x60	; 96
     c58:	f0 e0       	ldi	r31, 0x00	; 0
     c5a:	83 81       	ldd	r24, Z+3	; 0x03
     c5c:	80 fd       	sbrc	r24, 0
     c5e:	fd cf       	rjmp	.-6      	; 0xc5a <_Z17deviceSetCPUSpeedh+0x18>
}
     c60:	08 95       	ret

00000c62 <_Z11deviceLedOnv>:

void deviceLedOn() {
	PORTA.OUTSET = PIN2_bm; // on
     c62:	84 e0       	ldi	r24, 0x04	; 4
     c64:	80 93 05 04 	sts	0x0405, r24	; 0x800405 <__RODATA_PM_OFFSET__+0x7f8405>
     c68:	08 95       	ret

00000c6a <_Z12deviceLedOffv>:
}

void deviceLedOff() {
	PORTA.OUTCLR = PIN2_bm; // off
     c6a:	84 e0       	ldi	r24, 0x04	; 4
     c6c:	80 93 06 04 	sts	0x0406, r24	; 0x800406 <__RODATA_PM_OFFSET__+0x7f8406>
     c70:	08 95       	ret

00000c72 <_Z11deviceBlinkh>:
}

void deviceBlink(uint8_t times) {
	while(times > 0) {
     c72:	88 23       	and	r24, r24
     c74:	a9 f0       	breq	.+42     	; 0xca0 <_Z11deviceBlinkh+0x2e>
	_PROTECTED_WRITE(CLKCTRL.MCLKCTRLA, 0); // use internal 16/20MHz oscillator
	while(CLKCTRL.MCLKSTATUS & CLKCTRL_SOSC_bm) { ; } // wait until clock changed
}

void deviceLedOn() {
	PORTA.OUTSET = PIN2_bm; // on
     c76:	e0 e0       	ldi	r30, 0x00	; 0
     c78:	f4 e0       	ldi	r31, 0x04	; 4
     c7a:	94 e0       	ldi	r25, 0x04	; 4
     c7c:	95 83       	std	Z+5, r25	; 0x05
     c7e:	af e4       	ldi	r26, 0x4F	; 79
     c80:	b3 ec       	ldi	r27, 0xC3	; 195
     c82:	11 97       	sbiw	r26, 0x01	; 1
     c84:	f1 f7       	brne	.-4      	; 0xc82 <_Z11deviceBlinkh+0x10>
     c86:	00 c0       	rjmp	.+0      	; 0xc88 <_Z11deviceBlinkh+0x16>
     c88:	00 00       	nop
}

void deviceLedOff() {
	PORTA.OUTCLR = PIN2_bm; // off
     c8a:	96 83       	std	Z+6, r25	; 0x06
void deviceBlink(uint8_t times) {
	while(times > 0) {
		deviceLedOn();
		_delay_ms(200);
		deviceLedOff();
		if(times != 1) { _delay_ms(200); }
     c8c:	81 30       	cpi	r24, 0x01	; 1
     c8e:	41 f0       	breq	.+16     	; 0xca0 <_Z11deviceBlinkh+0x2e>
     c90:	af e4       	ldi	r26, 0x4F	; 79
     c92:	b3 ec       	ldi	r27, 0xC3	; 195
     c94:	11 97       	sbiw	r26, 0x01	; 1
     c96:	f1 f7       	brne	.-4      	; 0xc94 <_Z11deviceBlinkh+0x22>
     c98:	00 c0       	rjmp	.+0      	; 0xc9a <_Z11deviceBlinkh+0x28>
     c9a:	00 00       	nop
		times--;
     c9c:	81 50       	subi	r24, 0x01	; 1
void deviceLedOff() {
	PORTA.OUTCLR = PIN2_bm; // off
}

void deviceBlink(uint8_t times) {
	while(times > 0) {
     c9e:	71 f7       	brne	.-36     	; 0xc7c <_Z11deviceBlinkh+0xa>
     ca0:	08 95       	ret

00000ca2 <_Z19deviceSigfoxPinIdlev>:
		times--;
	}
}

void deviceSigfoxPinIdle() {
	PORTB.OUTSET = PIN4_bm; // active
     ca2:	80 e1       	ldi	r24, 0x10	; 16
     ca4:	80 93 25 04 	sts	0x0425, r24	; 0x800425 <__RODATA_PM_OFFSET__+0x7f8425>
     ca8:	08 95       	ret

00000caa <_Z21deviceSigfoxPinWakeUpv>:
}

void deviceSigfoxPinWakeUp() {
	PORTB.OUTCLR = PIN4_bm;
     caa:	80 e1       	ldi	r24, 0x10	; 16
     cac:	80 93 26 04 	sts	0x0426, r24	; 0x800426 <__RODATA_PM_OFFSET__+0x7f8426>
     cb0:	08 95       	ret

00000cb2 <_Z15deviceAccBaroOnv>:
}

void deviceAccBaroOn() {
	PORTC.OUTSET = PIN1_bm;
     cb2:	82 e0       	ldi	r24, 0x02	; 2
     cb4:	80 93 45 04 	sts	0x0445, r24	; 0x800445 <__RODATA_PM_OFFSET__+0x7f8445>
     cb8:	8d ee       	ldi	r24, 0xED	; 237
     cba:	92 e0       	ldi	r25, 0x02	; 2
     cbc:	01 97       	sbiw	r24, 0x01	; 1
     cbe:	f1 f7       	brne	.-4      	; 0xcbc <_Z15deviceAccBaroOnv+0xa>
     cc0:	00 c0       	rjmp	.+0      	; 0xcc2 <_Z15deviceAccBaroOnv+0x10>
     cc2:	00 00       	nop
     cc4:	08 95       	ret

00000cc6 <_Z16deviceAccBaroOffv>:
	_delay_ms(3);
}

void deviceAccBaroOff() {
	PORTC.OUTCLR = PIN1_bm;
     cc6:	82 e0       	ldi	r24, 0x02	; 2
     cc8:	80 93 46 04 	sts	0x0446, r24	; 0x800446 <__RODATA_PM_OFFSET__+0x7f8446>
     ccc:	08 95       	ret

00000cce <_Z7i2cInitv>:
	| 1 << TWI_SMEN_bp // Smart Mode Enable: enabled
	| TWI_TIMEOUT_DISABLED_gc // Bus Timeout Disabled
	| 0 << TWI_WIEN_bp; // Write Interrupt Enable: disabled
	TWI0.MCTRLB |= TWI_FLUSH_bm; // Purge MADDR and MDATA
	TWI0.MSTATUS |= TWI_BUSSTATE_IDLE_gc ; // Force TWI state machine into IDLE state
	TWI0.MSTATUS |= (TWI_RIF_bm | TWI_WIF_bm) ;
     cce:	e0 ea       	ldi	r30, 0xA0	; 160
     cd0:	f8 e0       	ldi	r31, 0x08	; 8
     cd2:	16 82       	std	Z+6, r1	; 0x06
     cd4:	83 e0       	ldi	r24, 0x03	; 3
     cd6:	83 83       	std	Z+3, r24	; 0x03
     cd8:	84 81       	ldd	r24, Z+4	; 0x04
     cda:	88 60       	ori	r24, 0x08	; 8
     cdc:	84 83       	std	Z+4, r24	; 0x04
     cde:	85 81       	ldd	r24, Z+5	; 0x05
     ce0:	81 60       	ori	r24, 0x01	; 1
     ce2:	85 83       	std	Z+5, r24	; 0x05
     ce4:	85 81       	ldd	r24, Z+5	; 0x05
     ce6:	80 6c       	ori	r24, 0xC0	; 192
     ce8:	85 83       	std	Z+5, r24	; 0x05
     cea:	08 95       	ret

00000cec <_Z7pollRIFv>:
}

bool pollRIF() {
     cec:	88 e8       	ldi	r24, 0x88	; 136
     cee:	93 e1       	ldi	r25, 0x13	; 19
	uint16_t timeout = TIMEOUT_NUM_WAIT;
	while(!(TWI0.MSTATUS & TWI_RIF_bm)) {
     cf0:	e0 ea       	ldi	r30, 0xA0	; 160
     cf2:	f8 e0       	ldi	r31, 0x08	; 8
     cf4:	25 81       	ldd	r18, Z+5	; 0x05
     cf6:	22 23       	and	r18, r18
     cf8:	44 f0       	brlt	.+16     	; 0xd0a <_Z7pollRIFv+0x1e>
	#else
		//round up by default
		__ticks_dc = (uint32_t)(ceil(fabs(__tmp)));
	#endif

	__builtin_avr_delay_cycles(__ticks_dc);
     cfa:	23 e0       	ldi	r18, 0x03	; 3
     cfc:	2a 95       	dec	r18
     cfe:	f1 f7       	brne	.-4      	; 0xcfc <_Z7pollRIFv+0x10>
     d00:	00 00       	nop
     d02:	01 97       	sbiw	r24, 0x01	; 1
		_delay_us(TIMEOUT_US_WAIT);
		timeout--;
		if(timeout == 0) {
     d04:	b9 f7       	brne	.-18     	; 0xcf4 <_Z7pollRIFv+0x8>
			return false; // failed
     d06:	80 e0       	ldi	r24, 0x00	; 0
     d08:	08 95       	ret
		}
	}
	return true;
     d0a:	81 e0       	ldi	r24, 0x01	; 1
}
     d0c:	08 95       	ret

00000d0e <_Z7pollWIFv>:

bool pollWIF() {
     d0e:	88 e8       	ldi	r24, 0x88	; 136
     d10:	93 e1       	ldi	r25, 0x13	; 19
	uint16_t timeout = TIMEOUT_NUM_WAIT;
	while(!(TWI0.MSTATUS & TWI_WIF_bm)) {
     d12:	e0 ea       	ldi	r30, 0xA0	; 160
     d14:	f8 e0       	ldi	r31, 0x08	; 8
     d16:	25 81       	ldd	r18, Z+5	; 0x05
     d18:	26 fd       	sbrc	r18, 6
     d1a:	08 c0       	rjmp	.+16     	; 0xd2c <_Z7pollWIFv+0x1e>
     d1c:	23 e0       	ldi	r18, 0x03	; 3
     d1e:	2a 95       	dec	r18
     d20:	f1 f7       	brne	.-4      	; 0xd1e <_Z7pollWIFv+0x10>
     d22:	00 00       	nop
     d24:	01 97       	sbiw	r24, 0x01	; 1
		_delay_us(TIMEOUT_US_WAIT);
		timeout--;
		if(timeout == 0) {
     d26:	b9 f7       	brne	.-18     	; 0xd16 <_Z7pollWIFv+0x8>
			return false; // failed
     d28:	80 e0       	ldi	r24, 0x00	; 0
     d2a:	08 95       	ret
		}
	}
	return true;
     d2c:	81 e0       	ldi	r24, 0x01	; 1
}
     d2e:	08 95       	ret

00000d30 <_Z12i2cStartReadh>:

bool i2cStartRead(uint8_t deviceAddr) {
	deviceAddr = (deviceAddr << 1) | 1;  // lsb = 1 for read
	if((TWI0.MSTATUS & TWI_BUSSTATE_gm) != TWI_BUSSTATE_BUSY_gc) { // verify bus is not busy
     d30:	90 91 a5 08 	lds	r25, 0x08A5	; 0x8008a5 <__RODATA_PM_OFFSET__+0x7f88a5>
     d34:	93 70       	andi	r25, 0x03	; 3
     d36:	93 30       	cpi	r25, 0x03	; 3
     d38:	59 f0       	breq	.+22     	; 0xd50 <_Z12i2cStartReadh+0x20>
		TWI0.MCTRLB &= ~(1 << TWI_ACKACT_bp);
     d3a:	e0 ea       	ldi	r30, 0xA0	; 160
     d3c:	f8 e0       	ldi	r31, 0x08	; 8
     d3e:	94 81       	ldd	r25, Z+4	; 0x04
     d40:	9b 7f       	andi	r25, 0xFB	; 251
     d42:	94 83       	std	Z+4, r25	; 0x04
	}
	return true;
}

bool i2cStartRead(uint8_t deviceAddr) {
	deviceAddr = (deviceAddr << 1) | 1;  // lsb = 1 for read
     d44:	88 0f       	add	r24, r24
     d46:	81 60       	ori	r24, 0x01	; 1
	if((TWI0.MSTATUS & TWI_BUSSTATE_gm) != TWI_BUSSTATE_BUSY_gc) { // verify bus is not busy
		TWI0.MCTRLB &= ~(1 << TWI_ACKACT_bp);
		TWI0.MADDR = deviceAddr;
     d48:	87 83       	std	Z+7, r24	; 0x07
		//while(!(TWI0.MSTATUS & TWI_RIF_bm)); // read polling
		if(!pollRIF()) { return false; }
     d4a:	0e 94 76 06 	call	0xcec	; 0xcec <_Z7pollRIFv>
     d4e:	08 95       	ret
		return true;
	}
	return false; // bus is busy
     d50:	80 e0       	ldi	r24, 0x00	; 0
}
     d52:	08 95       	ret

00000d54 <_Z13i2cStartWriteh>:

bool i2cStartWrite(uint8_t deviceAddr) {
	deviceAddr = (deviceAddr << 1); // lsb = 0 for write
	if((TWI0.MSTATUS & TWI_BUSSTATE_gm) != TWI_BUSSTATE_BUSY_gc) { // verify bus is not busy
     d54:	90 91 a5 08 	lds	r25, 0x08A5	; 0x8008a5 <__RODATA_PM_OFFSET__+0x7f88a5>
     d58:	93 70       	andi	r25, 0x03	; 3
     d5a:	93 30       	cpi	r25, 0x03	; 3
     d5c:	51 f0       	breq	.+20     	; 0xd72 <_Z13i2cStartWriteh+0x1e>
		TWI0.MCTRLB &= ~(1 << TWI_ACKACT_bp);
     d5e:	e0 ea       	ldi	r30, 0xA0	; 160
     d60:	f8 e0       	ldi	r31, 0x08	; 8
     d62:	94 81       	ldd	r25, Z+4	; 0x04
     d64:	9b 7f       	andi	r25, 0xFB	; 251
     d66:	94 83       	std	Z+4, r25	; 0x04
	}
	return false; // bus is busy
}

bool i2cStartWrite(uint8_t deviceAddr) {
	deviceAddr = (deviceAddr << 1); // lsb = 0 for write
     d68:	88 0f       	add	r24, r24
	if((TWI0.MSTATUS & TWI_BUSSTATE_gm) != TWI_BUSSTATE_BUSY_gc) { // verify bus is not busy
		TWI0.MCTRLB &= ~(1 << TWI_ACKACT_bp);
		TWI0.MADDR = deviceAddr;
     d6a:	87 83       	std	Z+7, r24	; 0x07
		//while(!(TWI0.MSTATUS & TWI_WIF_bm)); // write polling
		if(!pollWIF()) { return false; }
     d6c:	0e 94 87 06 	call	0xd0e	; 0xd0e <_Z7pollWIFv>
     d70:	08 95       	ret
		return true;
	}
	return false; // bus is busy
     d72:	80 e0       	ldi	r24, 0x00	; 0
}
     d74:	08 95       	ret

00000d76 <_Z7i2cReadb>:

uint8_t i2cRead(bool ack) { // ACK=1 send ACK ; ACK=0 send NACK
     d76:	cf 93       	push	r28
	if((TWI0.MSTATUS & TWI_BUSSTATE_gm) == TWI_BUSSTATE_OWNER_gc) { // verify master owns the bus
     d78:	90 91 a5 08 	lds	r25, 0x08A5	; 0x8008a5 <__RODATA_PM_OFFSET__+0x7f88a5>
     d7c:	93 70       	andi	r25, 0x03	; 3
     d7e:	92 30       	cpi	r25, 0x02	; 2
     d80:	a9 f4       	brne	.+42     	; 0xdac <_Z7i2cReadb+0x36>
     d82:	c8 2f       	mov	r28, r24
		//while(!(TWI0.MSTATUS & TWI_RIF_bm)); // wait until RIF set (ack of receiver)
		if(!pollRIF()) { return 0; }
     d84:	0e 94 76 06 	call	0xcec	; 0xcec <_Z7pollRIFv>
     d88:	88 23       	and	r24, r24
     d8a:	91 f0       	breq	.+36     	; 0xdb0 <_Z7i2cReadb+0x3a>
		uint8_t data = TWI0.MDATA;
     d8c:	80 91 a8 08 	lds	r24, 0x08A8	; 0x8008a8 <__RODATA_PM_OFFSET__+0x7f88a8>
		if(ack) { TWI0.MCTRLB &= ~(1<<TWI_ACKACT_bp); } // send ack
     d90:	cc 23       	and	r28, r28
     d92:	31 f0       	breq	.+12     	; 0xda0 <_Z7i2cReadb+0x2a>
     d94:	e0 ea       	ldi	r30, 0xA0	; 160
     d96:	f8 e0       	ldi	r31, 0x08	; 8
     d98:	94 81       	ldd	r25, Z+4	; 0x04
     d9a:	9b 7f       	andi	r25, 0xFB	; 251
     d9c:	94 83       	std	Z+4, r25	; 0x04
     d9e:	09 c0       	rjmp	.+18     	; 0xdb2 <_Z7i2cReadb+0x3c>
		else { TWI0.MCTRLB |= (1<<TWI_ACKACT_bp); } // do not send ack, prepare for stop
     da0:	e0 ea       	ldi	r30, 0xA0	; 160
     da2:	f8 e0       	ldi	r31, 0x08	; 8
     da4:	94 81       	ldd	r25, Z+4	; 0x04
     da6:	94 60       	ori	r25, 0x04	; 4
     da8:	94 83       	std	Z+4, r25	; 0x04
     daa:	03 c0       	rjmp	.+6      	; 0xdb2 <_Z7i2cReadb+0x3c>
		return data;
	}
	return 0; // master does not own the bus
     dac:	80 e0       	ldi	r24, 0x00	; 0
     dae:	01 c0       	rjmp	.+2      	; 0xdb2 <_Z7i2cReadb+0x3c>
}

uint8_t i2cRead(bool ack) { // ACK=1 send ACK ; ACK=0 send NACK
	if((TWI0.MSTATUS & TWI_BUSSTATE_gm) == TWI_BUSSTATE_OWNER_gc) { // verify master owns the bus
		//while(!(TWI0.MSTATUS & TWI_RIF_bm)); // wait until RIF set (ack of receiver)
		if(!pollRIF()) { return 0; }
     db0:	80 e0       	ldi	r24, 0x00	; 0
		if(ack) { TWI0.MCTRLB &= ~(1<<TWI_ACKACT_bp); } // send ack
		else { TWI0.MCTRLB |= (1<<TWI_ACKACT_bp); } // do not send ack, prepare for stop
		return data;
	}
	return 0; // master does not own the bus
}
     db2:	cf 91       	pop	r28
     db4:	08 95       	ret

00000db6 <_Z8i2cWriteh>:

bool i2cWrite(uint8_t write_data) {
	uint16_t timeout = TIMEOUT_NUM_WAIT;
	if((TWI0.MSTATUS&TWI_BUSSTATE_gm) == TWI_BUSSTATE_OWNER_gc) { // verify Master owns the bus
     db6:	90 91 a5 08 	lds	r25, 0x08A5	; 0x8008a5 <__RODATA_PM_OFFSET__+0x7f88a5>
     dba:	93 70       	andi	r25, 0x03	; 3
     dbc:	92 30       	cpi	r25, 0x02	; 2
     dbe:	a9 f4       	brne	.+42     	; 0xdea <_Z8i2cWriteh+0x34>
		TWI0.MDATA = write_data;
     dc0:	80 93 a8 08 	sts	0x08A8, r24	; 0x8008a8 <__RODATA_PM_OFFSET__+0x7f88a8>
     dc4:	28 e8       	ldi	r18, 0x88	; 136
     dc6:	33 e1       	ldi	r19, 0x13	; 19
		while(!((TWI0.MSTATUS & TWI_WIF_bm) | (TWI0.MSTATUS & TWI_RXACK_bm))) { // wait until WIF set and RXACK cleared
     dc8:	e0 ea       	ldi	r30, 0xA0	; 160
     dca:	f8 e0       	ldi	r31, 0x08	; 8
     dcc:	85 81       	ldd	r24, Z+5	; 0x05
     dce:	95 81       	ldd	r25, Z+5	; 0x05
     dd0:	90 71       	andi	r25, 0x10	; 16
     dd2:	80 74       	andi	r24, 0x40	; 64
     dd4:	89 2b       	or	r24, r25
     dd6:	59 f4       	brne	.+22     	; 0xdee <_Z8i2cWriteh+0x38>
     dd8:	83 e0       	ldi	r24, 0x03	; 3
     dda:	8a 95       	dec	r24
     ddc:	f1 f7       	brne	.-4      	; 0xdda <_Z8i2cWriteh+0x24>
     dde:	00 00       	nop
     de0:	21 50       	subi	r18, 0x01	; 1
     de2:	31 09       	sbc	r19, r1
			_delay_us(TIMEOUT_US_WAIT);
			timeout--;
			if(timeout == 0) {
     de4:	99 f7       	brne	.-26     	; 0xdcc <_Z8i2cWriteh+0x16>
				return false; // failed
     de6:	80 e0       	ldi	r24, 0x00	; 0
     de8:	08 95       	ret
			}
		}
		return true;
	}
	return false; // master does not own the bus
     dea:	80 e0       	ldi	r24, 0x00	; 0
     dec:	08 95       	ret
			timeout--;
			if(timeout == 0) {
				return false; // failed
			}
		}
		return true;
     dee:	81 e0       	ldi	r24, 0x01	; 1
	}
	return false; // master does not own the bus
}
     df0:	08 95       	ret

00000df2 <_Z7i2cStopv>:

void i2cStop() {
	TWI0.MCTRLB |= TWI_ACKACT_NACK_gc;
     df2:	e0 ea       	ldi	r30, 0xA0	; 160
     df4:	f8 e0       	ldi	r31, 0x08	; 8
     df6:	84 81       	ldd	r24, Z+4	; 0x04
     df8:	84 60       	ori	r24, 0x04	; 4
     dfa:	84 83       	std	Z+4, r24	; 0x04
	TWI0.MCTRLB |= TWI_MCMD_STOP_gc;
     dfc:	84 81       	ldd	r24, Z+4	; 0x04
     dfe:	83 60       	ori	r24, 0x03	; 3
     e00:	84 83       	std	Z+4, r24	; 0x04
     e02:	08 95       	ret

00000e04 <_Z15i2cReadRegisterhhPb>:
}

uint8_t i2cReadRegister(uint8_t address, uint8_t reg, bool *error) {
     e04:	0f 93       	push	r16
     e06:	1f 93       	push	r17
     e08:	cf 93       	push	r28
     e0a:	df 93       	push	r29
     e0c:	c8 2f       	mov	r28, r24
     e0e:	d6 2f       	mov	r29, r22
     e10:	8a 01       	movw	r16, r20
	uint8_t returnVal = 0;
	if(!i2cStartWrite(address)) { *error = true; }
     e12:	0e 94 aa 06 	call	0xd54	; 0xd54 <_Z13i2cStartWriteh>
     e16:	81 11       	cpse	r24, r1
     e18:	03 c0       	rjmp	.+6      	; 0xe20 <_Z15i2cReadRegisterhhPb+0x1c>
     e1a:	81 e0       	ldi	r24, 0x01	; 1
     e1c:	f8 01       	movw	r30, r16
     e1e:	80 83       	st	Z, r24
	if(!i2cWrite(reg)) { *error = true; }
     e20:	8d 2f       	mov	r24, r29
     e22:	0e 94 db 06 	call	0xdb6	; 0xdb6 <_Z8i2cWriteh>
     e26:	81 11       	cpse	r24, r1
     e28:	03 c0       	rjmp	.+6      	; 0xe30 <_Z15i2cReadRegisterhhPb+0x2c>
     e2a:	81 e0       	ldi	r24, 0x01	; 1
     e2c:	f8 01       	movw	r30, r16
     e2e:	80 83       	st	Z, r24
	if(!i2cStartRead(address)) { *error = true; }
     e30:	8c 2f       	mov	r24, r28
     e32:	0e 94 98 06 	call	0xd30	; 0xd30 <_Z12i2cStartReadh>
     e36:	81 11       	cpse	r24, r1
     e38:	03 c0       	rjmp	.+6      	; 0xe40 <_Z15i2cReadRegisterhhPb+0x3c>
     e3a:	81 e0       	ldi	r24, 0x01	; 1
     e3c:	f8 01       	movw	r30, r16
     e3e:	80 83       	st	Z, r24
	returnVal = i2cRead(false); // last one: no ack
     e40:	80 e0       	ldi	r24, 0x00	; 0
     e42:	0e 94 bb 06 	call	0xd76	; 0xd76 <_Z7i2cReadb>
     e46:	c8 2f       	mov	r28, r24
	i2cStop();
     e48:	0e 94 f9 06 	call	0xdf2	; 0xdf2 <_Z7i2cStopv>
	return returnVal;
}
     e4c:	8c 2f       	mov	r24, r28
     e4e:	df 91       	pop	r29
     e50:	cf 91       	pop	r28
     e52:	1f 91       	pop	r17
     e54:	0f 91       	pop	r16
     e56:	08 95       	ret

00000e58 <_Z16i2cWriteRegisterhhh>:

bool i2cWriteRegister(uint8_t address, uint8_t reg, uint8_t val) {
     e58:	1f 93       	push	r17
     e5a:	cf 93       	push	r28
     e5c:	df 93       	push	r29
     e5e:	d6 2f       	mov	r29, r22
     e60:	14 2f       	mov	r17, r20
	if(!i2cStartWrite(address)) { return false; }
     e62:	0e 94 aa 06 	call	0xd54	; 0xd54 <_Z13i2cStartWriteh>
     e66:	c8 2f       	mov	r28, r24
     e68:	88 23       	and	r24, r24
     e6a:	69 f0       	breq	.+26     	; 0xe86 <_Z16i2cWriteRegisterhhh+0x2e>
	if(!i2cWrite(reg)) { return false; }
     e6c:	8d 2f       	mov	r24, r29
     e6e:	0e 94 db 06 	call	0xdb6	; 0xdb6 <_Z8i2cWriteh>
     e72:	c8 2f       	mov	r28, r24
     e74:	88 23       	and	r24, r24
     e76:	39 f0       	breq	.+14     	; 0xe86 <_Z16i2cWriteRegisterhhh+0x2e>
	if(!i2cWrite(val)) { return false; } // perform prescaler RESET, all interrupt functions disabled
     e78:	81 2f       	mov	r24, r17
     e7a:	0e 94 db 06 	call	0xdb6	; 0xdb6 <_Z8i2cWriteh>
     e7e:	c8 2f       	mov	r28, r24
     e80:	81 11       	cpse	r24, r1
	i2cStop();
     e82:	0e 94 f9 06 	call	0xdf2	; 0xdf2 <_Z7i2cStopv>
	return true;
}
     e86:	8c 2f       	mov	r24, r28
     e88:	df 91       	pop	r29
     e8a:	cf 91       	pop	r28
     e8c:	1f 91       	pop	r17
     e8e:	08 95       	ret

00000e90 <__vector_3>:
		print(" ");
	}
	print("\n\r");
	_delay_ms(100);
	initPrimaryUARTwith9600();
}
     e90:	1f 92       	push	r1
     e92:	0f 92       	push	r0
     e94:	0f b6       	in	r0, 0x3f	; 63
     e96:	0f 92       	push	r0
     e98:	11 24       	eor	r1, r1
     e9a:	8f 93       	push	r24
     e9c:	81 e0       	ldi	r24, 0x01	; 1
     e9e:	80 93 43 01 	sts	0x0143, r24	; 0x800143 <__RODATA_PM_OFFSET__+0x7f8143>
     ea2:	8f 91       	pop	r24
     ea4:	0f 90       	pop	r0
     ea6:	0f be       	out	0x3f, r0	; 63
     ea8:	0f 90       	pop	r0
     eaa:	1f 90       	pop	r1
     eac:	18 95       	reti

00000eae <__vector_24>:
     eae:	1f 92       	push	r1
     eb0:	0f 92       	push	r0
     eb2:	0f b6       	in	r0, 0x3f	; 63
     eb4:	0f 92       	push	r0
     eb6:	11 24       	eor	r1, r1
     eb8:	8f 93       	push	r24
     eba:	ef 93       	push	r30
     ebc:	ff 93       	push	r31
     ebe:	e0 e4       	ldi	r30, 0x40	; 64
     ec0:	f4 e0       	ldi	r31, 0x04	; 4
     ec2:	81 85       	ldd	r24, Z+9	; 0x09
     ec4:	84 60       	ori	r24, 0x04	; 4
     ec6:	81 87       	std	Z+9, r24	; 0x09
     ec8:	ff 91       	pop	r31
     eca:	ef 91       	pop	r30
     ecc:	8f 91       	pop	r24
     ece:	0f 90       	pop	r0
     ed0:	0f be       	out	0x3f, r0	; 63
     ed2:	0f 90       	pop	r0
     ed4:	1f 90       	pop	r1
     ed6:	18 95       	reti

00000ed8 <_Z4waitj>:
     ed8:	0e 94 94 05 	call	0xb28	; 0xb28 <_Z30deviceInitInternalRTCInterruptj>
     edc:	0e 94 83 05 	call	0xb06	; 0xb06 <_Z18deviceStandbySleepv>
     ee0:	10 92 40 01 	sts	0x0140, r1	; 0x800140 <__RODATA_PM_OFFSET__+0x7f8140>
     ee4:	08 95       	ret

00000ee6 <_Z6waitMsj>:
     ee6:	cf 93       	push	r28
     ee8:	df 93       	push	r29
     eea:	9c 01       	movw	r18, r24
     eec:	f8 94       	cli
     eee:	e0 e4       	ldi	r30, 0x40	; 64
     ef0:	f1 e0       	ldi	r31, 0x01	; 1
     ef2:	91 81       	ldd	r25, Z+1	; 0x01
     ef4:	91 11       	cpse	r25, r1
     ef6:	fd cf       	rjmp	.-6      	; 0xef2 <_Z6waitMsj+0xc>
     ef8:	10 92 48 01 	sts	0x0148, r1	; 0x800148 <__RODATA_PM_OFFSET__+0x7f8148>
     efc:	10 92 49 01 	sts	0x0149, r1	; 0x800149 <__RODATA_PM_OFFSET__+0x7f8149>
     f00:	e0 e4       	ldi	r30, 0x40	; 64
     f02:	f1 e0       	ldi	r31, 0x01	; 1
     f04:	91 81       	ldd	r25, Z+1	; 0x01
     f06:	91 11       	cpse	r25, r1
     f08:	fd cf       	rjmp	.-6      	; 0xf04 <_Z6waitMsj+0x1e>
     f0a:	c0 e4       	ldi	r28, 0x40	; 64
     f0c:	d1 e0       	ldi	r29, 0x01	; 1
     f0e:	2a 87       	std	Y+10, r18	; 0x0a
     f10:	3b 87       	std	Y+11, r19	; 0x0b
     f12:	81 e0       	ldi	r24, 0x01	; 1
     f14:	8f 83       	std	Y+7, r24	; 0x07
     f16:	91 e8       	ldi	r25, 0x81	; 129
     f18:	98 83       	st	Y, r25
     f1a:	8a 83       	std	Y+2, r24	; 0x02
     f1c:	78 94       	sei
     f1e:	0e 94 83 05 	call	0xb06	; 0xb06 <_Z18deviceStandbySleepv>
     f22:	18 82       	st	Y, r1
     f24:	df 91       	pop	r29
     f26:	cf 91       	pop	r28
     f28:	08 95       	ret

00000f2a <_Z23sampleVoltageDifferencev>:
     f2a:	cf 93       	push	r28
     f2c:	df 93       	push	r29
     f2e:	8e e1       	ldi	r24, 0x1E	; 30
     f30:	90 e0       	ldi	r25, 0x00	; 0
     f32:	0e 94 6c 07 	call	0xed8	; 0xed8 <_Z4waitj>
     f36:	c0 91 7b 3c 	lds	r28, 0x3C7B	; 0x803c7b <batteryVoltage>
     f3a:	d0 91 7c 3c 	lds	r29, 0x3C7C	; 0x803c7c <batteryVoltage+0x1>
     f3e:	0e 94 f4 05 	call	0xbe8	; 0xbe8 <_Z23deviceReadSupplyVoltagev>
     f42:	c2 96       	adiw	r24, 0x32	; 50
     f44:	80 93 7b 3c 	sts	0x3C7B, r24	; 0x803c7b <batteryVoltage>
     f48:	90 93 7c 3c 	sts	0x3C7C, r25	; 0x803c7c <batteryVoltage+0x1>
     f4c:	c8 17       	cp	r28, r24
     f4e:	d9 07       	cpc	r29, r25
     f50:	58 f4       	brcc	.+22     	; 0xf68 <_Z23sampleVoltageDifferencev+0x3e>
     f52:	8c 1b       	sub	r24, r28
     f54:	9d 0b       	sbc	r25, r29
     f56:	8f 3f       	cpi	r24, 0xFF	; 255
     f58:	91 05       	cpc	r25, r1
     f5a:	19 f0       	breq	.+6      	; 0xf62 <_Z23sampleVoltageDifferencev+0x38>
     f5c:	10 f0       	brcs	.+4      	; 0xf62 <_Z23sampleVoltageDifferencev+0x38>
     f5e:	8f ef       	ldi	r24, 0xFF	; 255
     f60:	90 e0       	ldi	r25, 0x00	; 0
     f62:	80 93 13 38 	sts	0x3813, r24	; 0x803813 <voltageDiff>
     f66:	02 c0       	rjmp	.+4      	; 0xf6c <_Z23sampleVoltageDifferencev+0x42>
     f68:	10 92 13 38 	sts	0x3813, r1	; 0x803813 <voltageDiff>
     f6c:	df 91       	pop	r29
     f6e:	cf 91       	pop	r28
     f70:	08 95       	ret

00000f72 <_Z14calculatePitchiii>:
     f72:	4f 92       	push	r4
     f74:	5f 92       	push	r5
     f76:	6f 92       	push	r6
     f78:	7f 92       	push	r7
     f7a:	8f 92       	push	r8
     f7c:	9f 92       	push	r9
     f7e:	af 92       	push	r10
     f80:	bf 92       	push	r11
     f82:	cf 92       	push	r12
     f84:	df 92       	push	r13
     f86:	ef 92       	push	r14
     f88:	ff 92       	push	r15
     f8a:	cf 93       	push	r28
     f8c:	df 93       	push	r29
     f8e:	ec 01       	movw	r28, r24
     f90:	7a 01       	movw	r14, r20
     f92:	07 2e       	mov	r0, r23
     f94:	00 0c       	add	r0, r0
     f96:	88 0b       	sbc	r24, r24
     f98:	99 0b       	sbc	r25, r25
     f9a:	0e 94 7b 10 	call	0x20f6	; 0x20f6 <__floatsisf>
     f9e:	24 e2       	ldi	r18, 0x24	; 36
     fa0:	37 e9       	ldi	r19, 0x97	; 151
     fa2:	4f e7       	ldi	r20, 0x7F	; 127
     fa4:	5b e3       	ldi	r21, 0x3B	; 59
     fa6:	0e 94 5f 11 	call	0x22be	; 0x22be <__mulsf3>
     faa:	4b 01       	movw	r8, r22
     fac:	5c 01       	movw	r10, r24
     fae:	b7 01       	movw	r22, r14
     fb0:	ff 0c       	add	r15, r15
     fb2:	88 0b       	sbc	r24, r24
     fb4:	99 0b       	sbc	r25, r25
     fb6:	0e 94 7b 10 	call	0x20f6	; 0x20f6 <__floatsisf>
     fba:	24 e2       	ldi	r18, 0x24	; 36
     fbc:	37 e9       	ldi	r19, 0x97	; 151
     fbe:	4f e7       	ldi	r20, 0x7F	; 127
     fc0:	5b e3       	ldi	r21, 0x3B	; 59
     fc2:	0e 94 5f 11 	call	0x22be	; 0x22be <__mulsf3>
     fc6:	6b 01       	movw	r12, r22
     fc8:	7c 01       	movw	r14, r24
     fca:	a5 01       	movw	r20, r10
     fcc:	94 01       	movw	r18, r8
     fce:	c5 01       	movw	r24, r10
     fd0:	b4 01       	movw	r22, r8
     fd2:	0e 94 5f 11 	call	0x22be	; 0x22be <__mulsf3>
     fd6:	4b 01       	movw	r8, r22
     fd8:	5c 01       	movw	r10, r24
     fda:	a7 01       	movw	r20, r14
     fdc:	96 01       	movw	r18, r12
     fde:	c7 01       	movw	r24, r14
     fe0:	b6 01       	movw	r22, r12
     fe2:	0e 94 5f 11 	call	0x22be	; 0x22be <__mulsf3>
     fe6:	9b 01       	movw	r18, r22
     fe8:	ac 01       	movw	r20, r24
     fea:	c5 01       	movw	r24, r10
     fec:	b4 01       	movw	r22, r8
     fee:	0e 94 f9 0e 	call	0x1df2	; 0x1df2 <__addsf3>
     ff2:	0e 94 d2 11 	call	0x23a4	; 0x23a4 <sqrt>
     ff6:	6b 01       	movw	r12, r22
     ff8:	7c 01       	movw	r14, r24
     ffa:	be 01       	movw	r22, r28
     ffc:	dd 0f       	add	r29, r29
     ffe:	88 0b       	sbc	r24, r24
    1000:	99 0b       	sbc	r25, r25
    1002:	0e 94 7b 10 	call	0x20f6	; 0x20f6 <__floatsisf>
    1006:	24 e2       	ldi	r18, 0x24	; 36
    1008:	37 e9       	ldi	r19, 0x97	; 151
    100a:	4f e7       	ldi	r20, 0x7F	; 127
    100c:	5b e3       	ldi	r21, 0x3B	; 59
    100e:	0e 94 5f 11 	call	0x22be	; 0x22be <__mulsf3>
    1012:	90 58       	subi	r25, 0x80	; 128
    1014:	a7 01       	movw	r20, r14
    1016:	96 01       	movw	r18, r12
    1018:	0e 94 78 0f 	call	0x1ef0	; 0x1ef0 <atan2>
    101c:	23 e3       	ldi	r18, 0x33	; 51
    101e:	33 e3       	ldi	r19, 0x33	; 51
    1020:	45 e6       	ldi	r20, 0x65	; 101
    1022:	52 e4       	ldi	r21, 0x42	; 66
    1024:	0e 94 5f 11 	call	0x22be	; 0x22be <__mulsf3>
    1028:	2a e4       	ldi	r18, 0x4A	; 74
    102a:	3f e9       	ldi	r19, 0x9F	; 159
    102c:	44 e3       	ldi	r20, 0x34	; 52
    102e:	5f e3       	ldi	r21, 0x3F	; 63
    1030:	0e 94 5f 11 	call	0x22be	; 0x22be <__mulsf3>
    1034:	20 e0       	ldi	r18, 0x00	; 0
    1036:	30 e0       	ldi	r19, 0x00	; 0
    1038:	4e ef       	ldi	r20, 0xFE	; 254
    103a:	52 e4       	ldi	r21, 0x42	; 66
    103c:	0e 94 f9 0e 	call	0x1df2	; 0x1df2 <__addsf3>
    1040:	6b 01       	movw	r12, r22
    1042:	7c 01       	movw	r14, r24
    1044:	20 e0       	ldi	r18, 0x00	; 0
    1046:	30 e0       	ldi	r19, 0x00	; 0
    1048:	a9 01       	movw	r20, r18
    104a:	0e 94 d7 0f 	call	0x1fae	; 0x1fae <__cmpsf2>
    104e:	88 23       	and	r24, r24
    1050:	9c f0       	brlt	.+38     	; 0x1078 <_Z14calculatePitchiii+0x106>
    1052:	20 e0       	ldi	r18, 0x00	; 0
    1054:	30 e0       	ldi	r19, 0x00	; 0
    1056:	4e e7       	ldi	r20, 0x7E	; 126
    1058:	53 e4       	ldi	r21, 0x43	; 67
    105a:	c7 01       	movw	r24, r14
    105c:	b6 01       	movw	r22, r12
    105e:	0e 94 52 11 	call	0x22a4	; 0x22a4 <__gesf2>
    1062:	18 16       	cp	r1, r24
    1064:	64 f4       	brge	.+24     	; 0x107e <_Z14calculatePitchiii+0x10c>
    1066:	0f 2e       	mov	r0, r31
    1068:	c1 2c       	mov	r12, r1
    106a:	d1 2c       	mov	r13, r1
    106c:	fe e7       	ldi	r31, 0x7E	; 126
    106e:	ef 2e       	mov	r14, r31
    1070:	f3 e4       	ldi	r31, 0x43	; 67
    1072:	ff 2e       	mov	r15, r31
    1074:	f0 2d       	mov	r31, r0
    1076:	03 c0       	rjmp	.+6      	; 0x107e <_Z14calculatePitchiii+0x10c>
    1078:	c1 2c       	mov	r12, r1
    107a:	d1 2c       	mov	r13, r1
    107c:	76 01       	movw	r14, r12
    107e:	c7 01       	movw	r24, r14
    1080:	b6 01       	movw	r22, r12
    1082:	0e 94 4a 10 	call	0x2094	; 0x2094 <__fixunssfsi>
    1086:	86 2f       	mov	r24, r22
    1088:	df 91       	pop	r29
    108a:	cf 91       	pop	r28
    108c:	ff 90       	pop	r15
    108e:	ef 90       	pop	r14
    1090:	df 90       	pop	r13
    1092:	cf 90       	pop	r12
    1094:	bf 90       	pop	r11
    1096:	af 90       	pop	r10
    1098:	9f 90       	pop	r9
    109a:	8f 90       	pop	r8
    109c:	7f 90       	pop	r7
    109e:	6f 90       	pop	r6
    10a0:	5f 90       	pop	r5
    10a2:	4f 90       	pop	r4
    10a4:	08 95       	ret

000010a6 <_Z13calculateRollii>:
    10a6:	8f 92       	push	r8
    10a8:	9f 92       	push	r9
    10aa:	af 92       	push	r10
    10ac:	bf 92       	push	r11
    10ae:	cf 92       	push	r12
    10b0:	df 92       	push	r13
    10b2:	ef 92       	push	r14
    10b4:	ff 92       	push	r15
    10b6:	7c 01       	movw	r14, r24
    10b8:	07 2e       	mov	r0, r23
    10ba:	00 0c       	add	r0, r0
    10bc:	88 0b       	sbc	r24, r24
    10be:	99 0b       	sbc	r25, r25
    10c0:	0e 94 7b 10 	call	0x20f6	; 0x20f6 <__floatsisf>
    10c4:	24 e2       	ldi	r18, 0x24	; 36
    10c6:	37 e9       	ldi	r19, 0x97	; 151
    10c8:	4f e7       	ldi	r20, 0x7F	; 127
    10ca:	5b e3       	ldi	r21, 0x3B	; 59
    10cc:	0e 94 5f 11 	call	0x22be	; 0x22be <__mulsf3>
    10d0:	4b 01       	movw	r8, r22
    10d2:	5c 01       	movw	r10, r24
    10d4:	b7 01       	movw	r22, r14
    10d6:	ff 0c       	add	r15, r15
    10d8:	88 0b       	sbc	r24, r24
    10da:	99 0b       	sbc	r25, r25
    10dc:	0e 94 7b 10 	call	0x20f6	; 0x20f6 <__floatsisf>
    10e0:	24 e2       	ldi	r18, 0x24	; 36
    10e2:	37 e9       	ldi	r19, 0x97	; 151
    10e4:	4f e7       	ldi	r20, 0x7F	; 127
    10e6:	5b e3       	ldi	r21, 0x3B	; 59
    10e8:	0e 94 5f 11 	call	0x22be	; 0x22be <__mulsf3>
    10ec:	a5 01       	movw	r20, r10
    10ee:	94 01       	movw	r18, r8
    10f0:	0e 94 78 0f 	call	0x1ef0	; 0x1ef0 <atan2>
    10f4:	23 e3       	ldi	r18, 0x33	; 51
    10f6:	33 e3       	ldi	r19, 0x33	; 51
    10f8:	45 e6       	ldi	r20, 0x65	; 101
    10fa:	52 e4       	ldi	r21, 0x42	; 66
    10fc:	0e 94 5f 11 	call	0x22be	; 0x22be <__mulsf3>
    1100:	2a e4       	ldi	r18, 0x4A	; 74
    1102:	3f e9       	ldi	r19, 0x9F	; 159
    1104:	44 e3       	ldi	r20, 0x34	; 52
    1106:	5f e3       	ldi	r21, 0x3F	; 63
    1108:	0e 94 5f 11 	call	0x22be	; 0x22be <__mulsf3>
    110c:	20 e0       	ldi	r18, 0x00	; 0
    110e:	30 e0       	ldi	r19, 0x00	; 0
    1110:	4e ef       	ldi	r20, 0xFE	; 254
    1112:	52 e4       	ldi	r21, 0x42	; 66
    1114:	0e 94 f9 0e 	call	0x1df2	; 0x1df2 <__addsf3>
    1118:	6b 01       	movw	r12, r22
    111a:	7c 01       	movw	r14, r24
    111c:	20 e0       	ldi	r18, 0x00	; 0
    111e:	30 e0       	ldi	r19, 0x00	; 0
    1120:	a9 01       	movw	r20, r18
    1122:	0e 94 d7 0f 	call	0x1fae	; 0x1fae <__cmpsf2>
    1126:	88 23       	and	r24, r24
    1128:	9c f0       	brlt	.+38     	; 0x1150 <_Z13calculateRollii+0xaa>
    112a:	20 e0       	ldi	r18, 0x00	; 0
    112c:	30 e0       	ldi	r19, 0x00	; 0
    112e:	4e e7       	ldi	r20, 0x7E	; 126
    1130:	53 e4       	ldi	r21, 0x43	; 67
    1132:	c7 01       	movw	r24, r14
    1134:	b6 01       	movw	r22, r12
    1136:	0e 94 52 11 	call	0x22a4	; 0x22a4 <__gesf2>
    113a:	18 16       	cp	r1, r24
    113c:	64 f4       	brge	.+24     	; 0x1156 <_Z13calculateRollii+0xb0>
    113e:	0f 2e       	mov	r0, r31
    1140:	c1 2c       	mov	r12, r1
    1142:	d1 2c       	mov	r13, r1
    1144:	fe e7       	ldi	r31, 0x7E	; 126
    1146:	ef 2e       	mov	r14, r31
    1148:	f3 e4       	ldi	r31, 0x43	; 67
    114a:	ff 2e       	mov	r15, r31
    114c:	f0 2d       	mov	r31, r0
    114e:	03 c0       	rjmp	.+6      	; 0x1156 <_Z13calculateRollii+0xb0>
    1150:	c1 2c       	mov	r12, r1
    1152:	d1 2c       	mov	r13, r1
    1154:	76 01       	movw	r14, r12
    1156:	c7 01       	movw	r24, r14
    1158:	b6 01       	movw	r22, r12
    115a:	0e 94 4a 10 	call	0x2094	; 0x2094 <__fixunssfsi>
    115e:	86 2f       	mov	r24, r22
    1160:	ff 90       	pop	r15
    1162:	ef 90       	pop	r14
    1164:	df 90       	pop	r13
    1166:	cf 90       	pop	r12
    1168:	bf 90       	pop	r11
    116a:	af 90       	pop	r10
    116c:	9f 90       	pop	r9
    116e:	8f 90       	pop	r8
    1170:	08 95       	ret

00001172 <_Z23recordAccelerationBurstv>:
    1172:	2f 92       	push	r2
    1174:	3f 92       	push	r3
    1176:	4f 92       	push	r4
    1178:	5f 92       	push	r5
    117a:	6f 92       	push	r6
    117c:	7f 92       	push	r7
    117e:	8f 92       	push	r8
    1180:	9f 92       	push	r9
    1182:	af 92       	push	r10
    1184:	bf 92       	push	r11
    1186:	cf 92       	push	r12
    1188:	df 92       	push	r13
    118a:	ef 92       	push	r14
    118c:	ff 92       	push	r15
    118e:	0f 93       	push	r16
    1190:	1f 93       	push	r17
    1192:	cf 93       	push	r28
    1194:	df 93       	push	r29
    1196:	cd b7       	in	r28, 0x3d	; 61
    1198:	de b7       	in	r29, 0x3e	; 62
    119a:	a0 97       	sbiw	r28, 0x20	; 32
    119c:	cd bf       	out	0x3d, r28	; 61
    119e:	de bf       	out	0x3e, r29	; 62
    11a0:	0e 94 ea 00 	call	0x1d4	; 0x1d4 <_Z14accMC3635Alivev>
    11a4:	9f ef       	ldi	r25, 0xFF	; 255
    11a6:	90 93 01 38 	sts	0x3801, r25	; 0x803801 <pitch>
    11aa:	90 93 00 38 	sts	0x3800, r25	; 0x803800 <__DATA_REGION_ORIGIN__>
    11ae:	10 92 02 38 	sts	0x3802, r1	; 0x803802 <__data_end>
    11b2:	81 11       	cpse	r24, r1
    11b4:	04 c0       	rjmp	.+8      	; 0x11be <_Z23recordAccelerationBurstv+0x4c>
    11b6:	86 e0       	ldi	r24, 0x06	; 6
    11b8:	80 93 14 38 	sts	0x3814, r24	; 0x803814 <lastError>
    11bc:	2c c2       	rjmp	.+1112   	; 0x1616 <_Z23recordAccelerationBurstv+0x4a4>
    11be:	e0 e4       	ldi	r30, 0x40	; 64
    11c0:	f4 e0       	ldi	r31, 0x04	; 4
    11c2:	80 81       	ld	r24, Z
    11c4:	8b 7f       	andi	r24, 0xFB	; 251
    11c6:	80 83       	st	Z, r24
    11c8:	89 e0       	ldi	r24, 0x09	; 9
    11ca:	82 8b       	std	Z+18, r24	; 0x12
    11cc:	0e 94 f9 00 	call	0x1f2	; 0x1f2 <_Z26accMC3635Start54HzWithFIFOv>
    11d0:	82 e0       	ldi	r24, 0x02	; 2
    11d2:	0e 94 21 06 	call	0xc42	; 0xc42 <_Z17deviceSetCPUSpeedh>
    11d6:	c1 2c       	mov	r12, r1
    11d8:	d1 2c       	mov	r13, r1
    11da:	76 01       	movw	r14, r12
    11dc:	41 2c       	mov	r4, r1
    11de:	51 2c       	mov	r5, r1
    11e0:	32 01       	movw	r6, r4
    11e2:	81 2c       	mov	r8, r1
    11e4:	91 2c       	mov	r9, r1
    11e6:	54 01       	movw	r10, r8
    11e8:	19 82       	std	Y+1, r1	; 0x01
    11ea:	80 e9       	ldi	r24, 0x90	; 144
    11ec:	91 e0       	ldi	r25, 0x01	; 1
    11ee:	0e 94 73 07 	call	0xee6	; 0xee6 <_Z6waitMsj>
    11f2:	01 c0       	rjmp	.+2      	; 0x11f6 <_Z23recordAccelerationBurstv+0x84>
    11f4:	89 83       	std	Y+1, r24	; 0x01
    11f6:	0e 94 72 00 	call	0xe4	; 0xe4 <_Z18accMC3635FifoEmptyv>
    11fa:	81 11       	cpse	r24, r1
    11fc:	f6 cf       	rjmp	.-20     	; 0x11ea <_Z23recordAccelerationBurstv+0x78>
    11fe:	19 81       	ldd	r17, Y+1	; 0x01
    1200:	01 2f       	mov	r16, r17
    1202:	10 e0       	ldi	r17, 0x00	; 0
    1204:	00 0f       	add	r16, r16
    1206:	11 1f       	adc	r17, r17
    1208:	0a 83       	std	Y+2, r16	; 0x02
    120a:	1b 83       	std	Y+3, r17	; 0x03
    120c:	01 5e       	subi	r16, 0xE1	; 225
    120e:	17 4c       	sbci	r17, 0xC7	; 199
    1210:	18 01       	movw	r2, r16
    1212:	0a 81       	ldd	r16, Y+2	; 0x02
    1214:	1b 81       	ldd	r17, Y+3	; 0x03
    1216:	0d 56       	subi	r16, 0x6D	; 109
    1218:	16 4c       	sbci	r17, 0xC6	; 198
    121a:	2a 81       	ldd	r18, Y+2	; 0x02
    121c:	3b 81       	ldd	r19, Y+3	; 0x03
    121e:	29 5f       	subi	r18, 0xF9	; 249
    1220:	34 4c       	sbci	r19, 0xC4	; 196
    1222:	2a 83       	std	Y+2, r18	; 0x02
    1224:	3b 83       	std	Y+3, r19	; 0x03
    1226:	a1 01       	movw	r20, r2
    1228:	b8 01       	movw	r22, r16
    122a:	c9 01       	movw	r24, r18
    122c:	0e 94 87 00 	call	0x10e	; 0x10e <_Z13accMC3635ReadPiS_S_>
    1230:	ea 81       	ldd	r30, Y+2	; 0x02
    1232:	fb 81       	ldd	r31, Y+3	; 0x03
    1234:	80 81       	ld	r24, Z
    1236:	91 81       	ldd	r25, Z+1	; 0x01
    1238:	09 2e       	mov	r0, r25
    123a:	00 0c       	add	r0, r0
    123c:	aa 0b       	sbc	r26, r26
    123e:	bb 0b       	sbc	r27, r27
    1240:	88 0e       	add	r8, r24
    1242:	99 1e       	adc	r9, r25
    1244:	aa 1e       	adc	r10, r26
    1246:	bb 1e       	adc	r11, r27
    1248:	f8 01       	movw	r30, r16
    124a:	80 81       	ld	r24, Z
    124c:	91 81       	ldd	r25, Z+1	; 0x01
    124e:	09 2e       	mov	r0, r25
    1250:	00 0c       	add	r0, r0
    1252:	aa 0b       	sbc	r26, r26
    1254:	bb 0b       	sbc	r27, r27
    1256:	48 0e       	add	r4, r24
    1258:	59 1e       	adc	r5, r25
    125a:	6a 1e       	adc	r6, r26
    125c:	7b 1e       	adc	r7, r27
    125e:	f1 01       	movw	r30, r2
    1260:	80 81       	ld	r24, Z
    1262:	91 81       	ldd	r25, Z+1	; 0x01
    1264:	09 2e       	mov	r0, r25
    1266:	00 0c       	add	r0, r0
    1268:	aa 0b       	sbc	r26, r26
    126a:	bb 0b       	sbc	r27, r27
    126c:	c8 0e       	add	r12, r24
    126e:	d9 1e       	adc	r13, r25
    1270:	ea 1e       	adc	r14, r26
    1272:	fb 1e       	adc	r15, r27
    1274:	89 81       	ldd	r24, Y+1	; 0x01
    1276:	8f 5f       	subi	r24, 0xFF	; 255
    1278:	8a 3b       	cpi	r24, 0xBA	; 186
    127a:	08 f4       	brcc	.+2      	; 0x127e <_Z23recordAccelerationBurstv+0x10c>
    127c:	bb cf       	rjmp	.-138    	; 0x11f4 <_Z23recordAccelerationBurstv+0x82>
    127e:	88 23       	and	r24, r24
    1280:	09 f4       	brne	.+2      	; 0x1284 <_Z23recordAccelerationBurstv+0x112>
    1282:	ad c1       	rjmp	.+858    	; 0x15de <_Z23recordAccelerationBurstv+0x46c>
    1284:	08 2f       	mov	r16, r24
    1286:	10 e0       	ldi	r17, 0x00	; 0
    1288:	20 e0       	ldi	r18, 0x00	; 0
    128a:	30 e0       	ldi	r19, 0x00	; 0
    128c:	0a 83       	std	Y+2, r16	; 0x02
    128e:	1b 83       	std	Y+3, r17	; 0x03
    1290:	2c 83       	std	Y+4, r18	; 0x04
    1292:	3d 83       	std	Y+5, r19	; 0x05
    1294:	c5 01       	movw	r24, r10
    1296:	b4 01       	movw	r22, r8
    1298:	a9 01       	movw	r20, r18
    129a:	98 01       	movw	r18, r16
    129c:	0e 94 51 12 	call	0x24a2	; 0x24a2 <__divmodsi4>
    12a0:	28 87       	std	Y+8, r18	; 0x08
    12a2:	39 87       	std	Y+9, r19	; 0x09
    12a4:	c3 01       	movw	r24, r6
    12a6:	b2 01       	movw	r22, r4
    12a8:	2a 81       	ldd	r18, Y+2	; 0x02
    12aa:	3b 81       	ldd	r19, Y+3	; 0x03
    12ac:	4c 81       	ldd	r20, Y+4	; 0x04
    12ae:	5d 81       	ldd	r21, Y+5	; 0x05
    12b0:	0e 94 51 12 	call	0x24a2	; 0x24a2 <__divmodsi4>
    12b4:	2a 87       	std	Y+10, r18	; 0x0a
    12b6:	3b 87       	std	Y+11, r19	; 0x0b
    12b8:	c7 01       	movw	r24, r14
    12ba:	b6 01       	movw	r22, r12
    12bc:	2a 81       	ldd	r18, Y+2	; 0x02
    12be:	3b 81       	ldd	r19, Y+3	; 0x03
    12c0:	4c 81       	ldd	r20, Y+4	; 0x04
    12c2:	5d 81       	ldd	r21, Y+5	; 0x05
    12c4:	0e 94 51 12 	call	0x24a2	; 0x24a2 <__divmodsi4>
    12c8:	2c 87       	std	Y+12, r18	; 0x0c
    12ca:	3d 87       	std	Y+13, r19	; 0x0d
    12cc:	10 91 02 38 	lds	r17, 0x3802	; 0x803802 <__data_end>
    12d0:	1a 83       	std	Y+2, r17	; 0x02
    12d2:	00 91 00 38 	lds	r16, 0x3800	; 0x803800 <__DATA_REGION_ORIGIN__>
    12d6:	09 8b       	std	Y+17, r16	; 0x11
    12d8:	10 91 01 38 	lds	r17, 0x3801	; 0x803801 <pitch>
    12dc:	18 8b       	std	Y+16, r17	; 0x10
    12de:	09 81       	ldd	r16, Y+1	; 0x01
    12e0:	20 2e       	mov	r2, r16
    12e2:	31 2c       	mov	r3, r1
    12e4:	1f ef       	ldi	r17, 0xFF	; 255
    12e6:	21 1a       	sub	r2, r17
    12e8:	31 0a       	sbc	r3, r17
    12ea:	81 01       	movw	r16, r2
    12ec:	00 0f       	add	r16, r16
    12ee:	11 1f       	adc	r17, r17
    12f0:	0e 83       	std	Y+6, r16	; 0x06
    12f2:	1f 83       	std	Y+7, r17	; 0x07
    12f4:	61 2c       	mov	r6, r1
    12f6:	71 2c       	mov	r7, r1
    12f8:	1a 8a       	std	Y+18, r1	; 0x12
    12fa:	21 2c       	mov	r2, r1
    12fc:	31 2c       	mov	r3, r1
    12fe:	21 01       	movw	r4, r2
    1300:	1b 8a       	std	Y+19, r1	; 0x13
    1302:	1c 8a       	std	Y+20, r1	; 0x14
    1304:	1d 8a       	std	Y+21, r1	; 0x15
    1306:	1e 8a       	std	Y+22, r1	; 0x16
    1308:	1e 86       	std	Y+14, r1	; 0x0e
    130a:	1f 86       	std	Y+15, r1	; 0x0f
    130c:	19 82       	std	Y+1, r1	; 0x01
    130e:	f3 01       	movw	r30, r6
    1310:	e9 5f       	subi	r30, 0xF9	; 249
    1312:	f4 4c       	sbci	r31, 0xC4	; 196
    1314:	c0 80       	ld	r12, Z
    1316:	d1 80       	ldd	r13, Z+1	; 0x01
    1318:	d6 01       	movw	r26, r12
    131a:	08 85       	ldd	r16, Y+8	; 0x08
    131c:	19 85       	ldd	r17, Y+9	; 0x09
    131e:	a0 1b       	sub	r26, r16
    1320:	b1 0b       	sbc	r27, r17
    1322:	a0 83       	st	Z, r26
    1324:	b1 83       	std	Z+1, r27	; 0x01
    1326:	f3 01       	movw	r30, r6
    1328:	ed 56       	subi	r30, 0x6D	; 109
    132a:	f6 4c       	sbci	r31, 0xC6	; 198
    132c:	e0 80       	ld	r14, Z
    132e:	f1 80       	ldd	r15, Z+1	; 0x01
    1330:	a7 01       	movw	r20, r14
    1332:	0a 85       	ldd	r16, Y+10	; 0x0a
    1334:	1b 85       	ldd	r17, Y+11	; 0x0b
    1336:	40 1b       	sub	r20, r16
    1338:	51 0b       	sbc	r21, r17
    133a:	40 83       	st	Z, r20
    133c:	51 83       	std	Z+1, r21	; 0x01
    133e:	f3 01       	movw	r30, r6
    1340:	e1 5e       	subi	r30, 0xE1	; 225
    1342:	f7 4c       	sbci	r31, 0xC7	; 199
    1344:	00 81       	ld	r16, Z
    1346:	11 81       	ldd	r17, Z+1	; 0x01
    1348:	98 01       	movw	r18, r16
    134a:	6c 85       	ldd	r22, Y+12	; 0x0c
    134c:	7d 85       	ldd	r23, Y+13	; 0x0d
    134e:	26 1b       	sub	r18, r22
    1350:	37 0b       	sbc	r19, r23
    1352:	2f 8b       	std	Y+23, r18	; 0x17
    1354:	38 8f       	std	Y+24, r19	; 0x18
    1356:	20 83       	st	Z, r18
    1358:	31 83       	std	Z+1, r19	; 0x01
    135a:	9d 01       	movw	r18, r26
    135c:	0e 94 70 12 	call	0x24e0	; 0x24e0 <__mulhisi3>
    1360:	4b 01       	movw	r8, r22
    1362:	5c 01       	movw	r10, r24
    1364:	9a 01       	movw	r18, r20
    1366:	da 01       	movw	r26, r20
    1368:	0e 94 70 12 	call	0x24e0	; 0x24e0 <__mulhisi3>
    136c:	86 0e       	add	r8, r22
    136e:	97 1e       	adc	r9, r23
    1370:	a8 1e       	adc	r10, r24
    1372:	b9 1e       	adc	r11, r25
    1374:	2f 89       	ldd	r18, Y+23	; 0x17
    1376:	38 8d       	ldd	r19, Y+24	; 0x18
    1378:	d9 01       	movw	r26, r18
    137a:	0e 94 70 12 	call	0x24e0	; 0x24e0 <__mulhisi3>
    137e:	86 0e       	add	r8, r22
    1380:	97 1e       	adc	r9, r23
    1382:	a8 1e       	adc	r10, r24
    1384:	b9 1e       	adc	r11, r25
    1386:	c5 01       	movw	r24, r10
    1388:	b4 01       	movw	r22, r8
    138a:	0e 94 7b 10 	call	0x20f6	; 0x20f6 <__floatsisf>
    138e:	0e 94 d2 11 	call	0x23a4	; 0x23a4 <sqrt>
    1392:	0e 94 4a 10 	call	0x2094	; 0x2094 <__fixunssfsi>
    1396:	26 0e       	add	r2, r22
    1398:	37 1e       	adc	r3, r23
    139a:	48 1e       	adc	r4, r24
    139c:	59 1e       	adc	r5, r25
    139e:	64 31       	cpi	r22, 0x14	; 20
    13a0:	71 05       	cpc	r23, r1
    13a2:	81 05       	cpc	r24, r1
    13a4:	91 05       	cpc	r25, r1
    13a6:	10 f0       	brcs	.+4      	; 0x13ac <_Z23recordAccelerationBurstv+0x23a>
    13a8:	e1 e0       	ldi	r30, 0x01	; 1
    13aa:	ea 83       	std	Y+2, r30	; 0x02
    13ac:	61 15       	cp	r22, r1
    13ae:	f2 e0       	ldi	r31, 0x02	; 2
    13b0:	7f 07       	cpc	r23, r31
    13b2:	81 05       	cpc	r24, r1
    13b4:	91 05       	cpc	r25, r1
    13b6:	10 f0       	brcs	.+4      	; 0x13bc <_Z23recordAccelerationBurstv+0x24a>
    13b8:	22 e0       	ldi	r18, 0x02	; 2
    13ba:	2a 83       	std	Y+2, r18	; 0x02
    13bc:	61 15       	cp	r22, r1
    13be:	34 e0       	ldi	r19, 0x04	; 4
    13c0:	73 07       	cpc	r23, r19
    13c2:	81 05       	cpc	r24, r1
    13c4:	91 05       	cpc	r25, r1
    13c6:	10 f0       	brcs	.+4      	; 0x13cc <_Z23recordAccelerationBurstv+0x25a>
    13c8:	43 e0       	ldi	r20, 0x03	; 3
    13ca:	4a 83       	std	Y+2, r20	; 0x02
    13cc:	6d 30       	cpi	r22, 0x0D	; 13
    13ce:	71 05       	cpc	r23, r1
    13d0:	81 05       	cpc	r24, r1
    13d2:	91 05       	cpc	r25, r1
    13d4:	58 f4       	brcc	.+22     	; 0x13ec <_Z23recordAccelerationBurstv+0x27a>
    13d6:	b8 01       	movw	r22, r16
    13d8:	c7 01       	movw	r24, r14
    13da:	0e 94 53 08 	call	0x10a6	; 0x10a6 <_Z13calculateRollii>
    13de:	89 8b       	std	Y+17, r24	; 0x11
    13e0:	a8 01       	movw	r20, r16
    13e2:	b7 01       	movw	r22, r14
    13e4:	c6 01       	movw	r24, r12
    13e6:	0e 94 b9 07 	call	0xf72	; 0xf72 <_Z14calculatePitchiii>
    13ea:	88 8b       	std	Y+16, r24	; 0x10
    13ec:	0f 89       	ldd	r16, Y+23	; 0x17
    13ee:	18 8d       	ldd	r17, Y+24	; 0x18
    13f0:	0e 30       	cpi	r16, 0x0E	; 14
    13f2:	11 05       	cpc	r17, r1
    13f4:	b4 f1       	brlt	.+108    	; 0x1462 <_Z23recordAccelerationBurstv+0x2f0>
    13f6:	19 81       	ldd	r17, Y+1	; 0x01
    13f8:	11 23       	and	r17, r17
    13fa:	09 f4       	brne	.+2      	; 0x13fe <_Z23recordAccelerationBurstv+0x28c>
    13fc:	ff c0       	rjmp	.+510    	; 0x15fc <_Z23recordAccelerationBurstv+0x48a>
    13fe:	1f 3f       	cpi	r17, 0xFF	; 255
    1400:	09 f5       	brne	.+66     	; 0x1444 <_Z23recordAccelerationBurstv+0x2d2>
    1402:	0a 89       	ldd	r16, Y+18	; 0x12
    1404:	0f 3f       	cpi	r16, 0xFF	; 255
    1406:	11 f0       	breq	.+4      	; 0x140c <_Z23recordAccelerationBurstv+0x29a>
    1408:	0f 5f       	subi	r16, 0xFF	; 255
    140a:	0a 8b       	std	Y+18, r16	; 0x12
    140c:	8e 85       	ldd	r24, Y+14	; 0x0e
    140e:	9f 85       	ldd	r25, Y+15	; 0x0f
    1410:	99 23       	and	r25, r25
    1412:	1c f4       	brge	.+6      	; 0x141a <_Z23recordAccelerationBurstv+0x2a8>
    1414:	91 95       	neg	r25
    1416:	81 95       	neg	r24
    1418:	91 09       	sbc	r25, r1
    141a:	09 2e       	mov	r0, r25
    141c:	00 0c       	add	r0, r0
    141e:	aa 0b       	sbc	r26, r26
    1420:	bb 0b       	sbc	r27, r27
    1422:	2b 89       	ldd	r18, Y+19	; 0x13
    1424:	3c 89       	ldd	r19, Y+20	; 0x14
    1426:	4d 89       	ldd	r20, Y+21	; 0x15
    1428:	5e 89       	ldd	r21, Y+22	; 0x16
    142a:	28 0f       	add	r18, r24
    142c:	39 1f       	adc	r19, r25
    142e:	4a 1f       	adc	r20, r26
    1430:	5b 1f       	adc	r21, r27
    1432:	2b 8b       	std	Y+19, r18	; 0x13
    1434:	3c 8b       	std	Y+20, r19	; 0x14
    1436:	4d 8b       	std	Y+21, r20	; 0x15
    1438:	5e 8b       	std	Y+22, r21	; 0x16
    143a:	0f 89       	ldd	r16, Y+23	; 0x17
    143c:	18 8d       	ldd	r17, Y+24	; 0x18
    143e:	0e 87       	std	Y+14, r16	; 0x0e
    1440:	1f 87       	std	Y+15, r17	; 0x0f
    1442:	e0 c0       	rjmp	.+448    	; 0x1604 <_Z23recordAccelerationBurstv+0x492>
    1444:	19 81       	ldd	r17, Y+1	; 0x01
    1446:	11 30       	cpi	r17, 0x01	; 1
    1448:	09 f0       	breq	.+2      	; 0x144c <_Z23recordAccelerationBurstv+0x2da>
    144a:	4b c0       	rjmp	.+150    	; 0x14e2 <_Z23recordAccelerationBurstv+0x370>
    144c:	0e 85       	ldd	r16, Y+14	; 0x0e
    144e:	1f 85       	ldd	r17, Y+15	; 0x0f
    1450:	2f 89       	ldd	r18, Y+23	; 0x17
    1452:	38 8d       	ldd	r19, Y+24	; 0x18
    1454:	02 17       	cp	r16, r18
    1456:	13 07       	cpc	r17, r19
    1458:	0c f0       	brlt	.+2      	; 0x145c <_Z23recordAccelerationBurstv+0x2ea>
    145a:	d4 c0       	rjmp	.+424    	; 0x1604 <_Z23recordAccelerationBurstv+0x492>
    145c:	2e 87       	std	Y+14, r18	; 0x0e
    145e:	3f 87       	std	Y+15, r19	; 0x0f
    1460:	d1 c0       	rjmp	.+418    	; 0x1604 <_Z23recordAccelerationBurstv+0x492>
    1462:	0f 89       	ldd	r16, Y+23	; 0x17
    1464:	18 8d       	ldd	r17, Y+24	; 0x18
    1466:	03 3f       	cpi	r16, 0xF3	; 243
    1468:	1f 4f       	sbci	r17, 0xFF	; 255
    146a:	dc f5       	brge	.+118    	; 0x14e2 <_Z23recordAccelerationBurstv+0x370>
    146c:	09 81       	ldd	r16, Y+1	; 0x01
    146e:	00 23       	and	r16, r16
    1470:	91 f1       	breq	.+100    	; 0x14d6 <_Z23recordAccelerationBurstv+0x364>
    1472:	0f 3f       	cpi	r16, 0xFF	; 255
    1474:	51 f4       	brne	.+20     	; 0x148a <_Z23recordAccelerationBurstv+0x318>
    1476:	0e 85       	ldd	r16, Y+14	; 0x0e
    1478:	1f 85       	ldd	r17, Y+15	; 0x0f
    147a:	2f 89       	ldd	r18, Y+23	; 0x17
    147c:	38 8d       	ldd	r19, Y+24	; 0x18
    147e:	20 17       	cp	r18, r16
    1480:	31 07       	cpc	r19, r17
    1482:	7c f5       	brge	.+94     	; 0x14e2 <_Z23recordAccelerationBurstv+0x370>
    1484:	2e 87       	std	Y+14, r18	; 0x0e
    1486:	3f 87       	std	Y+15, r19	; 0x0f
    1488:	2c c0       	rjmp	.+88     	; 0x14e2 <_Z23recordAccelerationBurstv+0x370>
    148a:	09 81       	ldd	r16, Y+1	; 0x01
    148c:	01 30       	cpi	r16, 0x01	; 1
    148e:	49 f5       	brne	.+82     	; 0x14e2 <_Z23recordAccelerationBurstv+0x370>
    1490:	1a 89       	ldd	r17, Y+18	; 0x12
    1492:	1f 3f       	cpi	r17, 0xFF	; 255
    1494:	11 f0       	breq	.+4      	; 0x149a <_Z23recordAccelerationBurstv+0x328>
    1496:	1f 5f       	subi	r17, 0xFF	; 255
    1498:	1a 8b       	std	Y+18, r17	; 0x12
    149a:	8e 85       	ldd	r24, Y+14	; 0x0e
    149c:	9f 85       	ldd	r25, Y+15	; 0x0f
    149e:	99 23       	and	r25, r25
    14a0:	1c f4       	brge	.+6      	; 0x14a8 <_Z23recordAccelerationBurstv+0x336>
    14a2:	91 95       	neg	r25
    14a4:	81 95       	neg	r24
    14a6:	91 09       	sbc	r25, r1
    14a8:	09 2e       	mov	r0, r25
    14aa:	00 0c       	add	r0, r0
    14ac:	aa 0b       	sbc	r26, r26
    14ae:	bb 0b       	sbc	r27, r27
    14b0:	2b 89       	ldd	r18, Y+19	; 0x13
    14b2:	3c 89       	ldd	r19, Y+20	; 0x14
    14b4:	4d 89       	ldd	r20, Y+21	; 0x15
    14b6:	5e 89       	ldd	r21, Y+22	; 0x16
    14b8:	28 0f       	add	r18, r24
    14ba:	39 1f       	adc	r19, r25
    14bc:	4a 1f       	adc	r20, r26
    14be:	5b 1f       	adc	r21, r27
    14c0:	2b 8b       	std	Y+19, r18	; 0x13
    14c2:	3c 8b       	std	Y+20, r19	; 0x14
    14c4:	4d 8b       	std	Y+21, r20	; 0x15
    14c6:	5e 8b       	std	Y+22, r21	; 0x16
    14c8:	0f 89       	ldd	r16, Y+23	; 0x17
    14ca:	18 8d       	ldd	r17, Y+24	; 0x18
    14cc:	0e 87       	std	Y+14, r16	; 0x0e
    14ce:	1f 87       	std	Y+15, r17	; 0x0f
    14d0:	1f ef       	ldi	r17, 0xFF	; 255
    14d2:	19 83       	std	Y+1, r17	; 0x01
    14d4:	06 c0       	rjmp	.+12     	; 0x14e2 <_Z23recordAccelerationBurstv+0x370>
    14d6:	0f 89       	ldd	r16, Y+23	; 0x17
    14d8:	18 8d       	ldd	r17, Y+24	; 0x18
    14da:	0e 87       	std	Y+14, r16	; 0x0e
    14dc:	1f 87       	std	Y+15, r17	; 0x0f
    14de:	1f ef       	ldi	r17, 0xFF	; 255
    14e0:	19 83       	std	Y+1, r17	; 0x01
    14e2:	22 e0       	ldi	r18, 0x02	; 2
    14e4:	62 0e       	add	r6, r18
    14e6:	71 1c       	adc	r7, r1
    14e8:	0e 81       	ldd	r16, Y+6	; 0x06
    14ea:	1f 81       	ldd	r17, Y+7	; 0x07
    14ec:	06 15       	cp	r16, r6
    14ee:	17 05       	cpc	r17, r7
    14f0:	09 f0       	breq	.+2      	; 0x14f4 <_Z23recordAccelerationBurstv+0x382>
    14f2:	0d cf       	rjmp	.-486    	; 0x130e <_Z23recordAccelerationBurstv+0x19c>
    14f4:	20 92 0f 38 	sts	0x380F, r2	; 0x80380f <vedbaBurstSum>
    14f8:	30 92 10 38 	sts	0x3810, r3	; 0x803810 <vedbaBurstSum+0x1>
    14fc:	40 92 11 38 	sts	0x3811, r4	; 0x803811 <vedbaBurstSum+0x2>
    1500:	50 92 12 38 	sts	0x3812, r5	; 0x803812 <vedbaBurstSum+0x3>
    1504:	1a 81       	ldd	r17, Y+2	; 0x02
    1506:	10 93 02 38 	sts	0x3802, r17	; 0x803802 <__data_end>
    150a:	09 89       	ldd	r16, Y+17	; 0x11
    150c:	00 93 00 38 	sts	0x3800, r16	; 0x803800 <__DATA_REGION_ORIGIN__>
    1510:	18 89       	ldd	r17, Y+16	; 0x10
    1512:	10 93 01 38 	sts	0x3801, r17	; 0x803801 <pitch>
    1516:	0a 89       	ldd	r16, Y+18	; 0x12
    1518:	00 93 04 38 	sts	0x3804, r16	; 0x803804 <zeroCrossings>
    151c:	10 92 03 38 	sts	0x3803, r1	; 0x803803 <zeroCrossingsAvgAmplitude>
    1520:	20 91 04 38 	lds	r18, 0x3804	; 0x803804 <zeroCrossings>
    1524:	22 23       	and	r18, r18
    1526:	f9 f0       	breq	.+62     	; 0x1566 <_Z23recordAccelerationBurstv+0x3f4>
    1528:	30 e0       	ldi	r19, 0x00	; 0
    152a:	40 e0       	ldi	r20, 0x00	; 0
    152c:	50 e0       	ldi	r21, 0x00	; 0
    152e:	6b 89       	ldd	r22, Y+19	; 0x13
    1530:	7c 89       	ldd	r23, Y+20	; 0x14
    1532:	8d 89       	ldd	r24, Y+21	; 0x15
    1534:	9e 89       	ldd	r25, Y+22	; 0x16
    1536:	0e 94 2f 12 	call	0x245e	; 0x245e <__udivmodsi4>
    153a:	da 01       	movw	r26, r20
    153c:	c9 01       	movw	r24, r18
    153e:	b6 95       	lsr	r27
    1540:	a7 95       	ror	r26
    1542:	97 95       	ror	r25
    1544:	87 95       	ror	r24
    1546:	b6 95       	lsr	r27
    1548:	a7 95       	ror	r26
    154a:	97 95       	ror	r25
    154c:	87 95       	ror	r24
    154e:	8f 3f       	cpi	r24, 0xFF	; 255
    1550:	91 05       	cpc	r25, r1
    1552:	a1 05       	cpc	r26, r1
    1554:	b1 05       	cpc	r27, r1
    1556:	29 f0       	breq	.+10     	; 0x1562 <_Z23recordAccelerationBurstv+0x3f0>
    1558:	20 f0       	brcs	.+8      	; 0x1562 <_Z23recordAccelerationBurstv+0x3f0>
    155a:	8f ef       	ldi	r24, 0xFF	; 255
    155c:	90 e0       	ldi	r25, 0x00	; 0
    155e:	a0 e0       	ldi	r26, 0x00	; 0
    1560:	b0 e0       	ldi	r27, 0x00	; 0
    1562:	80 93 03 38 	sts	0x3803, r24	; 0x803803 <zeroCrossingsAvgAmplitude>
    1566:	10 92 52 04 	sts	0x0452, r1	; 0x800452 <__RODATA_PM_OFFSET__+0x7f8452>
    156a:	86 e0       	ldi	r24, 0x06	; 6
    156c:	0e 94 21 06 	call	0xc42	; 0xc42 <_Z17deviceSetCPUSpeedh>
    1570:	80 91 0f 38 	lds	r24, 0x380F	; 0x80380f <vedbaBurstSum>
    1574:	90 91 10 38 	lds	r25, 0x3810	; 0x803810 <vedbaBurstSum+0x1>
    1578:	a0 91 11 38 	lds	r26, 0x3811	; 0x803811 <vedbaBurstSum+0x2>
    157c:	b0 91 12 38 	lds	r27, 0x3812	; 0x803812 <vedbaBurstSum+0x3>
    1580:	8c 01       	movw	r16, r24
    1582:	9d 01       	movw	r18, r26
    1584:	2b 8f       	std	Y+27, r18	; 0x1b
    1586:	3c 8f       	std	Y+28, r19	; 0x1c
    1588:	28 2f       	mov	r18, r24
    158a:	31 2f       	mov	r19, r17
    158c:	4b 8d       	ldd	r20, Y+27	; 0x1b
    158e:	5c 8d       	ldd	r21, Y+28	; 0x1c
    1590:	60 e0       	ldi	r22, 0x00	; 0
    1592:	70 e0       	ldi	r23, 0x00	; 0
    1594:	80 e0       	ldi	r24, 0x00	; 0
    1596:	90 e0       	ldi	r25, 0x00	; 0
    1598:	a0 90 15 38 	lds	r10, 0x3815	; 0x803815 <vedbaTotalSum>
    159c:	b0 90 16 38 	lds	r11, 0x3816	; 0x803816 <vedbaTotalSum+0x1>
    15a0:	c0 90 17 38 	lds	r12, 0x3817	; 0x803817 <vedbaTotalSum+0x2>
    15a4:	d0 90 18 38 	lds	r13, 0x3818	; 0x803818 <vedbaTotalSum+0x3>
    15a8:	e0 90 19 38 	lds	r14, 0x3819	; 0x803819 <vedbaTotalSum+0x4>
    15ac:	f0 90 1a 38 	lds	r15, 0x381A	; 0x80381a <vedbaTotalSum+0x5>
    15b0:	00 91 1b 38 	lds	r16, 0x381B	; 0x80381b <vedbaTotalSum+0x6>
    15b4:	10 91 1c 38 	lds	r17, 0x381C	; 0x80381c <vedbaTotalSum+0x7>
    15b8:	0e 94 1e 13 	call	0x263c	; 0x263c <__adddi3>
    15bc:	20 93 15 38 	sts	0x3815, r18	; 0x803815 <vedbaTotalSum>
    15c0:	30 93 16 38 	sts	0x3816, r19	; 0x803816 <vedbaTotalSum+0x1>
    15c4:	40 93 17 38 	sts	0x3817, r20	; 0x803817 <vedbaTotalSum+0x2>
    15c8:	50 93 18 38 	sts	0x3818, r21	; 0x803818 <vedbaTotalSum+0x3>
    15cc:	60 93 19 38 	sts	0x3819, r22	; 0x803819 <vedbaTotalSum+0x4>
    15d0:	70 93 1a 38 	sts	0x381A, r23	; 0x80381a <vedbaTotalSum+0x5>
    15d4:	80 93 1b 38 	sts	0x381B, r24	; 0x80381b <vedbaTotalSum+0x6>
    15d8:	90 93 1c 38 	sts	0x381C, r25	; 0x80381c <vedbaTotalSum+0x7>
    15dc:	1c c0       	rjmp	.+56     	; 0x1616 <_Z23recordAccelerationBurstv+0x4a4>
    15de:	10 92 0f 38 	sts	0x380F, r1	; 0x80380f <vedbaBurstSum>
    15e2:	10 92 10 38 	sts	0x3810, r1	; 0x803810 <vedbaBurstSum+0x1>
    15e6:	10 92 11 38 	sts	0x3811, r1	; 0x803811 <vedbaBurstSum+0x2>
    15ea:	10 92 12 38 	sts	0x3812, r1	; 0x803812 <vedbaBurstSum+0x3>
    15ee:	10 92 04 38 	sts	0x3804, r1	; 0x803804 <zeroCrossings>
    15f2:	1b 8a       	std	Y+19, r1	; 0x13
    15f4:	1c 8a       	std	Y+20, r1	; 0x14
    15f6:	1d 8a       	std	Y+21, r1	; 0x15
    15f8:	1e 8a       	std	Y+22, r1	; 0x16
    15fa:	90 cf       	rjmp	.-224    	; 0x151c <_Z23recordAccelerationBurstv+0x3aa>
    15fc:	0f 89       	ldd	r16, Y+23	; 0x17
    15fe:	18 8d       	ldd	r17, Y+24	; 0x18
    1600:	0e 87       	std	Y+14, r16	; 0x0e
    1602:	1f 87       	std	Y+15, r17	; 0x0f
    1604:	0f 89       	ldd	r16, Y+23	; 0x17
    1606:	18 8d       	ldd	r17, Y+24	; 0x18
    1608:	03 3f       	cpi	r16, 0xF3	; 243
    160a:	1f 4f       	sbci	r17, 0xFF	; 255
    160c:	0c f4       	brge	.+2      	; 0x1610 <_Z23recordAccelerationBurstv+0x49e>
    160e:	40 cf       	rjmp	.-384    	; 0x1490 <_Z23recordAccelerationBurstv+0x31e>
    1610:	01 e0       	ldi	r16, 0x01	; 1
    1612:	09 83       	std	Y+1, r16	; 0x01
    1614:	66 cf       	rjmp	.-308    	; 0x14e2 <_Z23recordAccelerationBurstv+0x370>
    1616:	a0 96       	adiw	r28, 0x20	; 32
    1618:	cd bf       	out	0x3d, r28	; 61
    161a:	de bf       	out	0x3e, r29	; 62
    161c:	df 91       	pop	r29
    161e:	cf 91       	pop	r28
    1620:	1f 91       	pop	r17
    1622:	0f 91       	pop	r16
    1624:	ff 90       	pop	r15
    1626:	ef 90       	pop	r14
    1628:	df 90       	pop	r13
    162a:	cf 90       	pop	r12
    162c:	bf 90       	pop	r11
    162e:	af 90       	pop	r10
    1630:	9f 90       	pop	r9
    1632:	8f 90       	pop	r8
    1634:	7f 90       	pop	r7
    1636:	6f 90       	pop	r6
    1638:	5f 90       	pop	r5
    163a:	4f 90       	pop	r4
    163c:	3f 90       	pop	r3
    163e:	2f 90       	pop	r2
    1640:	08 95       	ret

00001642 <_Z17tinyFoxStartPrintv>:

void tinyFoxStartPrint() {
    1642:	ef 92       	push	r14
    1644:	ff 92       	push	r15
    1646:	0f 93       	push	r16
    1648:	1f 93       	push	r17
    164a:	cf 93       	push	r28
    164c:	df 93       	push	r29
    164e:	cd b7       	in	r28, 0x3d	; 61
    1650:	de b7       	in	r29, 0x3e	; 62
    1652:	c0 54       	subi	r28, 0x40	; 64
    1654:	d1 09       	sbc	r29, r1
    1656:	cd bf       	out	0x3d, r28	; 61
    1658:	de bf       	out	0x3e, r29	; 62
	const uint8_t RESPONSE_LEN = 32;
	char pac[RESPONSE_LEN] = { 0 };
    165a:	80 e2       	ldi	r24, 0x20	; 32
    165c:	8e 01       	movw	r16, r28
    165e:	0f 5f       	subi	r16, 0xFF	; 255
    1660:	1f 4f       	sbci	r17, 0xFF	; 255
    1662:	d8 01       	movw	r26, r16
    1664:	e8 2f       	mov	r30, r24
    1666:	1d 92       	st	X+, r1
    1668:	ea 95       	dec	r30
    166a:	e9 f7       	brne	.-6      	; 0x1666 <_Z17tinyFoxStartPrintv+0x24>
	char id[RESPONSE_LEN] = { 0 };
    166c:	fe 01       	movw	r30, r28
    166e:	b1 96       	adiw	r30, 0x21	; 33
    1670:	df 01       	movw	r26, r30
    1672:	1d 92       	st	X+, r1
    1674:	8a 95       	dec	r24
    1676:	e9 f7       	brne	.-6      	; 0x1672 <_Z17tinyFoxStartPrintv+0x30>
	println("AT$I=11");
    1678:	83 e0       	ldi	r24, 0x03	; 3
    167a:	97 ea       	ldi	r25, 0xA7	; 167
    167c:	0e 94 8d 0e 	call	0x1d1a	; 0x1d1a <_Z7printlnPKc>
	if(!uartRead('\n', pac, RESPONSE_LEN, 3000)) { return; }
    1680:	28 eb       	ldi	r18, 0xB8	; 184
    1682:	3b e0       	ldi	r19, 0x0B	; 11
    1684:	40 e2       	ldi	r20, 0x20	; 32
    1686:	b8 01       	movw	r22, r16
    1688:	8a e0       	ldi	r24, 0x0A	; 10
    168a:	0e 94 36 0e 	call	0x1c6c	; 0x1c6c <_Z8uartReadcPchj>
    168e:	88 23       	and	r24, r24
    1690:	09 f4       	brne	.+2      	; 0x1694 <_Z17tinyFoxStartPrintv+0x52>
    1692:	a5 c0       	rjmp	.+330    	; 0x17de <_Z17tinyFoxStartPrintv+0x19c>
	#else
		//round up by default
		__ticks_dc = (uint32_t)(ceil(fabs(__tmp)));
	#endif

	__builtin_avr_delay_cycles(__ticks_dc);
    1694:	e7 ea       	ldi	r30, 0xA7	; 167
    1696:	f1 e6       	ldi	r31, 0x61	; 97
    1698:	31 97       	sbiw	r30, 0x01	; 1
    169a:	f1 f7       	brne	.-4      	; 0x1698 <_Z17tinyFoxStartPrintv+0x56>
    169c:	00 c0       	rjmp	.+0      	; 0x169e <_Z17tinyFoxStartPrintv+0x5c>
    169e:	00 00       	nop
	_delay_ms(100);
	println("AT$I=10");
    16a0:	8b e0       	ldi	r24, 0x0B	; 11
    16a2:	97 ea       	ldi	r25, 0xA7	; 167
    16a4:	0e 94 8d 0e 	call	0x1d1a	; 0x1d1a <_Z7printlnPKc>
	if(!uartRead('\n', id, RESPONSE_LEN, 3000)) { return; }
    16a8:	28 eb       	ldi	r18, 0xB8	; 184
    16aa:	3b e0       	ldi	r19, 0x0B	; 11
    16ac:	40 e2       	ldi	r20, 0x20	; 32
    16ae:	be 01       	movw	r22, r28
    16b0:	6f 5d       	subi	r22, 0xDF	; 223
    16b2:	7f 4f       	sbci	r23, 0xFF	; 255
    16b4:	8a e0       	ldi	r24, 0x0A	; 10
    16b6:	0e 94 36 0e 	call	0x1c6c	; 0x1c6c <_Z8uartReadcPchj>
    16ba:	88 23       	and	r24, r24
    16bc:	09 f4       	brne	.+2      	; 0x16c0 <_Z17tinyFoxStartPrintv+0x7e>
    16be:	8f c0       	rjmp	.+286    	; 0x17de <_Z17tinyFoxStartPrintv+0x19c>
	
	initSecondUARTwith9600(); // uart to communicate with external programmer
    16c0:	0e 94 09 0e 	call	0x1c12	; 0x1c12 <_Z22initSecondUARTwith9600v>
	print("\n\r");
    16c4:	83 e1       	ldi	r24, 0x13	; 19
    16c6:	97 ea       	ldi	r25, 0xA7	; 167
    16c8:	0e 94 78 0e 	call	0x1cf0	; 0x1cf0 <_Z5printPKc>
	println(SOFTWARE_VERSION);
    16cc:	81 e2       	ldi	r24, 0x21	; 33
    16ce:	97 ea       	ldi	r25, 0xA7	; 167
    16d0:	0e 94 8d 0e 	call	0x1d1a	; 0x1d1a <_Z7printlnPKc>
	print("PAC: ");
    16d4:	86 e1       	ldi	r24, 0x16	; 22
    16d6:	97 ea       	ldi	r25, 0xA7	; 167
    16d8:	0e 94 78 0e 	call	0x1cf0	; 0x1cf0 <_Z5printPKc>
	println(pac);
    16dc:	c8 01       	movw	r24, r16
    16de:	0e 94 8d 0e 	call	0x1d1a	; 0x1d1a <_Z7printlnPKc>
	print("ID: ");
    16e2:	8c e1       	ldi	r24, 0x1C	; 28
    16e4:	97 ea       	ldi	r25, 0xA7	; 167
    16e6:	0e 94 78 0e 	call	0x1cf0	; 0x1cf0 <_Z5printPKc>
	println(id);
    16ea:	ce 01       	movw	r24, r28
    16ec:	81 96       	adiw	r24, 0x21	; 33
    16ee:	0e 94 8d 0e 	call	0x1d1a	; 0x1d1a <_Z7printlnPKc>
	print("HardResets: ");
    16f2:	8d e2       	ldi	r24, 0x2D	; 45
    16f4:	97 ea       	ldi	r25, 0xA7	; 167
    16f6:	0e 94 78 0e 	call	0x1cf0	; 0x1cf0 <_Z5printPKc>
	printU32(hardResetCounter);
    16fa:	60 91 1d 38 	lds	r22, 0x381D	; 0x80381d <hardResetCounter>
    16fe:	70 91 1e 38 	lds	r23, 0x381E	; 0x80381e <hardResetCounter+0x1>
    1702:	80 e0       	ldi	r24, 0x00	; 0
    1704:	90 e0       	ldi	r25, 0x00	; 0
    1706:	0e 94 98 0e 	call	0x1d30	; 0x1d30 <_Z8printU32m>
	print("\n\r");
    170a:	83 e1       	ldi	r24, 0x13	; 19
    170c:	97 ea       	ldi	r25, 0xA7	; 167
    170e:	0e 94 78 0e 	call	0x1cf0	; 0x1cf0 <_Z5printPKc>
    1712:	0e e7       	ldi	r16, 0x7E	; 126
    1714:	1c e3       	ldi	r17, 0x3C	; 60
    1716:	0f 2e       	mov	r0, r31
    1718:	fc e8       	ldi	r31, 0x8C	; 140
    171a:	ef 2e       	mov	r14, r31
    171c:	fc e3       	ldi	r31, 0x3C	; 60
    171e:	ff 2e       	mov	r15, r31
    1720:	f0 2d       	mov	r31, r0
    1722:	09 c0       	rjmp	.+18     	; 0x1736 <_Z17tinyFoxStartPrintv+0xf4>
		printU32(baroCoefficients[i]);
		print(",");
	}
	
	// debugger connected
	while(batteryVoltage > 2900) {
    1724:	80 91 7b 3c 	lds	r24, 0x3C7B	; 0x803c7b <batteryVoltage>
    1728:	90 91 7c 3c 	lds	r25, 0x3C7C	; 0x803c7c <batteryVoltage+0x1>
    172c:	85 35       	cpi	r24, 0x55	; 85
    172e:	9b 40       	sbci	r25, 0x0B	; 11
    1730:	08 f4       	brcc	.+2      	; 0x1734 <_Z17tinyFoxStartPrintv+0xf2>
    1732:	4b c0       	rjmp	.+150    	; 0x17ca <_Z17tinyFoxStartPrintv+0x188>
    1734:	10 c0       	rjmp	.+32     	; 0x1756 <_Z17tinyFoxStartPrintv+0x114>
	print("HardResets: ");
	printU32(hardResetCounter);
	print("\n\r");
	
	for(uint8_t i=0; i<MS5637_COEFFICIENT_NUMBERS;i++) {
		printU32(baroCoefficients[i]);
    1736:	d8 01       	movw	r26, r16
    1738:	6d 91       	ld	r22, X+
    173a:	7d 91       	ld	r23, X+
    173c:	8d 01       	movw	r16, r26
    173e:	80 e0       	ldi	r24, 0x00	; 0
    1740:	90 e0       	ldi	r25, 0x00	; 0
    1742:	0e 94 98 0e 	call	0x1d30	; 0x1d30 <_Z8printU32m>
		print(",");
    1746:	8a e3       	ldi	r24, 0x3A	; 58
    1748:	97 ea       	ldi	r25, 0xA7	; 167
    174a:	0e 94 78 0e 	call	0x1cf0	; 0x1cf0 <_Z5printPKc>
	println(id);
	print("HardResets: ");
	printU32(hardResetCounter);
	print("\n\r");
	
	for(uint8_t i=0; i<MS5637_COEFFICIENT_NUMBERS;i++) {
    174e:	0e 15       	cp	r16, r14
    1750:	1f 05       	cpc	r17, r15
    1752:	89 f7       	brne	.-30     	; 0x1736 <_Z17tinyFoxStartPrintv+0xf4>
    1754:	e7 cf       	rjmp	.-50     	; 0x1724 <_Z17tinyFoxStartPrintv+0xe2>
    1756:	bf e7       	ldi	r27, 0x7F	; 127
    1758:	ea e1       	ldi	r30, 0x1A	; 26
    175a:	f6 e0       	ldi	r31, 0x06	; 6
    175c:	b1 50       	subi	r27, 0x01	; 1
    175e:	e0 40       	sbci	r30, 0x00	; 0
    1760:	f0 40       	sbci	r31, 0x00	; 0
    1762:	e1 f7       	brne	.-8      	; 0x175c <_Z17tinyFoxStartPrintv+0x11a>
    1764:	00 c0       	rjmp	.+0      	; 0x1766 <_Z17tinyFoxStartPrintv+0x124>
    1766:	00 00       	nop
	}
	
	// debugger connected
	while(batteryVoltage > 2900) {
		_delay_ms(2000);
		print("\n\r(VOLTAGE HIGH) ");
    1768:	8c e3       	ldi	r24, 0x3C	; 60
    176a:	97 ea       	ldi	r25, 0xA7	; 167
    176c:	0e 94 78 0e 	call	0x1cf0	; 0x1cf0 <_Z5printPKc>
		println(SOFTWARE_VERSION);
    1770:	81 e2       	ldi	r24, 0x21	; 33
    1772:	97 ea       	ldi	r25, 0xA7	; 167
    1774:	0e 94 8d 0e 	call	0x1d1a	; 0x1d1a <_Z7printlnPKc>
		print("PAC: ");
    1778:	86 e1       	ldi	r24, 0x16	; 22
    177a:	97 ea       	ldi	r25, 0xA7	; 167
    177c:	0e 94 78 0e 	call	0x1cf0	; 0x1cf0 <_Z5printPKc>
		println(pac);
    1780:	ce 01       	movw	r24, r28
    1782:	01 96       	adiw	r24, 0x01	; 1
    1784:	0e 94 8d 0e 	call	0x1d1a	; 0x1d1a <_Z7printlnPKc>
		print("ID: ");
    1788:	8c e1       	ldi	r24, 0x1C	; 28
    178a:	97 ea       	ldi	r25, 0xA7	; 167
    178c:	0e 94 78 0e 	call	0x1cf0	; 0x1cf0 <_Z5printPKc>
		println(id);
    1790:	ce 01       	movw	r24, r28
    1792:	81 96       	adiw	r24, 0x21	; 33
    1794:	0e 94 8d 0e 	call	0x1d1a	; 0x1d1a <_Z7printlnPKc>
		print("HardResets: ");
    1798:	8d e2       	ldi	r24, 0x2D	; 45
    179a:	97 ea       	ldi	r25, 0xA7	; 167
    179c:	0e 94 78 0e 	call	0x1cf0	; 0x1cf0 <_Z5printPKc>
		printU32(hardResetCounter);
    17a0:	60 91 1d 38 	lds	r22, 0x381D	; 0x80381d <hardResetCounter>
    17a4:	70 91 1e 38 	lds	r23, 0x381E	; 0x80381e <hardResetCounter+0x1>
    17a8:	80 e0       	ldi	r24, 0x00	; 0
    17aa:	90 e0       	ldi	r25, 0x00	; 0
    17ac:	0e 94 98 0e 	call	0x1d30	; 0x1d30 <_Z8printU32m>
		print("\n\r");
    17b0:	83 e1       	ldi	r24, 0x13	; 19
    17b2:	97 ea       	ldi	r25, 0xA7	; 167
    17b4:	0e 94 78 0e 	call	0x1cf0	; 0x1cf0 <_Z5printPKc>
		batteryVoltage = deviceReadSupplyVoltage();
    17b8:	0e 94 f4 05 	call	0xbe8	; 0xbe8 <_Z23deviceReadSupplyVoltagev>
    17bc:	80 93 7b 3c 	sts	0x3C7B, r24	; 0x803c7b <batteryVoltage>
    17c0:	90 93 7c 3c 	sts	0x3C7C, r25	; 0x803c7c <batteryVoltage+0x1>
		printU32(baroCoefficients[i]);
		print(",");
	}
	
	// debugger connected
	while(batteryVoltage > 2900) {
    17c4:	85 35       	cpi	r24, 0x55	; 85
    17c6:	9b 40       	sbci	r25, 0x0B	; 11
    17c8:	30 f6       	brcc	.-116    	; 0x1756 <_Z17tinyFoxStartPrintv+0x114>
    17ca:	87 ea       	ldi	r24, 0xA7	; 167
    17cc:	91 e6       	ldi	r25, 0x61	; 97
    17ce:	01 97       	sbiw	r24, 0x01	; 1
    17d0:	f1 f7       	brne	.-4      	; 0x17ce <_Z17tinyFoxStartPrintv+0x18c>
    17d2:	00 c0       	rjmp	.+0      	; 0x17d4 <_Z17tinyFoxStartPrintv+0x192>
    17d4:	00 00       	nop
		print("\n\r");
		batteryVoltage = deviceReadSupplyVoltage();
	}
		
	_delay_ms(100);
	initPrimaryUARTwith9600();
    17d6:	0e 94 ed 0d 	call	0x1bda	; 0x1bda <_Z23initPrimaryUARTwith9600v>
	deinitSecondUartPins();
    17da:	0e 94 2e 0e 	call	0x1c5c	; 0x1c5c <_Z20deinitSecondUartPinsv>
}
    17de:	c0 5c       	subi	r28, 0xC0	; 192
    17e0:	df 4f       	sbci	r29, 0xFF	; 255
    17e2:	cd bf       	out	0x3d, r28	; 61
    17e4:	de bf       	out	0x3e, r29	; 62
    17e6:	df 91       	pop	r29
    17e8:	cf 91       	pop	r28
    17ea:	1f 91       	pop	r17
    17ec:	0f 91       	pop	r16
    17ee:	ff 90       	pop	r15
    17f0:	ef 90       	pop	r14
    17f2:	08 95       	ret

000017f4 <main>:

int main(void) {
    17f4:	cf 93       	push	r28
    17f6:	df 93       	push	r29
    17f8:	cd b7       	in	r28, 0x3d	; 61
    17fa:	de b7       	in	r29, 0x3e	; 62
    17fc:	2c 97       	sbiw	r28, 0x0c	; 12
    17fe:	cd bf       	out	0x3d, r28	; 61
    1800:	de bf       	out	0x3e, r29	; 62
	while(1) {
		RTC.CTRLA = 0; // disable RTC interrupt
    1802:	68 94       	set
    1804:	ee 24       	eor	r14, r14
    1806:	e6 f8       	bld	r14, 6
    1808:	ff 24       	eor	r15, r15
    180a:	f3 94       	inc	r15
			}
		}
		else if(state == ST_TRACKING) {
			if(batteryVoltage >= VOLTAGE_SEND) {
				uint8_t sigfoxDataPointer = 0;
				uint8_t sigfoxData[12] = { 0 };
    180c:	0f 2e       	mov	r0, r31
    180e:	fc e0       	ldi	r31, 0x0C	; 12
    1810:	9f 2e       	mov	r9, r31
    1812:	f0 2d       	mov	r31, r0
    1814:	ae 01       	movw	r20, r28
    1816:	4f 5f       	subi	r20, 0xFF	; 255
    1818:	5f 4f       	sbci	r21, 0xFF	; 255
    181a:	1a 01       	movw	r2, r20
				// send data
				#if (MOCK_SEND == false)
				deviceSigfoxPinWakeUp();
				_delay_ms(100); // wait until sigfox module booted (does not send ok after boot via wake up pin)
				if(LED_ON_DURING_SENDING) { deviceLedOn(); }
				if(!sigfoxSend(sigfoxData, sigfoxDataPointer)) { lastError = 5; }
    181c:	0f 2e       	mov	r0, r31
    181e:	f5 e0       	ldi	r31, 0x05	; 5
    1820:	8f 2e       	mov	r8, r31
    1822:	f0 2d       	mov	r31, r0
					
				// add last error to MSB of temperature
				if(lastError > 0) { tinyTemperature |= 0b10000000; }
				
				// fill measurement data
				if(vedbaBurstSum > 0xFFFF) { vedbaBurstSum = 0xFFFF; }
    1824:	44 24       	eor	r4, r4
    1826:	4a 94       	dec	r4
    1828:	54 2c       	mov	r5, r4
    182a:	61 2c       	mov	r6, r1
    182c:	71 2c       	mov	r7, r1
    uint8_t operator*() const            { return eeprom_read_byte( (uint8_t*) index ); }
    operator uint8_t() const             { return **this; }
    
    // Assignment/write members.
    TinyEEPROM &operator=( const TinyEEPROM &ref ) { return *this = *ref; }
    TinyEEPROM &operator=( uint8_t in )       { return eeprom_write_byte( (uint8_t*) index, in ), *this;  }
    182e:	0f 2e       	mov	r0, r31
    1830:	fd e1       	ldi	r31, 0x1D	; 29
    1832:	af 2e       	mov	r10, r31
    1834:	f8 e3       	ldi	r31, 0x38	; 56
    1836:	bf 2e       	mov	r11, r31
    1838:	f0 2d       	mov	r31, r0
			}
			else {
				deviceLedOn();
				wait(1);
				deviceLedOff();
				state = ST_TRACKING;
    183a:	dd 24       	eor	r13, r13
    183c:	d3 94       	inc	r13
			if(!sigfoxAlive()) { lastError = 1; }
			_delay_ms(500);
			tinyFoxStartPrint(); // alternative function: sigfoxPrintIdAndPac();
			_delay_ms(500);
			deviceSigfoxPinIdle();
			if(!sigfoxSleep()) { lastError = 2; }
    183e:	02 e0       	ldi	r16, 0x02	; 2
			// test sensors
			i2cInit();
			deviceAccBaroOn();
			//if(!baroAlive()) { lastError = 3; }
			baroReadCoefficients(baroCoefficients);
			if(!accMC3635Alive()) { lastError = 4; }
    1840:	68 94       	set
    1842:	cc 24       	eor	r12, r12
    1844:	c2 f8       	bld	r12, 2
	deinitSecondUartPins();
}

int main(void) {
	while(1) {
		RTC.CTRLA = 0; // disable RTC interrupt
    1846:	d7 01       	movw	r26, r14
    1848:	1c 92       	st	X, r1
		if(state == ST_FIRST_START_HARD_RESET) { deviceSetCPUSpeed(OSC16_PRESCALER_CPU_1MHZ);  } // 1MHz = 701uA @while(1), do this BEFORE reading supply voltage
    184a:	80 91 7d 3c 	lds	r24, 0x3C7D	; 0x803c7d <state>
    184e:	81 11       	cpse	r24, r1
    1850:	03 c0       	rjmp	.+6      	; 0x1858 <main+0x64>
    1852:	86 e0       	ldi	r24, 0x06	; 6
    1854:	0e 94 21 06 	call	0xc42	; 0xc42 <_Z17deviceSetCPUSpeedh>
		batteryVoltage = deviceReadSupplyVoltage(); // perform as first thing in every state
    1858:	0e 94 f4 05 	call	0xbe8	; 0xbe8 <_Z23deviceReadSupplyVoltagev>
    185c:	9c 01       	movw	r18, r24
    185e:	80 93 7b 3c 	sts	0x3C7B, r24	; 0x803c7b <batteryVoltage>
    1862:	90 93 7c 3c 	sts	0x3C7C, r25	; 0x803c7c <batteryVoltage+0x1>
		
		if(state == ST_FIRST_START_HARD_RESET) { // will be re-entered after data download
    1866:	90 91 7d 3c 	lds	r25, 0x3C7D	; 0x803c7d <state>
    186a:	91 11       	cpse	r25, r1
    186c:	8f c0       	rjmp	.+286    	; 0x198c <main+0x198>
			deviceInitPins();
    186e:	0e 94 72 05 	call	0xae4	; 0xae4 <_Z14deviceInitPinsv>
			//usePrintf(); // NOT NEEDED, requires a lot of flash memory
			initPrimaryUARTwith9600(); // init uart to communicate with sigfox module
    1872:	0e 94 ed 0d 	call	0x1bda	; 0x1bda <_Z23initPrimaryUARTwith9600v>
			deviceSigfoxPinIdle();
    1876:	0e 94 51 06 	call	0xca2	; 0xca2 <_Z19deviceSigfoxPinIdlev>
			lastError = 0; // IMPORTANT: reset all errors
    187a:	10 92 14 38 	sts	0x3814, r1	; 0x803814 <lastError>

			wait(1); // sleep 1 second
    187e:	81 e0       	ldi	r24, 0x01	; 1
    1880:	90 e0       	ldi	r25, 0x00	; 0
    1882:	0e 94 6c 07 	call	0xed8	; 0xed8 <_Z4waitj>
struct TinyEEPROM {
    TinyEEPROM(const int index)
        : index( index )                 {}
    
    // Access/read members.
    uint8_t operator*() const            { return eeprom_read_byte( (uint8_t*) index ); }
    1886:	80 e0       	ldi	r24, 0x00	; 0
    1888:	90 e0       	ldi	r25, 0x00	; 0
    188a:	0e 94 5a 13 	call	0x26b4	; 0x26b4 <eeprom_read_byte>
    188e:	18 2f       	mov	r17, r24
    1890:	81 e0       	ldi	r24, 0x01	; 1
    1892:	90 e0       	ldi	r25, 0x00	; 0
    1894:	0e 94 5a 13 	call	0x26b4	; 0x26b4 <eeprom_read_byte>
			
			// EEPROM: read, increment and store hard reset counter
			hardResetCounter = (((uint16_t) TinyEEPROM(EEPROM_HARD_RESET_COUNTER)) << 8) | (((uint16_t) TinyEEPROM(EEPROM_HARD_RESET_COUNTER + 1)));
    1898:	21 2f       	mov	r18, r17
    189a:	30 e0       	ldi	r19, 0x00	; 0
    189c:	32 2f       	mov	r19, r18
    189e:	22 27       	eor	r18, r18
    18a0:	f9 01       	movw	r30, r18
    18a2:	e8 2b       	or	r30, r24
    18a4:	cf 01       	movw	r24, r30
			if(hardResetCounter < 65535) { hardResetCounter++; }
    18a6:	8f 3f       	cpi	r24, 0xFF	; 255
    18a8:	ff ef       	ldi	r31, 0xFF	; 255
    18aa:	9f 07       	cpc	r25, r31
    18ac:	31 f0       	breq	.+12     	; 0x18ba <main+0xc6>
    18ae:	01 96       	adiw	r24, 0x01	; 1
    18b0:	80 93 1d 38 	sts	0x381D, r24	; 0x80381d <hardResetCounter>
    18b4:	90 93 1e 38 	sts	0x381E, r25	; 0x80381e <hardResetCounter+0x1>
    18b8:	04 c0       	rjmp	.+8      	; 0x18c2 <main+0xce>
			else { hardResetCounter = 0; } // first start: value is 0xFFFF = 65535
    18ba:	10 92 1d 38 	sts	0x381D, r1	; 0x80381d <hardResetCounter>
    18be:	10 92 1e 38 	sts	0x381E, r1	; 0x80381e <hardResetCounter+0x1>
    operator uint8_t() const             { return **this; }
    
    // Assignment/write members.
    TinyEEPROM &operator=( const TinyEEPROM &ref ) { return *this = *ref; }
    TinyEEPROM &operator=( uint8_t in )       { return eeprom_write_byte( (uint8_t*) index, in ), *this;  }
    18c2:	60 91 1e 38 	lds	r22, 0x381E	; 0x80381e <hardResetCounter+0x1>
    18c6:	80 e0       	ldi	r24, 0x00	; 0
    18c8:	90 e0       	ldi	r25, 0x00	; 0
    18ca:	0e 94 62 13 	call	0x26c4	; 0x26c4 <eeprom_write_byte>
    18ce:	d5 01       	movw	r26, r10
    18d0:	6c 91       	ld	r22, X
    18d2:	81 e0       	ldi	r24, 0x01	; 1
    18d4:	90 e0       	ldi	r25, 0x00	; 0
    18d6:	0e 94 62 13 	call	0x26c4	; 0x26c4 <eeprom_write_byte>
			(TinyEEPROM(EEPROM_HARD_RESET_COUNTER)) = (uint8_t) (hardResetCounter >> 8);
			(TinyEEPROM(EEPROM_HARD_RESET_COUNTER + 1)) = (uint8_t) (hardResetCounter);
			
			// test sensors
			i2cInit();
    18da:	0e 94 67 06 	call	0xcce	; 0xcce <_Z7i2cInitv>
			deviceAccBaroOn();
    18de:	0e 94 59 06 	call	0xcb2	; 0xcb2 <_Z15deviceAccBaroOnv>
			//if(!baroAlive()) { lastError = 3; }
			baroReadCoefficients(baroCoefficients);
    18e2:	8e e7       	ldi	r24, 0x7E	; 126
    18e4:	9c e3       	ldi	r25, 0x3C	; 60
    18e6:	0e 94 42 01 	call	0x284	; 0x284 <_Z20baroReadCoefficientsPj>
			if(!accMC3635Alive()) { lastError = 4; }
    18ea:	0e 94 ea 00 	call	0x1d4	; 0x1d4 <_Z14accMC3635Alivev>
    18ee:	81 11       	cpse	r24, r1
    18f0:	02 c0       	rjmp	.+4      	; 0x18f6 <main+0x102>
    18f2:	c0 92 14 38 	sts	0x3814, r12	; 0x803814 <lastError>
			deviceAccBaroOff();
    18f6:	0e 94 63 06 	call	0xcc6	; 0xcc6 <_Z16deviceAccBaroOffv>
			
			// read id and pac of sigfox module and put module to sleep
			deviceSigfoxPinWakeUp();
    18fa:	0e 94 55 06 	call	0xcaa	; 0xcaa <_Z21deviceSigfoxPinWakeUpv>
    18fe:	e7 ea       	ldi	r30, 0xA7	; 167
    1900:	f1 e6       	ldi	r31, 0x61	; 97
    1902:	31 97       	sbiw	r30, 0x01	; 1
    1904:	f1 f7       	brne	.-4      	; 0x1902 <main+0x10e>
    1906:	00 c0       	rjmp	.+0      	; 0x1908 <main+0x114>
    1908:	00 00       	nop
			_delay_ms(100); // wait until sigfox module booted (does not send ok after boot via wake up pin)
			sigfoxFirstStart(); // wake up module with UART
    190a:	0e 94 f3 04 	call	0x9e6	; 0x9e6 <_Z16sigfoxFirstStartv>
			if(!sigfoxAlive()) { lastError = 1; }
    190e:	0e 94 2a 05 	call	0xa54	; 0xa54 <_Z11sigfoxAlivev>
    1912:	81 11       	cpse	r24, r1
    1914:	02 c0       	rjmp	.+4      	; 0x191a <main+0x126>
    1916:	d0 92 14 38 	sts	0x3814, r13	; 0x803814 <lastError>
    191a:	ff e9       	ldi	r31, 0x9F	; 159
    191c:	26 e8       	ldi	r18, 0x86	; 134
    191e:	41 e0       	ldi	r20, 0x01	; 1
    1920:	f1 50       	subi	r31, 0x01	; 1
    1922:	20 40       	sbci	r18, 0x00	; 0
    1924:	40 40       	sbci	r20, 0x00	; 0
    1926:	e1 f7       	brne	.-8      	; 0x1920 <main+0x12c>
    1928:	00 c0       	rjmp	.+0      	; 0x192a <main+0x136>
    192a:	00 00       	nop
			_delay_ms(500);
			tinyFoxStartPrint(); // alternative function: sigfoxPrintIdAndPac();
    192c:	0e 94 21 0b 	call	0x1642	; 0x1642 <_Z17tinyFoxStartPrintv>
    1930:	5f e9       	ldi	r21, 0x9F	; 159
    1932:	86 e8       	ldi	r24, 0x86	; 134
    1934:	91 e0       	ldi	r25, 0x01	; 1
    1936:	51 50       	subi	r21, 0x01	; 1
    1938:	80 40       	sbci	r24, 0x00	; 0
    193a:	90 40       	sbci	r25, 0x00	; 0
    193c:	e1 f7       	brne	.-8      	; 0x1936 <main+0x142>
    193e:	00 c0       	rjmp	.+0      	; 0x1940 <main+0x14c>
    1940:	00 00       	nop
			_delay_ms(500);
			deviceSigfoxPinIdle();
    1942:	0e 94 51 06 	call	0xca2	; 0xca2 <_Z19deviceSigfoxPinIdlev>
			if(!sigfoxSleep()) { lastError = 2; }
    1946:	0e 94 33 05 	call	0xa66	; 0xa66 <_Z11sigfoxSleepv>
    194a:	81 11       	cpse	r24, r1
    194c:	04 c0       	rjmp	.+8      	; 0x1956 <main+0x162>
    194e:	00 93 14 38 	sts	0x3814, r16	; 0x803814 <lastError>
			
			// evaluate errors and transit into next state
			if(lastError > 0) {
    1952:	80 2f       	mov	r24, r16
    1954:	04 c0       	rjmp	.+8      	; 0x195e <main+0x16a>
    1956:	80 91 14 38 	lds	r24, 0x3814	; 0x803814 <lastError>
    195a:	88 23       	and	r24, r24
    195c:	41 f0       	breq	.+16     	; 0x196e <main+0x17a>
				deviceBlink(lastError + 1);
    195e:	8f 5f       	subi	r24, 0xFF	; 255
    1960:	0e 94 39 06 	call	0xc72	; 0xc72 <_Z11deviceBlinkh>
				deviceInitInternalRTCInterrupt(30);	// try again after 30 seconds	
    1964:	8e e1       	ldi	r24, 0x1E	; 30
    1966:	90 e0       	ldi	r25, 0x00	; 0
    1968:	0e 94 94 05 	call	0xb28	; 0xb28 <_Z30deviceInitInternalRTCInterruptj>
    196c:	33 c1       	rjmp	.+614    	; 0x1bd4 <main+0x3e0>
			}
			else {
				deviceLedOn();
    196e:	0e 94 31 06 	call	0xc62	; 0xc62 <_Z11deviceLedOnv>
				wait(1);
    1972:	81 e0       	ldi	r24, 0x01	; 1
    1974:	90 e0       	ldi	r25, 0x00	; 0
    1976:	0e 94 6c 07 	call	0xed8	; 0xed8 <_Z4waitj>
				deviceLedOff();
    197a:	0e 94 35 06 	call	0xc6a	; 0xc6a <_Z12deviceLedOffv>
				state = ST_TRACKING;
    197e:	d0 92 7d 3c 	sts	0x3C7D, r13	; 0x803c7d <state>
				deviceInitInternalRTCInterrupt(SLEEP_SECONDS);
    1982:	8c e3       	ldi	r24, 0x3C	; 60
    1984:	90 e0       	ldi	r25, 0x00	; 0
    1986:	0e 94 94 05 	call	0xb28	; 0xb28 <_Z30deviceInitInternalRTCInterruptj>
    198a:	24 c1       	rjmp	.+584    	; 0x1bd4 <main+0x3e0>
			}
		}
		else if(state == ST_TRACKING) {
    198c:	91 30       	cpi	r25, 0x01	; 1
    198e:	09 f0       	breq	.+2      	; 0x1992 <main+0x19e>
    1990:	21 c1       	rjmp	.+578    	; 0x1bd4 <main+0x3e0>
			if(batteryVoltage >= VOLTAGE_SEND) {
    1992:	28 32       	cpi	r18, 0x28	; 40
    1994:	aa e0       	ldi	r26, 0x0A	; 10
    1996:	3a 07       	cpc	r19, r26
    1998:	08 f4       	brcc	.+2      	; 0x199c <main+0x1a8>
    199a:	10 c1       	rjmp	.+544    	; 0x1bbc <main+0x3c8>
				uint8_t sigfoxDataPointer = 0;
				uint8_t sigfoxData[12] = { 0 };
    199c:	f1 01       	movw	r30, r2
    199e:	29 2d       	mov	r18, r9
    19a0:	11 92       	st	Z+, r1
    19a2:	2a 95       	dec	r18
    19a4:	e9 f7       	brne	.-6      	; 0x19a0 <main+0x1ac>
				
				// get voltage difference as indicator for sun conditions
				sampleVoltageDifference(); // sleeps for longer time
    19a6:	0e 94 95 07 	call	0xf2a	; 0xf2a <_Z23sampleVoltageDifferencev>
				
				// initialize I2C sensors
				i2cInit();
    19aa:	0e 94 67 06 	call	0xcce	; 0xcce <_Z7i2cInitv>
				deviceAccBaroOn();
    19ae:	0e 94 59 06 	call	0xcb2	; 0xcb2 <_Z15deviceAccBaroOnv>
				
				// acceleration burst
				recordAccelerationBurst();
    19b2:	0e 94 b9 08 	call	0x1172	; 0x1172 <_Z23recordAccelerationBurstv>
				
				// read baro and temperature values
				baroReadPressureTemperature(&pressure, &temperature, baroCoefficients);
    19b6:	4e e7       	ldi	r20, 0x7E	; 126
    19b8:	5c e3       	ldi	r21, 0x3C	; 60
    19ba:	67 e0       	ldi	r22, 0x07	; 7
    19bc:	78 e3       	ldi	r23, 0x38	; 56
    19be:	8b e0       	ldi	r24, 0x0B	; 11
    19c0:	98 e3       	ldi	r25, 0x38	; 56
    19c2:	0e 94 c1 01 	call	0x382	; 0x382 <_Z27baroReadPressureTemperaturePlS_Pj>
				pressure = pressure - 39500;
    19c6:	80 91 0b 38 	lds	r24, 0x380B	; 0x80380b <pressure>
    19ca:	90 91 0c 38 	lds	r25, 0x380C	; 0x80380c <pressure+0x1>
    19ce:	a0 91 0d 38 	lds	r26, 0x380D	; 0x80380d <pressure+0x2>
    19d2:	b0 91 0e 38 	lds	r27, 0x380E	; 0x80380e <pressure+0x3>
    19d6:	8c 54       	subi	r24, 0x4C	; 76
    19d8:	9a 49       	sbci	r25, 0x9A	; 154
    19da:	a1 09       	sbc	r26, r1
    19dc:	b1 09       	sbc	r27, r1
    19de:	80 93 0b 38 	sts	0x380B, r24	; 0x80380b <pressure>
    19e2:	90 93 0c 38 	sts	0x380C, r25	; 0x80380c <pressure+0x1>
    19e6:	a0 93 0d 38 	sts	0x380D, r26	; 0x80380d <pressure+0x2>
    19ea:	b0 93 0e 38 	sts	0x380E, r27	; 0x80380e <pressure+0x3>
				if(pressure < 0) { pressure = 0; }
    19ee:	bb 23       	and	r27, r27
    19f0:	4c f4       	brge	.+18     	; 0x1a04 <main+0x210>
    19f2:	10 92 0b 38 	sts	0x380B, r1	; 0x80380b <pressure>
    19f6:	10 92 0c 38 	sts	0x380C, r1	; 0x80380c <pressure+0x1>
    19fa:	10 92 0d 38 	sts	0x380D, r1	; 0x80380d <pressure+0x2>
    19fe:	10 92 0e 38 	sts	0x380E, r1	; 0x80380e <pressure+0x3>
    1a02:	0c c0       	rjmp	.+24     	; 0x1a1c <main+0x228>
				if(pressure > 65535) { pressure = 65535; }
    1a04:	00 97       	sbiw	r24, 0x00	; 0
    1a06:	a1 40       	sbci	r26, 0x01	; 1
    1a08:	b1 05       	cpc	r27, r1
    1a0a:	44 f0       	brlt	.+16     	; 0x1a1c <main+0x228>
    1a0c:	40 92 0b 38 	sts	0x380B, r4	; 0x80380b <pressure>
    1a10:	50 92 0c 38 	sts	0x380C, r5	; 0x80380c <pressure+0x1>
    1a14:	60 92 0d 38 	sts	0x380D, r6	; 0x80380d <pressure+0x2>
    1a18:	70 92 0e 38 	sts	0x380E, r7	; 0x80380e <pressure+0x3>
				temperature = temperature + 4000;
    1a1c:	80 91 07 38 	lds	r24, 0x3807	; 0x803807 <temperature>
    1a20:	90 91 08 38 	lds	r25, 0x3808	; 0x803808 <temperature+0x1>
    1a24:	a0 91 09 38 	lds	r26, 0x3809	; 0x803809 <temperature+0x2>
    1a28:	b0 91 0a 38 	lds	r27, 0x380A	; 0x80380a <temperature+0x3>
    1a2c:	80 56       	subi	r24, 0x60	; 96
    1a2e:	90 4f       	sbci	r25, 0xF0	; 240
    1a30:	af 4f       	sbci	r26, 0xFF	; 255
    1a32:	bf 4f       	sbci	r27, 0xFF	; 255
    1a34:	80 93 07 38 	sts	0x3807, r24	; 0x803807 <temperature>
    1a38:	90 93 08 38 	sts	0x3808, r25	; 0x803808 <temperature+0x1>
    1a3c:	a0 93 09 38 	sts	0x3809, r26	; 0x803809 <temperature+0x2>
    1a40:	b0 93 0a 38 	sts	0x380A, r27	; 0x80380a <temperature+0x3>
				if(temperature < 0) { temperature = 0; } // 0 = -4000 = -40
    1a44:	bb 23       	and	r27, r27
    1a46:	4c f4       	brge	.+18     	; 0x1a5a <main+0x266>
    1a48:	10 92 07 38 	sts	0x3807, r1	; 0x803807 <temperature>
    1a4c:	10 92 08 38 	sts	0x3808, r1	; 0x803808 <temperature+0x1>
    1a50:	10 92 09 38 	sts	0x3809, r1	; 0x803809 <temperature+0x2>
    1a54:	10 92 0a 38 	sts	0x380A, r1	; 0x80380a <temperature+0x3>
    1a58:	11 c0       	rjmp	.+34     	; 0x1a7c <main+0x288>
				if(temperature > 16383) { temperature = 16383; } // 16383 - 4000 = 12383 = +123 (leaving upper 2 bits zero)
    1a5a:	81 15       	cp	r24, r1
    1a5c:	90 44       	sbci	r25, 0x40	; 64
    1a5e:	a1 05       	cpc	r26, r1
    1a60:	b1 05       	cpc	r27, r1
    1a62:	64 f0       	brlt	.+24     	; 0x1a7c <main+0x288>
    1a64:	8f ef       	ldi	r24, 0xFF	; 255
    1a66:	9f e3       	ldi	r25, 0x3F	; 63
    1a68:	a0 e0       	ldi	r26, 0x00	; 0
    1a6a:	b0 e0       	ldi	r27, 0x00	; 0
    1a6c:	80 93 07 38 	sts	0x3807, r24	; 0x803807 <temperature>
    1a70:	90 93 08 38 	sts	0x3808, r25	; 0x803808 <temperature+0x1>
    1a74:	a0 93 09 38 	sts	0x3809, r26	; 0x803809 <temperature+0x2>
    1a78:	b0 93 0a 38 	sts	0x380A, r27	; 0x80380a <temperature+0x3>
				hardResetCounterBits = (hardResetCounterBits << 6) & 0b11000000;
				temperature |= hardResetCounterBits;*/
				
				// add max movement to upper 2 bits of temperature
				int32_t maxMovementTemp = (int32_t) maxMovement;
				maxMovementTemp = (maxMovementTemp << 14) & 0xC000;
    1a7c:	80 91 02 38 	lds	r24, 0x3802	; 0x803802 <__data_end>
    1a80:	90 e0       	ldi	r25, 0x00	; 0
    1a82:	a0 e0       	ldi	r26, 0x00	; 0
    1a84:	b0 e0       	ldi	r27, 0x00	; 0
    1a86:	07 2e       	mov	r0, r23
    1a88:	7e e0       	ldi	r23, 0x0E	; 14
    1a8a:	88 0f       	add	r24, r24
    1a8c:	99 1f       	adc	r25, r25
    1a8e:	aa 1f       	adc	r26, r26
    1a90:	bb 1f       	adc	r27, r27
    1a92:	7a 95       	dec	r23
    1a94:	d1 f7       	brne	.-12     	; 0x1a8a <main+0x296>
    1a96:	70 2d       	mov	r23, r0
				temperature |= maxMovementTemp;
    1a98:	aa 27       	eor	r26, r26
    1a9a:	bb 27       	eor	r27, r27
    1a9c:	40 91 07 38 	lds	r20, 0x3807	; 0x803807 <temperature>
    1aa0:	50 91 08 38 	lds	r21, 0x3808	; 0x803808 <temperature+0x1>
    1aa4:	60 91 09 38 	lds	r22, 0x3809	; 0x803809 <temperature+0x2>
    1aa8:	70 91 0a 38 	lds	r23, 0x380A	; 0x80380a <temperature+0x3>
    1aac:	84 2b       	or	r24, r20
    1aae:	95 2b       	or	r25, r21
    1ab0:	a6 2b       	or	r26, r22
    1ab2:	b7 2b       	or	r27, r23
    1ab4:	80 93 07 38 	sts	0x3807, r24	; 0x803807 <temperature>
    1ab8:	90 93 08 38 	sts	0x3808, r25	; 0x803808 <temperature+0x1>
    1abc:	a0 93 09 38 	sts	0x3809, r26	; 0x803809 <temperature+0x2>
    1ac0:	b0 93 0a 38 	sts	0x380A, r27	; 0x80380a <temperature+0x3>
				
				// I2C sensors off
				deviceAccBaroOff();
    1ac4:	0e 94 63 06 	call	0xcc6	; 0xcc6 <_Z16deviceAccBaroOffv>
				
				// get attiny temperature
				tinyTemperature = getInternalTemperature();
    1ac8:	0e 94 b4 05 	call	0xb68	; 0xb68 <_Z22getInternalTemperaturev>
				tinyTemperature = tinyTemperature + 40; // -40 -> 0, 0 -> 40, 25 -> 65, ...
    1acc:	88 96       	adiw	r24, 0x28	; 40
    1ace:	80 93 05 38 	sts	0x3805, r24	; 0x803805 <tinyTemperature>
    1ad2:	90 93 06 38 	sts	0x3806, r25	; 0x803806 <tinyTemperature+0x1>
				if(tinyTemperature < 0) { tinyTemperature = 0; }
    1ad6:	99 23       	and	r25, r25
    1ad8:	2c f4       	brge	.+10     	; 0x1ae4 <main+0x2f0>
    1ada:	10 92 05 38 	sts	0x3805, r1	; 0x803805 <tinyTemperature>
    1ade:	10 92 06 38 	sts	0x3806, r1	; 0x803806 <tinyTemperature+0x1>
    1ae2:	09 c0       	rjmp	.+18     	; 0x1af6 <main+0x302>
				if(tinyTemperature > 127) { tinyTemperature = 127; } // limit to 127 - 40 = 87, leaving MSB bit free for some other stuff
    1ae4:	80 38       	cpi	r24, 0x80	; 128
    1ae6:	91 05       	cpc	r25, r1
    1ae8:	34 f0       	brlt	.+12     	; 0x1af6 <main+0x302>
    1aea:	af e7       	ldi	r26, 0x7F	; 127
    1aec:	b0 e0       	ldi	r27, 0x00	; 0
    1aee:	a0 93 05 38 	sts	0x3805, r26	; 0x803805 <tinyTemperature>
    1af2:	b0 93 06 38 	sts	0x3806, r27	; 0x803806 <tinyTemperature+0x1>
					
				// add last error to MSB of temperature
				if(lastError > 0) { tinyTemperature |= 0b10000000; }
    1af6:	80 91 14 38 	lds	r24, 0x3814	; 0x803814 <lastError>
    1afa:	88 23       	and	r24, r24
    1afc:	49 f0       	breq	.+18     	; 0x1b10 <main+0x31c>
    1afe:	80 91 05 38 	lds	r24, 0x3805	; 0x803805 <tinyTemperature>
    1b02:	90 91 06 38 	lds	r25, 0x3806	; 0x803806 <tinyTemperature+0x1>
    1b06:	80 68       	ori	r24, 0x80	; 128
    1b08:	80 93 05 38 	sts	0x3805, r24	; 0x803805 <tinyTemperature>
    1b0c:	90 93 06 38 	sts	0x3806, r25	; 0x803806 <tinyTemperature+0x1>
				
				// fill measurement data
				if(vedbaBurstSum > 0xFFFF) { vedbaBurstSum = 0xFFFF; }
    1b10:	80 91 0f 38 	lds	r24, 0x380F	; 0x80380f <vedbaBurstSum>
    1b14:	90 91 10 38 	lds	r25, 0x3810	; 0x803810 <vedbaBurstSum+0x1>
    1b18:	a0 91 11 38 	lds	r26, 0x3811	; 0x803811 <vedbaBurstSum+0x2>
    1b1c:	b0 91 12 38 	lds	r27, 0x3812	; 0x803812 <vedbaBurstSum+0x3>
    1b20:	00 97       	sbiw	r24, 0x00	; 0
    1b22:	a1 40       	sbci	r26, 0x01	; 1
    1b24:	b1 05       	cpc	r27, r1
    1b26:	40 f0       	brcs	.+16     	; 0x1b38 <main+0x344>
    1b28:	40 92 0f 38 	sts	0x380F, r4	; 0x80380f <vedbaBurstSum>
    1b2c:	50 92 10 38 	sts	0x3810, r5	; 0x803810 <vedbaBurstSum+0x1>
    1b30:	60 92 11 38 	sts	0x3811, r6	; 0x803811 <vedbaBurstSum+0x2>
    1b34:	70 92 12 38 	sts	0x3812, r7	; 0x803812 <vedbaBurstSum+0x3>
				sigfoxData[sigfoxDataPointer] = (vedbaBurstSum >> 8) & 0xFF; sigfoxDataPointer++;
    1b38:	80 91 0f 38 	lds	r24, 0x380F	; 0x80380f <vedbaBurstSum>
    1b3c:	90 91 10 38 	lds	r25, 0x3810	; 0x803810 <vedbaBurstSum+0x1>
    1b40:	99 83       	std	Y+1, r25	; 0x01
				sigfoxData[sigfoxDataPointer] = (vedbaBurstSum) & 0xFF; sigfoxDataPointer++;
    1b42:	8a 83       	std	Y+2, r24	; 0x02
				sigfoxData[sigfoxDataPointer] = zeroCrossings; sigfoxDataPointer++;
    1b44:	80 91 04 38 	lds	r24, 0x3804	; 0x803804 <zeroCrossings>
    1b48:	8b 83       	std	Y+3, r24	; 0x03
				sigfoxData[sigfoxDataPointer] = zeroCrossingsAvgAmplitude; sigfoxDataPointer++;
    1b4a:	80 91 03 38 	lds	r24, 0x3803	; 0x803803 <zeroCrossingsAvgAmplitude>
    1b4e:	8c 83       	std	Y+4, r24	; 0x04
				sigfoxData[sigfoxDataPointer] = pitch; sigfoxDataPointer++;
    1b50:	80 91 01 38 	lds	r24, 0x3801	; 0x803801 <pitch>
    1b54:	8d 83       	std	Y+5, r24	; 0x05
				sigfoxData[sigfoxDataPointer] = roll; sigfoxDataPointer++;
    1b56:	80 91 00 38 	lds	r24, 0x3800	; 0x803800 <__DATA_REGION_ORIGIN__>
    1b5a:	8e 83       	std	Y+6, r24	; 0x06
				sigfoxData[sigfoxDataPointer] = (pressure >> 8) & 0xFF; sigfoxDataPointer++;
    1b5c:	80 91 0b 38 	lds	r24, 0x380B	; 0x80380b <pressure>
    1b60:	90 91 0c 38 	lds	r25, 0x380C	; 0x80380c <pressure+0x1>
    1b64:	9f 83       	std	Y+7, r25	; 0x07
				sigfoxData[sigfoxDataPointer] = (pressure) & 0xFF; sigfoxDataPointer++;
    1b66:	88 87       	std	Y+8, r24	; 0x08
				sigfoxData[sigfoxDataPointer] = (temperature >> 8) & 0xFF; sigfoxDataPointer++;
    1b68:	80 91 07 38 	lds	r24, 0x3807	; 0x803807 <temperature>
    1b6c:	90 91 08 38 	lds	r25, 0x3808	; 0x803808 <temperature+0x1>
    1b70:	99 87       	std	Y+9, r25	; 0x09
				sigfoxData[sigfoxDataPointer] = (temperature) & 0xFF; sigfoxDataPointer++;
    1b72:	8a 87       	std	Y+10, r24	; 0x0a
				sigfoxData[sigfoxDataPointer] = ((uint8_t) tinyTemperature); sigfoxDataPointer++;
    1b74:	a5 e0       	ldi	r26, 0x05	; 5
    1b76:	b8 e3       	ldi	r27, 0x38	; 56
    1b78:	8c 91       	ld	r24, X
    1b7a:	8b 87       	std	Y+11, r24	; 0x0b
				sigfoxData[sigfoxDataPointer] = voltageDiff; sigfoxDataPointer++;
    1b7c:	80 91 13 38 	lds	r24, 0x3813	; 0x803813 <voltageDiff>
    1b80:	8c 87       	std	Y+12, r24	; 0x0c
				debugOutput(sigfoxData, 12);
				#endif
				
				// send data
				#if (MOCK_SEND == false)
				deviceSigfoxPinWakeUp();
    1b82:	0e 94 55 06 	call	0xcaa	; 0xcaa <_Z21deviceSigfoxPinWakeUpv>
    1b86:	e7 ea       	ldi	r30, 0xA7	; 167
    1b88:	f1 e6       	ldi	r31, 0x61	; 97
    1b8a:	31 97       	sbiw	r30, 0x01	; 1
    1b8c:	f1 f7       	brne	.-4      	; 0x1b8a <main+0x396>
    1b8e:	00 c0       	rjmp	.+0      	; 0x1b90 <main+0x39c>
    1b90:	00 00       	nop
				_delay_ms(100); // wait until sigfox module booted (does not send ok after boot via wake up pin)
				if(LED_ON_DURING_SENDING) { deviceLedOn(); }
    1b92:	0e 94 31 06 	call	0xc62	; 0xc62 <_Z11deviceLedOnv>
				if(!sigfoxSend(sigfoxData, sigfoxDataPointer)) { lastError = 5; }
    1b96:	69 2d       	mov	r22, r9
    1b98:	c1 01       	movw	r24, r2
    1b9a:	0e 94 3c 05 	call	0xa78	; 0xa78 <_Z10sigfoxSendPhh>
    1b9e:	81 11       	cpse	r24, r1
    1ba0:	02 c0       	rjmp	.+4      	; 0x1ba6 <main+0x3b2>
    1ba2:	80 92 14 38 	sts	0x3814, r8	; 0x803814 <lastError>
				deviceSigfoxPinIdle();
    1ba6:	0e 94 51 06 	call	0xca2	; 0xca2 <_Z19deviceSigfoxPinIdlev>
				sigfoxSleep();
    1baa:	0e 94 33 05 	call	0xa66	; 0xa66 <_Z11sigfoxSleepv>
				if(LED_ON_DURING_SENDING) { deviceLedOff(); }
    1bae:	0e 94 35 06 	call	0xc6a	; 0xc6a <_Z12deviceLedOffv>
				#endif
				deviceInitInternalRTCInterrupt(SLEEP_SECONDS);
    1bb2:	8c e3       	ldi	r24, 0x3C	; 60
    1bb4:	90 e0       	ldi	r25, 0x00	; 0
    1bb6:	0e 94 94 05 	call	0xb28	; 0xb28 <_Z30deviceInitInternalRTCInterruptj>
    1bba:	0c c0       	rjmp	.+24     	; 0x1bd4 <main+0x3e0>
			}
			else {
				if(batteryVoltage < VOLTAGE_LOW) {
    1bbc:	28 39       	cpi	r18, 0x98	; 152
    1bbe:	38 40       	sbci	r19, 0x08	; 8
    1bc0:	28 f4       	brcc	.+10     	; 0x1bcc <main+0x3d8>
					// TODO: maybe write backup values in EEPROM (total vedba sum)
					deviceInitInternalRTCInterrupt(SLEEP_SECONDS_LOW_VOLTAGE);
    1bc2:	88 e5       	ldi	r24, 0x58	; 88
    1bc4:	92 e0       	ldi	r25, 0x02	; 2
    1bc6:	0e 94 94 05 	call	0xb28	; 0xb28 <_Z30deviceInitInternalRTCInterruptj>
    1bca:	04 c0       	rjmp	.+8      	; 0x1bd4 <main+0x3e0>
				}
				else { deviceInitInternalRTCInterrupt(SLEEP_SECONDS); }
    1bcc:	8c e3       	ldi	r24, 0x3C	; 60
    1bce:	90 e0       	ldi	r25, 0x00	; 0
    1bd0:	0e 94 94 05 	call	0xb28	; 0xb28 <_Z30deviceInitInternalRTCInterruptj>
			}
		}
		deviceStandbySleep();
    1bd4:	0e 94 83 05 	call	0xb06	; 0xb06 <_Z18deviceStandbySleepv>
	initPrimaryUARTwith9600();
	deinitSecondUartPins();
}

int main(void) {
	while(1) {
    1bd8:	36 ce       	rjmp	.-916    	; 0x1846 <main+0x52>

00001bda <_Z23initPrimaryUARTwith9600v>:
}

void usePrintf() {
	static FILE mystdout;
	fdev_setup_stream(&mystdout, usePrintfFunction, NULL, _FDEV_SETUP_WRITE);
	stdout = &mystdout;
    1bda:	10 92 e2 05 	sts	0x05E2, r1	; 0x8005e2 <__RODATA_PM_OFFSET__+0x7f85e2>
    1bde:	a0 e0       	ldi	r26, 0x00	; 0
    1be0:	b8 e0       	ldi	r27, 0x08	; 8
    1be2:	16 96       	adiw	r26, 0x06	; 6
    1be4:	8c 91       	ld	r24, X
    1be6:	16 97       	sbiw	r26, 0x06	; 6
    1be8:	80 6c       	ori	r24, 0xC0	; 192
    1bea:	16 96       	adiw	r26, 0x06	; 6
    1bec:	8c 93       	st	X, r24
    1bee:	16 97       	sbiw	r26, 0x06	; 6
    1bf0:	e0 e2       	ldi	r30, 0x20	; 32
    1bf2:	f4 e0       	ldi	r31, 0x04	; 4
    1bf4:	84 e0       	ldi	r24, 0x04	; 4
    1bf6:	85 83       	std	Z+5, r24	; 0x05
    1bf8:	80 81       	ld	r24, Z
    1bfa:	84 60       	ori	r24, 0x04	; 4
    1bfc:	80 83       	st	Z, r24
    1bfe:	80 81       	ld	r24, Z
    1c00:	87 7f       	andi	r24, 0xF7	; 247
    1c02:	80 83       	st	Z, r24
    1c04:	81 ea       	ldi	r24, 0xA1	; 161
    1c06:	91 e0       	ldi	r25, 0x01	; 1
    1c08:	18 96       	adiw	r26, 0x08	; 8
    1c0a:	8d 93       	st	X+, r24
    1c0c:	9c 93       	st	X, r25
    1c0e:	19 97       	sbiw	r26, 0x09	; 9
    1c10:	08 95       	ret

00001c12 <_Z22initSecondUARTwith9600v>:
    1c12:	81 e0       	ldi	r24, 0x01	; 1
    1c14:	80 93 e2 05 	sts	0x05E2, r24	; 0x8005e2 <__RODATA_PM_OFFSET__+0x7f85e2>
    1c18:	a0 e0       	ldi	r26, 0x00	; 0
    1c1a:	b8 e0       	ldi	r27, 0x08	; 8
    1c1c:	80 e4       	ldi	r24, 0x40	; 64
    1c1e:	16 96       	adiw	r26, 0x06	; 6
    1c20:	8c 93       	st	X, r24
    1c22:	16 97       	sbiw	r26, 0x06	; 6
    1c24:	e0 e0       	ldi	r30, 0x00	; 0
    1c26:	f4 e0       	ldi	r31, 0x04	; 4
    1c28:	11 8a       	std	Z+17, r1	; 0x11
    1c2a:	82 e0       	ldi	r24, 0x02	; 2
    1c2c:	85 83       	std	Z+5, r24	; 0x05
    1c2e:	80 81       	ld	r24, Z
    1c30:	82 60       	ori	r24, 0x02	; 2
    1c32:	80 83       	st	Z, r24
    1c34:	81 ea       	ldi	r24, 0xA1	; 161
    1c36:	91 e0       	ldi	r25, 0x01	; 1
    1c38:	18 96       	adiw	r26, 0x08	; 8
    1c3a:	8d 93       	st	X+, r24
    1c3c:	9c 93       	st	X, r25
    1c3e:	19 97       	sbiw	r26, 0x09	; 9
    1c40:	08 95       	ret

00001c42 <_Z9uartFlushv>:
    1c42:	80 91 04 08 	lds	r24, 0x0804	; 0x800804 <__RODATA_PM_OFFSET__+0x7f8804>
    1c46:	88 23       	and	r24, r24
    1c48:	3c f4       	brge	.+14     	; 0x1c58 <_Z9uartFlushv+0x16>
    1c4a:	e0 e0       	ldi	r30, 0x00	; 0
    1c4c:	f8 e0       	ldi	r31, 0x08	; 8
    1c4e:	80 81       	ld	r24, Z
    1c50:	94 81       	ldd	r25, Z+4	; 0x04
    1c52:	99 23       	and	r25, r25
    1c54:	e4 f3       	brlt	.-8      	; 0x1c4e <_Z9uartFlushv+0xc>
    1c56:	08 95       	ret
    1c58:	80 e0       	ldi	r24, 0x00	; 0
    1c5a:	08 95       	ret

00001c5c <_Z20deinitSecondUartPinsv>:
    1c5c:	e0 e0       	ldi	r30, 0x00	; 0
    1c5e:	f4 e0       	ldi	r31, 0x04	; 4
    1c60:	80 81       	ld	r24, Z
    1c62:	8d 7f       	andi	r24, 0xFD	; 253
    1c64:	80 83       	st	Z, r24
    1c66:	84 e0       	ldi	r24, 0x04	; 4
    1c68:	81 8b       	std	Z+17, r24	; 0x11
    1c6a:	08 95       	ret

00001c6c <_Z8uartReadcPchj>:
    1c6c:	ef 92       	push	r14
    1c6e:	ff 92       	push	r15
    1c70:	0f 93       	push	r16
    1c72:	1f 93       	push	r17
    1c74:	cf 93       	push	r28
    1c76:	df 93       	push	r29
    1c78:	18 2f       	mov	r17, r24
    1c7a:	7b 01       	movw	r14, r22
    1c7c:	04 2f       	mov	r16, r20
    1c7e:	e9 01       	movw	r28, r18
    1c80:	50 e0       	ldi	r21, 0x00	; 0
    1c82:	60 e0       	ldi	r22, 0x00	; 0
    1c84:	70 e0       	ldi	r23, 0x00	; 0
    1c86:	c7 01       	movw	r24, r14
    1c88:	0e 94 48 13 	call	0x2690	; 0x2690 <memset>
    1c8c:	0e 94 21 0e 	call	0x1c42	; 0x1c42 <_Z9uartFlushv>
    1c90:	90 e0       	ldi	r25, 0x00	; 0
    1c92:	e0 e0       	ldi	r30, 0x00	; 0
    1c94:	f8 e0       	ldi	r31, 0x08	; 8
    1c96:	84 81       	ldd	r24, Z+4	; 0x04
    1c98:	88 23       	and	r24, r24
    1c9a:	54 f0       	brlt	.+20     	; 0x1cb0 <_Z8uartReadcPchj+0x44>
    1c9c:	21 97       	sbiw	r28, 0x01	; 1
    1c9e:	a9 ef       	ldi	r26, 0xF9	; 249
    1ca0:	b0 e0       	ldi	r27, 0x00	; 0
    1ca2:	11 97       	sbiw	r26, 0x01	; 1
    1ca4:	f1 f7       	brne	.-4      	; 0x1ca2 <_Z8uartReadcPchj+0x36>
    1ca6:	00 c0       	rjmp	.+0      	; 0x1ca8 <_Z8uartReadcPchj+0x3c>
    1ca8:	00 00       	nop
    1caa:	20 97       	sbiw	r28, 0x00	; 0
    1cac:	a1 f7       	brne	.-24     	; 0x1c96 <_Z8uartReadcPchj+0x2a>
    1cae:	18 c0       	rjmp	.+48     	; 0x1ce0 <_Z8uartReadcPchj+0x74>
    1cb0:	80 81       	ld	r24, Z
    1cb2:	8a 30       	cpi	r24, 0x0A	; 10
    1cb4:	69 f0       	breq	.+26     	; 0x1cd0 <_Z8uartReadcPchj+0x64>
    1cb6:	8d 30       	cpi	r24, 0x0D	; 13
    1cb8:	59 f0       	breq	.+22     	; 0x1cd0 <_Z8uartReadcPchj+0x64>
    1cba:	21 e0       	ldi	r18, 0x01	; 1
    1cbc:	29 0f       	add	r18, r25
    1cbe:	d7 01       	movw	r26, r14
    1cc0:	a9 0f       	add	r26, r25
    1cc2:	b1 1d       	adc	r27, r1
    1cc4:	8c 93       	st	X, r24
    1cc6:	20 17       	cp	r18, r16
    1cc8:	10 f0       	brcs	.+4      	; 0x1cce <_Z8uartReadcPchj+0x62>
    1cca:	90 e0       	ldi	r25, 0x00	; 0
    1ccc:	01 c0       	rjmp	.+2      	; 0x1cd0 <_Z8uartReadcPchj+0x64>
    1cce:	92 2f       	mov	r25, r18
    1cd0:	81 13       	cpse	r24, r17
    1cd2:	e1 cf       	rjmp	.-62     	; 0x1c96 <_Z8uartReadcPchj+0x2a>
    1cd4:	f7 01       	movw	r30, r14
    1cd6:	e9 0f       	add	r30, r25
    1cd8:	f1 1d       	adc	r31, r1
    1cda:	10 82       	st	Z, r1
    1cdc:	81 e0       	ldi	r24, 0x01	; 1
    1cde:	01 c0       	rjmp	.+2      	; 0x1ce2 <_Z8uartReadcPchj+0x76>
    1ce0:	80 e0       	ldi	r24, 0x00	; 0
    1ce2:	df 91       	pop	r29
    1ce4:	cf 91       	pop	r28
    1ce6:	1f 91       	pop	r17
    1ce8:	0f 91       	pop	r16
    1cea:	ff 90       	pop	r15
    1cec:	ef 90       	pop	r14
    1cee:	08 95       	ret

00001cf0 <_Z5printPKc>:
    1cf0:	fc 01       	movw	r30, r24
    1cf2:	20 81       	ld	r18, Z
    1cf4:	22 23       	and	r18, r18
    1cf6:	81 f0       	breq	.+32     	; 0x1d18 <_Z5printPKc+0x28>
    1cf8:	dc 01       	movw	r26, r24
    1cfa:	11 96       	adiw	r26, 0x01	; 1
    1cfc:	e0 e0       	ldi	r30, 0x00	; 0
    1cfe:	f8 e0       	ldi	r31, 0x08	; 8
    1d00:	94 81       	ldd	r25, Z+4	; 0x04
    1d02:	95 ff       	sbrs	r25, 5
    1d04:	fd cf       	rjmp	.-6      	; 0x1d00 <_Z5printPKc+0x10>
    1d06:	22 83       	std	Z+2, r18	; 0x02
    1d08:	2d 91       	ld	r18, X+
    1d0a:	21 11       	cpse	r18, r1
    1d0c:	f9 cf       	rjmp	.-14     	; 0x1d00 <_Z5printPKc+0x10>
    1d0e:	e0 e0       	ldi	r30, 0x00	; 0
    1d10:	f8 e0       	ldi	r31, 0x08	; 8
    1d12:	84 81       	ldd	r24, Z+4	; 0x04
    1d14:	85 ff       	sbrs	r24, 5
    1d16:	fd cf       	rjmp	.-6      	; 0x1d12 <_Z5printPKc+0x22>
    1d18:	08 95       	ret

00001d1a <_Z7printlnPKc>:
    1d1a:	0e 94 78 0e 	call	0x1cf0	; 0x1cf0 <_Z5printPKc>
    1d1e:	80 ef       	ldi	r24, 0xF0	; 240
    1d20:	96 ea       	ldi	r25, 0xA6	; 166
    1d22:	0e 94 78 0e 	call	0x1cf0	; 0x1cf0 <_Z5printPKc>
    1d26:	84 e1       	ldi	r24, 0x14	; 20
    1d28:	97 ea       	ldi	r25, 0xA7	; 167
    1d2a:	0e 94 78 0e 	call	0x1cf0	; 0x1cf0 <_Z5printPKc>
    1d2e:	08 95       	ret

00001d30 <_Z8printU32m>:
    1d30:	cf 92       	push	r12
    1d32:	df 92       	push	r13
    1d34:	ef 92       	push	r14
    1d36:	ff 92       	push	r15
    1d38:	6b 01       	movw	r12, r22
    1d3a:	7c 01       	movw	r14, r24
    1d3c:	8a e0       	ldi	r24, 0x0A	; 10
    1d3e:	c8 16       	cp	r12, r24
    1d40:	d1 04       	cpc	r13, r1
    1d42:	e1 04       	cpc	r14, r1
    1d44:	f1 04       	cpc	r15, r1
    1d46:	60 f0       	brcs	.+24     	; 0x1d60 <_Z8printU32m+0x30>
    1d48:	c7 01       	movw	r24, r14
    1d4a:	b6 01       	movw	r22, r12
    1d4c:	2a e0       	ldi	r18, 0x0A	; 10
    1d4e:	30 e0       	ldi	r19, 0x00	; 0
    1d50:	40 e0       	ldi	r20, 0x00	; 0
    1d52:	50 e0       	ldi	r21, 0x00	; 0
    1d54:	0e 94 2f 12 	call	0x245e	; 0x245e <__udivmodsi4>
    1d58:	ca 01       	movw	r24, r20
    1d5a:	b9 01       	movw	r22, r18
    1d5c:	0e 94 98 0e 	call	0x1d30	; 0x1d30 <_Z8printU32m>
    1d60:	c7 01       	movw	r24, r14
    1d62:	b6 01       	movw	r22, r12
    1d64:	2a e0       	ldi	r18, 0x0A	; 10
    1d66:	30 e0       	ldi	r19, 0x00	; 0
    1d68:	40 e0       	ldi	r20, 0x00	; 0
    1d6a:	50 e0       	ldi	r21, 0x00	; 0
    1d6c:	0e 94 2f 12 	call	0x245e	; 0x245e <__udivmodsi4>
    1d70:	e0 e0       	ldi	r30, 0x00	; 0
    1d72:	f8 e0       	ldi	r31, 0x08	; 8
    1d74:	84 81       	ldd	r24, Z+4	; 0x04
    1d76:	85 ff       	sbrs	r24, 5
    1d78:	fd cf       	rjmp	.-6      	; 0x1d74 <_Z8printU32m+0x44>
    1d7a:	60 5d       	subi	r22, 0xD0	; 208
    1d7c:	60 93 02 08 	sts	0x0802, r22	; 0x800802 <__RODATA_PM_OFFSET__+0x7f8802>
    1d80:	ff 90       	pop	r15
    1d82:	ef 90       	pop	r14
    1d84:	df 90       	pop	r13
    1d86:	cf 90       	pop	r12
    1d88:	08 95       	ret

00001d8a <_Z14printByteAsHexh>:
}

void printByteAsHex(uint8_t src) {
    1d8a:	cf 93       	push	r28
    1d8c:	df 93       	push	r29
    1d8e:	cd b7       	in	r28, 0x3d	; 61
    1d90:	de b7       	in	r29, 0x3e	; 62
    1d92:	64 97       	sbiw	r28, 0x14	; 20
    1d94:	cd bf       	out	0x3d, r28	; 61
    1d96:	de bf       	out	0x3e, r29	; 62
	char lookUp[] = "0123456789abcdef";
    1d98:	91 e1       	ldi	r25, 0x11	; 17
    1d9a:	ee e4       	ldi	r30, 0x4E	; 78
    1d9c:	f7 ea       	ldi	r31, 0xA7	; 167
    1d9e:	de 01       	movw	r26, r28
    1da0:	11 96       	adiw	r26, 0x01	; 1
    1da2:	01 90       	ld	r0, Z+
    1da4:	0d 92       	st	X+, r0
    1da6:	9a 95       	dec	r25
    1da8:	e1 f7       	brne	.-8      	; 0x1da2 <_Z14printByteAsHexh+0x18>
	char out[3];
	out[0] = lookUp[src >> 4];
    1daa:	e8 2f       	mov	r30, r24
    1dac:	f0 e0       	ldi	r31, 0x00	; 0
    1dae:	f5 95       	asr	r31
    1db0:	e7 95       	ror	r30
    1db2:	f5 95       	asr	r31
    1db4:	e7 95       	ror	r30
    1db6:	f5 95       	asr	r31
    1db8:	e7 95       	ror	r30
    1dba:	f5 95       	asr	r31
    1dbc:	e7 95       	ror	r30
    1dbe:	21 e0       	ldi	r18, 0x01	; 1
    1dc0:	30 e0       	ldi	r19, 0x00	; 0
    1dc2:	2c 0f       	add	r18, r28
    1dc4:	3d 1f       	adc	r19, r29
    1dc6:	e2 0f       	add	r30, r18
    1dc8:	f3 1f       	adc	r31, r19
    1dca:	90 81       	ld	r25, Z
    1dcc:	9a 8b       	std	Y+18, r25	; 0x12
	out[1] = lookUp[src & 0x0F];
    1dce:	8f 70       	andi	r24, 0x0F	; 15
    1dd0:	f9 01       	movw	r30, r18
    1dd2:	e8 0f       	add	r30, r24
    1dd4:	f1 1d       	adc	r31, r1
    1dd6:	80 81       	ld	r24, Z
    1dd8:	8b 8b       	std	Y+19, r24	; 0x13
	out[2] = 0;
    1dda:	1c 8a       	std	Y+20, r1	; 0x14
	print(out);
    1ddc:	ce 01       	movw	r24, r28
    1dde:	42 96       	adiw	r24, 0x12	; 18
    1de0:	0e 94 78 0e 	call	0x1cf0	; 0x1cf0 <_Z5printPKc>
    1de4:	64 96       	adiw	r28, 0x14	; 20
    1de6:	cd bf       	out	0x3d, r28	; 61
    1de8:	de bf       	out	0x3e, r29	; 62
    1dea:	df 91       	pop	r29
    1dec:	cf 91       	pop	r28
    1dee:	08 95       	ret

00001df0 <__subsf3>:
    1df0:	50 58       	subi	r21, 0x80	; 128

00001df2 <__addsf3>:
    1df2:	bb 27       	eor	r27, r27
    1df4:	aa 27       	eor	r26, r26
    1df6:	0e 94 10 0f 	call	0x1e20	; 0x1e20 <__addsf3x>
    1dfa:	0c 94 18 11 	jmp	0x2230	; 0x2230 <__fp_round>
    1dfe:	0e 94 0a 11 	call	0x2214	; 0x2214 <__fp_pscA>
    1e02:	38 f0       	brcs	.+14     	; 0x1e12 <__addsf3+0x20>
    1e04:	0e 94 11 11 	call	0x2222	; 0x2222 <__fp_pscB>
    1e08:	20 f0       	brcs	.+8      	; 0x1e12 <__addsf3+0x20>
    1e0a:	39 f4       	brne	.+14     	; 0x1e1a <__addsf3+0x28>
    1e0c:	9f 3f       	cpi	r25, 0xFF	; 255
    1e0e:	19 f4       	brne	.+6      	; 0x1e16 <__addsf3+0x24>
    1e10:	26 f4       	brtc	.+8      	; 0x1e1a <__addsf3+0x28>
    1e12:	0c 94 e0 10 	jmp	0x21c0	; 0x21c0 <__fp_nan>
    1e16:	0e f4       	brtc	.+2      	; 0x1e1a <__addsf3+0x28>
    1e18:	e0 95       	com	r30
    1e1a:	e7 fb       	bst	r30, 7
    1e1c:	0c 94 da 10 	jmp	0x21b4	; 0x21b4 <__fp_inf>

00001e20 <__addsf3x>:
    1e20:	e9 2f       	mov	r30, r25
    1e22:	0e 94 29 11 	call	0x2252	; 0x2252 <__fp_split3>
    1e26:	58 f3       	brcs	.-42     	; 0x1dfe <__addsf3+0xc>
    1e28:	ba 17       	cp	r27, r26
    1e2a:	62 07       	cpc	r22, r18
    1e2c:	73 07       	cpc	r23, r19
    1e2e:	84 07       	cpc	r24, r20
    1e30:	95 07       	cpc	r25, r21
    1e32:	20 f0       	brcs	.+8      	; 0x1e3c <__addsf3x+0x1c>
    1e34:	79 f4       	brne	.+30     	; 0x1e54 <__addsf3x+0x34>
    1e36:	a6 f5       	brtc	.+104    	; 0x1ea0 <__addsf3x+0x80>
    1e38:	0c 94 4b 11 	jmp	0x2296	; 0x2296 <__fp_zero>
    1e3c:	0e f4       	brtc	.+2      	; 0x1e40 <__addsf3x+0x20>
    1e3e:	e0 95       	com	r30
    1e40:	0b 2e       	mov	r0, r27
    1e42:	ba 2f       	mov	r27, r26
    1e44:	a0 2d       	mov	r26, r0
    1e46:	0b 01       	movw	r0, r22
    1e48:	b9 01       	movw	r22, r18
    1e4a:	90 01       	movw	r18, r0
    1e4c:	0c 01       	movw	r0, r24
    1e4e:	ca 01       	movw	r24, r20
    1e50:	a0 01       	movw	r20, r0
    1e52:	11 24       	eor	r1, r1
    1e54:	ff 27       	eor	r31, r31
    1e56:	59 1b       	sub	r21, r25
    1e58:	99 f0       	breq	.+38     	; 0x1e80 <__addsf3x+0x60>
    1e5a:	59 3f       	cpi	r21, 0xF9	; 249
    1e5c:	50 f4       	brcc	.+20     	; 0x1e72 <__addsf3x+0x52>
    1e5e:	50 3e       	cpi	r21, 0xE0	; 224
    1e60:	68 f1       	brcs	.+90     	; 0x1ebc <__addsf3x+0x9c>
    1e62:	1a 16       	cp	r1, r26
    1e64:	f0 40       	sbci	r31, 0x00	; 0
    1e66:	a2 2f       	mov	r26, r18
    1e68:	23 2f       	mov	r18, r19
    1e6a:	34 2f       	mov	r19, r20
    1e6c:	44 27       	eor	r20, r20
    1e6e:	58 5f       	subi	r21, 0xF8	; 248
    1e70:	f3 cf       	rjmp	.-26     	; 0x1e58 <__addsf3x+0x38>
    1e72:	46 95       	lsr	r20
    1e74:	37 95       	ror	r19
    1e76:	27 95       	ror	r18
    1e78:	a7 95       	ror	r26
    1e7a:	f0 40       	sbci	r31, 0x00	; 0
    1e7c:	53 95       	inc	r21
    1e7e:	c9 f7       	brne	.-14     	; 0x1e72 <__addsf3x+0x52>
    1e80:	7e f4       	brtc	.+30     	; 0x1ea0 <__addsf3x+0x80>
    1e82:	1f 16       	cp	r1, r31
    1e84:	ba 0b       	sbc	r27, r26
    1e86:	62 0b       	sbc	r22, r18
    1e88:	73 0b       	sbc	r23, r19
    1e8a:	84 0b       	sbc	r24, r20
    1e8c:	ba f0       	brmi	.+46     	; 0x1ebc <__addsf3x+0x9c>
    1e8e:	91 50       	subi	r25, 0x01	; 1
    1e90:	a1 f0       	breq	.+40     	; 0x1eba <__addsf3x+0x9a>
    1e92:	ff 0f       	add	r31, r31
    1e94:	bb 1f       	adc	r27, r27
    1e96:	66 1f       	adc	r22, r22
    1e98:	77 1f       	adc	r23, r23
    1e9a:	88 1f       	adc	r24, r24
    1e9c:	c2 f7       	brpl	.-16     	; 0x1e8e <__addsf3x+0x6e>
    1e9e:	0e c0       	rjmp	.+28     	; 0x1ebc <__addsf3x+0x9c>
    1ea0:	ba 0f       	add	r27, r26
    1ea2:	62 1f       	adc	r22, r18
    1ea4:	73 1f       	adc	r23, r19
    1ea6:	84 1f       	adc	r24, r20
    1ea8:	48 f4       	brcc	.+18     	; 0x1ebc <__addsf3x+0x9c>
    1eaa:	87 95       	ror	r24
    1eac:	77 95       	ror	r23
    1eae:	67 95       	ror	r22
    1eb0:	b7 95       	ror	r27
    1eb2:	f7 95       	ror	r31
    1eb4:	9e 3f       	cpi	r25, 0xFE	; 254
    1eb6:	08 f0       	brcs	.+2      	; 0x1eba <__addsf3x+0x9a>
    1eb8:	b0 cf       	rjmp	.-160    	; 0x1e1a <__addsf3+0x28>
    1eba:	93 95       	inc	r25
    1ebc:	88 0f       	add	r24, r24
    1ebe:	08 f0       	brcs	.+2      	; 0x1ec2 <__addsf3x+0xa2>
    1ec0:	99 27       	eor	r25, r25
    1ec2:	ee 0f       	add	r30, r30
    1ec4:	97 95       	ror	r25
    1ec6:	87 95       	ror	r24
    1ec8:	08 95       	ret
    1eca:	0e 94 0a 11 	call	0x2214	; 0x2214 <__fp_pscA>
    1ece:	60 f0       	brcs	.+24     	; 0x1ee8 <__addsf3x+0xc8>
    1ed0:	80 e8       	ldi	r24, 0x80	; 128
    1ed2:	91 e0       	ldi	r25, 0x01	; 1
    1ed4:	09 f4       	brne	.+2      	; 0x1ed8 <__addsf3x+0xb8>
    1ed6:	9e ef       	ldi	r25, 0xFE	; 254
    1ed8:	0e 94 11 11 	call	0x2222	; 0x2222 <__fp_pscB>
    1edc:	28 f0       	brcs	.+10     	; 0x1ee8 <__addsf3x+0xc8>
    1ede:	40 e8       	ldi	r20, 0x80	; 128
    1ee0:	51 e0       	ldi	r21, 0x01	; 1
    1ee2:	71 f4       	brne	.+28     	; 0x1f00 <atan2+0x10>
    1ee4:	5e ef       	ldi	r21, 0xFE	; 254
    1ee6:	0c c0       	rjmp	.+24     	; 0x1f00 <atan2+0x10>
    1ee8:	0c 94 e0 10 	jmp	0x21c0	; 0x21c0 <__fp_nan>
    1eec:	0c 94 4b 11 	jmp	0x2296	; 0x2296 <__fp_zero>

00001ef0 <atan2>:
    1ef0:	e9 2f       	mov	r30, r25
    1ef2:	e0 78       	andi	r30, 0x80	; 128
    1ef4:	0e 94 29 11 	call	0x2252	; 0x2252 <__fp_split3>
    1ef8:	40 f3       	brcs	.-48     	; 0x1eca <__addsf3x+0xaa>
    1efa:	09 2e       	mov	r0, r25
    1efc:	05 2a       	or	r0, r21
    1efe:	b1 f3       	breq	.-20     	; 0x1eec <__addsf3x+0xcc>
    1f00:	26 17       	cp	r18, r22
    1f02:	37 07       	cpc	r19, r23
    1f04:	48 07       	cpc	r20, r24
    1f06:	59 07       	cpc	r21, r25
    1f08:	38 f0       	brcs	.+14     	; 0x1f18 <atan2+0x28>
    1f0a:	0e 2e       	mov	r0, r30
    1f0c:	07 f8       	bld	r0, 7
    1f0e:	e0 25       	eor	r30, r0
    1f10:	69 f0       	breq	.+26     	; 0x1f2c <atan2+0x3c>
    1f12:	e0 25       	eor	r30, r0
    1f14:	e0 64       	ori	r30, 0x40	; 64
    1f16:	0a c0       	rjmp	.+20     	; 0x1f2c <atan2+0x3c>
    1f18:	ef 63       	ori	r30, 0x3F	; 63
    1f1a:	07 f8       	bld	r0, 7
    1f1c:	00 94       	com	r0
    1f1e:	07 fa       	bst	r0, 7
    1f20:	db 01       	movw	r26, r22
    1f22:	b9 01       	movw	r22, r18
    1f24:	9d 01       	movw	r18, r26
    1f26:	dc 01       	movw	r26, r24
    1f28:	ca 01       	movw	r24, r20
    1f2a:	ad 01       	movw	r20, r26
    1f2c:	ef 93       	push	r30
    1f2e:	0e 94 ef 0f 	call	0x1fde	; 0x1fde <__divsf3_pse>
    1f32:	0e 94 18 11 	call	0x2230	; 0x2230 <__fp_round>
    1f36:	0e 94 a8 0f 	call	0x1f50	; 0x1f50 <atan>
    1f3a:	5f 91       	pop	r21
    1f3c:	55 23       	and	r21, r21
    1f3e:	39 f0       	breq	.+14     	; 0x1f4e <atan2+0x5e>
    1f40:	2b ed       	ldi	r18, 0xDB	; 219
    1f42:	3f e0       	ldi	r19, 0x0F	; 15
    1f44:	49 e4       	ldi	r20, 0x49	; 73
    1f46:	50 fd       	sbrc	r21, 0
    1f48:	49 ec       	ldi	r20, 0xC9	; 201
    1f4a:	0c 94 f9 0e 	jmp	0x1df2	; 0x1df2 <__addsf3>
    1f4e:	08 95       	ret

00001f50 <atan>:
    1f50:	df 93       	push	r29
    1f52:	dd 27       	eor	r29, r29
    1f54:	b9 2f       	mov	r27, r25
    1f56:	bf 77       	andi	r27, 0x7F	; 127
    1f58:	40 e8       	ldi	r20, 0x80	; 128
    1f5a:	5f e3       	ldi	r21, 0x3F	; 63
    1f5c:	16 16       	cp	r1, r22
    1f5e:	17 06       	cpc	r1, r23
    1f60:	48 07       	cpc	r20, r24
    1f62:	5b 07       	cpc	r21, r27
    1f64:	18 f4       	brcc	.+6      	; 0x1f6c <atan+0x1c>
    1f66:	d9 2f       	mov	r29, r25
    1f68:	0e 94 57 11 	call	0x22ae	; 0x22ae <inverse>
    1f6c:	9f 93       	push	r25
    1f6e:	8f 93       	push	r24
    1f70:	7f 93       	push	r23
    1f72:	6f 93       	push	r22
    1f74:	0e 94 12 12 	call	0x2424	; 0x2424 <square>
    1f78:	e8 e7       	ldi	r30, 0x78	; 120
    1f7a:	f0 e0       	ldi	r31, 0x00	; 0
    1f7c:	0e 94 e3 10 	call	0x21c6	; 0x21c6 <__fp_powser>
    1f80:	0e 94 18 11 	call	0x2230	; 0x2230 <__fp_round>
    1f84:	2f 91       	pop	r18
    1f86:	3f 91       	pop	r19
    1f88:	4f 91       	pop	r20
    1f8a:	5f 91       	pop	r21
    1f8c:	0e 94 72 11 	call	0x22e4	; 0x22e4 <__mulsf3x>
    1f90:	dd 23       	and	r29, r29
    1f92:	51 f0       	breq	.+20     	; 0x1fa8 <atan+0x58>
    1f94:	90 58       	subi	r25, 0x80	; 128
    1f96:	a2 ea       	ldi	r26, 0xA2	; 162
    1f98:	2a ed       	ldi	r18, 0xDA	; 218
    1f9a:	3f e0       	ldi	r19, 0x0F	; 15
    1f9c:	49 ec       	ldi	r20, 0xC9	; 201
    1f9e:	5f e3       	ldi	r21, 0x3F	; 63
    1fa0:	d0 78       	andi	r29, 0x80	; 128
    1fa2:	5d 27       	eor	r21, r29
    1fa4:	0e 94 10 0f 	call	0x1e20	; 0x1e20 <__addsf3x>
    1fa8:	df 91       	pop	r29
    1faa:	0c 94 18 11 	jmp	0x2230	; 0x2230 <__fp_round>

00001fae <__cmpsf2>:
    1fae:	0e 94 b6 10 	call	0x216c	; 0x216c <__fp_cmp>
    1fb2:	08 f4       	brcc	.+2      	; 0x1fb6 <__cmpsf2+0x8>
    1fb4:	81 e0       	ldi	r24, 0x01	; 1
    1fb6:	08 95       	ret
    1fb8:	0e 94 11 11 	call	0x2222	; 0x2222 <__fp_pscB>
    1fbc:	58 f0       	brcs	.+22     	; 0x1fd4 <__cmpsf2+0x26>
    1fbe:	0e 94 0a 11 	call	0x2214	; 0x2214 <__fp_pscA>
    1fc2:	40 f0       	brcs	.+16     	; 0x1fd4 <__cmpsf2+0x26>
    1fc4:	29 f4       	brne	.+10     	; 0x1fd0 <__cmpsf2+0x22>
    1fc6:	5f 3f       	cpi	r21, 0xFF	; 255
    1fc8:	29 f0       	breq	.+10     	; 0x1fd4 <__cmpsf2+0x26>
    1fca:	0c 94 da 10 	jmp	0x21b4	; 0x21b4 <__fp_inf>
    1fce:	51 11       	cpse	r21, r1
    1fd0:	0c 94 4c 11 	jmp	0x2298	; 0x2298 <__fp_szero>
    1fd4:	0c 94 e0 10 	jmp	0x21c0	; 0x21c0 <__fp_nan>

00001fd8 <__divsf3x>:
    1fd8:	0e 94 29 11 	call	0x2252	; 0x2252 <__fp_split3>
    1fdc:	68 f3       	brcs	.-38     	; 0x1fb8 <__cmpsf2+0xa>

00001fde <__divsf3_pse>:
    1fde:	99 23       	and	r25, r25
    1fe0:	b1 f3       	breq	.-20     	; 0x1fce <__cmpsf2+0x20>
    1fe2:	55 23       	and	r21, r21
    1fe4:	91 f3       	breq	.-28     	; 0x1fca <__cmpsf2+0x1c>
    1fe6:	95 1b       	sub	r25, r21
    1fe8:	55 0b       	sbc	r21, r21
    1fea:	bb 27       	eor	r27, r27
    1fec:	aa 27       	eor	r26, r26
    1fee:	62 17       	cp	r22, r18
    1ff0:	73 07       	cpc	r23, r19
    1ff2:	84 07       	cpc	r24, r20
    1ff4:	38 f0       	brcs	.+14     	; 0x2004 <__divsf3_pse+0x26>
    1ff6:	9f 5f       	subi	r25, 0xFF	; 255
    1ff8:	5f 4f       	sbci	r21, 0xFF	; 255
    1ffa:	22 0f       	add	r18, r18
    1ffc:	33 1f       	adc	r19, r19
    1ffe:	44 1f       	adc	r20, r20
    2000:	aa 1f       	adc	r26, r26
    2002:	a9 f3       	breq	.-22     	; 0x1fee <__divsf3_pse+0x10>
    2004:	35 d0       	rcall	.+106    	; 0x2070 <__divsf3_pse+0x92>
    2006:	0e 2e       	mov	r0, r30
    2008:	3a f0       	brmi	.+14     	; 0x2018 <__divsf3_pse+0x3a>
    200a:	e0 e8       	ldi	r30, 0x80	; 128
    200c:	32 d0       	rcall	.+100    	; 0x2072 <__divsf3_pse+0x94>
    200e:	91 50       	subi	r25, 0x01	; 1
    2010:	50 40       	sbci	r21, 0x00	; 0
    2012:	e6 95       	lsr	r30
    2014:	00 1c       	adc	r0, r0
    2016:	ca f7       	brpl	.-14     	; 0x200a <__divsf3_pse+0x2c>
    2018:	2b d0       	rcall	.+86     	; 0x2070 <__divsf3_pse+0x92>
    201a:	fe 2f       	mov	r31, r30
    201c:	29 d0       	rcall	.+82     	; 0x2070 <__divsf3_pse+0x92>
    201e:	66 0f       	add	r22, r22
    2020:	77 1f       	adc	r23, r23
    2022:	88 1f       	adc	r24, r24
    2024:	bb 1f       	adc	r27, r27
    2026:	26 17       	cp	r18, r22
    2028:	37 07       	cpc	r19, r23
    202a:	48 07       	cpc	r20, r24
    202c:	ab 07       	cpc	r26, r27
    202e:	b0 e8       	ldi	r27, 0x80	; 128
    2030:	09 f0       	breq	.+2      	; 0x2034 <__divsf3_pse+0x56>
    2032:	bb 0b       	sbc	r27, r27
    2034:	80 2d       	mov	r24, r0
    2036:	bf 01       	movw	r22, r30
    2038:	ff 27       	eor	r31, r31
    203a:	93 58       	subi	r25, 0x83	; 131
    203c:	5f 4f       	sbci	r21, 0xFF	; 255
    203e:	3a f0       	brmi	.+14     	; 0x204e <__divsf3_pse+0x70>
    2040:	9e 3f       	cpi	r25, 0xFE	; 254
    2042:	51 05       	cpc	r21, r1
    2044:	78 f0       	brcs	.+30     	; 0x2064 <__divsf3_pse+0x86>
    2046:	0c 94 da 10 	jmp	0x21b4	; 0x21b4 <__fp_inf>
    204a:	0c 94 4c 11 	jmp	0x2298	; 0x2298 <__fp_szero>
    204e:	5f 3f       	cpi	r21, 0xFF	; 255
    2050:	e4 f3       	brlt	.-8      	; 0x204a <__divsf3_pse+0x6c>
    2052:	98 3e       	cpi	r25, 0xE8	; 232
    2054:	d4 f3       	brlt	.-12     	; 0x204a <__divsf3_pse+0x6c>
    2056:	86 95       	lsr	r24
    2058:	77 95       	ror	r23
    205a:	67 95       	ror	r22
    205c:	b7 95       	ror	r27
    205e:	f7 95       	ror	r31
    2060:	9f 5f       	subi	r25, 0xFF	; 255
    2062:	c9 f7       	brne	.-14     	; 0x2056 <__divsf3_pse+0x78>
    2064:	88 0f       	add	r24, r24
    2066:	91 1d       	adc	r25, r1
    2068:	96 95       	lsr	r25
    206a:	87 95       	ror	r24
    206c:	97 f9       	bld	r25, 7
    206e:	08 95       	ret
    2070:	e1 e0       	ldi	r30, 0x01	; 1
    2072:	66 0f       	add	r22, r22
    2074:	77 1f       	adc	r23, r23
    2076:	88 1f       	adc	r24, r24
    2078:	bb 1f       	adc	r27, r27
    207a:	62 17       	cp	r22, r18
    207c:	73 07       	cpc	r23, r19
    207e:	84 07       	cpc	r24, r20
    2080:	ba 07       	cpc	r27, r26
    2082:	20 f0       	brcs	.+8      	; 0x208c <__divsf3_pse+0xae>
    2084:	62 1b       	sub	r22, r18
    2086:	73 0b       	sbc	r23, r19
    2088:	84 0b       	sbc	r24, r20
    208a:	ba 0b       	sbc	r27, r26
    208c:	ee 1f       	adc	r30, r30
    208e:	88 f7       	brcc	.-30     	; 0x2072 <__divsf3_pse+0x94>
    2090:	e0 95       	com	r30
    2092:	08 95       	ret

00002094 <__fixunssfsi>:
    2094:	0e 94 31 11 	call	0x2262	; 0x2262 <__fp_splitA>
    2098:	88 f0       	brcs	.+34     	; 0x20bc <__fixunssfsi+0x28>
    209a:	9f 57       	subi	r25, 0x7F	; 127
    209c:	98 f0       	brcs	.+38     	; 0x20c4 <__fixunssfsi+0x30>
    209e:	b9 2f       	mov	r27, r25
    20a0:	99 27       	eor	r25, r25
    20a2:	b7 51       	subi	r27, 0x17	; 23
    20a4:	b0 f0       	brcs	.+44     	; 0x20d2 <__fixunssfsi+0x3e>
    20a6:	e1 f0       	breq	.+56     	; 0x20e0 <__fixunssfsi+0x4c>
    20a8:	66 0f       	add	r22, r22
    20aa:	77 1f       	adc	r23, r23
    20ac:	88 1f       	adc	r24, r24
    20ae:	99 1f       	adc	r25, r25
    20b0:	1a f0       	brmi	.+6      	; 0x20b8 <__fixunssfsi+0x24>
    20b2:	ba 95       	dec	r27
    20b4:	c9 f7       	brne	.-14     	; 0x20a8 <__fixunssfsi+0x14>
    20b6:	14 c0       	rjmp	.+40     	; 0x20e0 <__fixunssfsi+0x4c>
    20b8:	b1 30       	cpi	r27, 0x01	; 1
    20ba:	91 f0       	breq	.+36     	; 0x20e0 <__fixunssfsi+0x4c>
    20bc:	0e 94 4b 11 	call	0x2296	; 0x2296 <__fp_zero>
    20c0:	b1 e0       	ldi	r27, 0x01	; 1
    20c2:	08 95       	ret
    20c4:	0c 94 4b 11 	jmp	0x2296	; 0x2296 <__fp_zero>
    20c8:	67 2f       	mov	r22, r23
    20ca:	78 2f       	mov	r23, r24
    20cc:	88 27       	eor	r24, r24
    20ce:	b8 5f       	subi	r27, 0xF8	; 248
    20d0:	39 f0       	breq	.+14     	; 0x20e0 <__fixunssfsi+0x4c>
    20d2:	b9 3f       	cpi	r27, 0xF9	; 249
    20d4:	cc f3       	brlt	.-14     	; 0x20c8 <__fixunssfsi+0x34>
    20d6:	86 95       	lsr	r24
    20d8:	77 95       	ror	r23
    20da:	67 95       	ror	r22
    20dc:	b3 95       	inc	r27
    20de:	d9 f7       	brne	.-10     	; 0x20d6 <__fixunssfsi+0x42>
    20e0:	3e f4       	brtc	.+14     	; 0x20f0 <__fixunssfsi+0x5c>
    20e2:	90 95       	com	r25
    20e4:	80 95       	com	r24
    20e6:	70 95       	com	r23
    20e8:	61 95       	neg	r22
    20ea:	7f 4f       	sbci	r23, 0xFF	; 255
    20ec:	8f 4f       	sbci	r24, 0xFF	; 255
    20ee:	9f 4f       	sbci	r25, 0xFF	; 255
    20f0:	08 95       	ret

000020f2 <__floatunsisf>:
    20f2:	e8 94       	clt
    20f4:	09 c0       	rjmp	.+18     	; 0x2108 <__floatsisf+0x12>

000020f6 <__floatsisf>:
    20f6:	97 fb       	bst	r25, 7
    20f8:	3e f4       	brtc	.+14     	; 0x2108 <__floatsisf+0x12>
    20fa:	90 95       	com	r25
    20fc:	80 95       	com	r24
    20fe:	70 95       	com	r23
    2100:	61 95       	neg	r22
    2102:	7f 4f       	sbci	r23, 0xFF	; 255
    2104:	8f 4f       	sbci	r24, 0xFF	; 255
    2106:	9f 4f       	sbci	r25, 0xFF	; 255
    2108:	99 23       	and	r25, r25
    210a:	a9 f0       	breq	.+42     	; 0x2136 <__floatsisf+0x40>
    210c:	f9 2f       	mov	r31, r25
    210e:	96 e9       	ldi	r25, 0x96	; 150
    2110:	bb 27       	eor	r27, r27
    2112:	93 95       	inc	r25
    2114:	f6 95       	lsr	r31
    2116:	87 95       	ror	r24
    2118:	77 95       	ror	r23
    211a:	67 95       	ror	r22
    211c:	b7 95       	ror	r27
    211e:	f1 11       	cpse	r31, r1
    2120:	f8 cf       	rjmp	.-16     	; 0x2112 <__floatsisf+0x1c>
    2122:	fa f4       	brpl	.+62     	; 0x2162 <__floatsisf+0x6c>
    2124:	bb 0f       	add	r27, r27
    2126:	11 f4       	brne	.+4      	; 0x212c <__floatsisf+0x36>
    2128:	60 ff       	sbrs	r22, 0
    212a:	1b c0       	rjmp	.+54     	; 0x2162 <__floatsisf+0x6c>
    212c:	6f 5f       	subi	r22, 0xFF	; 255
    212e:	7f 4f       	sbci	r23, 0xFF	; 255
    2130:	8f 4f       	sbci	r24, 0xFF	; 255
    2132:	9f 4f       	sbci	r25, 0xFF	; 255
    2134:	16 c0       	rjmp	.+44     	; 0x2162 <__floatsisf+0x6c>
    2136:	88 23       	and	r24, r24
    2138:	11 f0       	breq	.+4      	; 0x213e <__floatsisf+0x48>
    213a:	96 e9       	ldi	r25, 0x96	; 150
    213c:	11 c0       	rjmp	.+34     	; 0x2160 <__floatsisf+0x6a>
    213e:	77 23       	and	r23, r23
    2140:	21 f0       	breq	.+8      	; 0x214a <__floatsisf+0x54>
    2142:	9e e8       	ldi	r25, 0x8E	; 142
    2144:	87 2f       	mov	r24, r23
    2146:	76 2f       	mov	r23, r22
    2148:	05 c0       	rjmp	.+10     	; 0x2154 <__floatsisf+0x5e>
    214a:	66 23       	and	r22, r22
    214c:	71 f0       	breq	.+28     	; 0x216a <__floatsisf+0x74>
    214e:	96 e8       	ldi	r25, 0x86	; 134
    2150:	86 2f       	mov	r24, r22
    2152:	70 e0       	ldi	r23, 0x00	; 0
    2154:	60 e0       	ldi	r22, 0x00	; 0
    2156:	2a f0       	brmi	.+10     	; 0x2162 <__floatsisf+0x6c>
    2158:	9a 95       	dec	r25
    215a:	66 0f       	add	r22, r22
    215c:	77 1f       	adc	r23, r23
    215e:	88 1f       	adc	r24, r24
    2160:	da f7       	brpl	.-10     	; 0x2158 <__floatsisf+0x62>
    2162:	88 0f       	add	r24, r24
    2164:	96 95       	lsr	r25
    2166:	87 95       	ror	r24
    2168:	97 f9       	bld	r25, 7
    216a:	08 95       	ret

0000216c <__fp_cmp>:
    216c:	99 0f       	add	r25, r25
    216e:	00 08       	sbc	r0, r0
    2170:	55 0f       	add	r21, r21
    2172:	aa 0b       	sbc	r26, r26
    2174:	e0 e8       	ldi	r30, 0x80	; 128
    2176:	fe ef       	ldi	r31, 0xFE	; 254
    2178:	16 16       	cp	r1, r22
    217a:	17 06       	cpc	r1, r23
    217c:	e8 07       	cpc	r30, r24
    217e:	f9 07       	cpc	r31, r25
    2180:	c0 f0       	brcs	.+48     	; 0x21b2 <__fp_cmp+0x46>
    2182:	12 16       	cp	r1, r18
    2184:	13 06       	cpc	r1, r19
    2186:	e4 07       	cpc	r30, r20
    2188:	f5 07       	cpc	r31, r21
    218a:	98 f0       	brcs	.+38     	; 0x21b2 <__fp_cmp+0x46>
    218c:	62 1b       	sub	r22, r18
    218e:	73 0b       	sbc	r23, r19
    2190:	84 0b       	sbc	r24, r20
    2192:	95 0b       	sbc	r25, r21
    2194:	39 f4       	brne	.+14     	; 0x21a4 <__fp_cmp+0x38>
    2196:	0a 26       	eor	r0, r26
    2198:	61 f0       	breq	.+24     	; 0x21b2 <__fp_cmp+0x46>
    219a:	23 2b       	or	r18, r19
    219c:	24 2b       	or	r18, r20
    219e:	25 2b       	or	r18, r21
    21a0:	21 f4       	brne	.+8      	; 0x21aa <__fp_cmp+0x3e>
    21a2:	08 95       	ret
    21a4:	0a 26       	eor	r0, r26
    21a6:	09 f4       	brne	.+2      	; 0x21aa <__fp_cmp+0x3e>
    21a8:	a1 40       	sbci	r26, 0x01	; 1
    21aa:	a6 95       	lsr	r26
    21ac:	8f ef       	ldi	r24, 0xFF	; 255
    21ae:	81 1d       	adc	r24, r1
    21b0:	81 1d       	adc	r24, r1
    21b2:	08 95       	ret

000021b4 <__fp_inf>:
    21b4:	97 f9       	bld	r25, 7
    21b6:	9f 67       	ori	r25, 0x7F	; 127
    21b8:	80 e8       	ldi	r24, 0x80	; 128
    21ba:	70 e0       	ldi	r23, 0x00	; 0
    21bc:	60 e0       	ldi	r22, 0x00	; 0
    21be:	08 95       	ret

000021c0 <__fp_nan>:
    21c0:	9f ef       	ldi	r25, 0xFF	; 255
    21c2:	80 ec       	ldi	r24, 0xC0	; 192
    21c4:	08 95       	ret

000021c6 <__fp_powser>:
    21c6:	df 93       	push	r29
    21c8:	cf 93       	push	r28
    21ca:	1f 93       	push	r17
    21cc:	0f 93       	push	r16
    21ce:	ff 92       	push	r15
    21d0:	ef 92       	push	r14
    21d2:	df 92       	push	r13
    21d4:	7b 01       	movw	r14, r22
    21d6:	8c 01       	movw	r16, r24
    21d8:	68 94       	set
    21da:	06 c0       	rjmp	.+12     	; 0x21e8 <__fp_powser+0x22>
    21dc:	da 2e       	mov	r13, r26
    21de:	ef 01       	movw	r28, r30
    21e0:	0e 94 72 11 	call	0x22e4	; 0x22e4 <__mulsf3x>
    21e4:	fe 01       	movw	r30, r28
    21e6:	e8 94       	clt
    21e8:	a5 91       	lpm	r26, Z+
    21ea:	25 91       	lpm	r18, Z+
    21ec:	35 91       	lpm	r19, Z+
    21ee:	45 91       	lpm	r20, Z+
    21f0:	55 91       	lpm	r21, Z+
    21f2:	a6 f3       	brts	.-24     	; 0x21dc <__fp_powser+0x16>
    21f4:	ef 01       	movw	r28, r30
    21f6:	0e 94 10 0f 	call	0x1e20	; 0x1e20 <__addsf3x>
    21fa:	fe 01       	movw	r30, r28
    21fc:	97 01       	movw	r18, r14
    21fe:	a8 01       	movw	r20, r16
    2200:	da 94       	dec	r13
    2202:	69 f7       	brne	.-38     	; 0x21de <__fp_powser+0x18>
    2204:	df 90       	pop	r13
    2206:	ef 90       	pop	r14
    2208:	ff 90       	pop	r15
    220a:	0f 91       	pop	r16
    220c:	1f 91       	pop	r17
    220e:	cf 91       	pop	r28
    2210:	df 91       	pop	r29
    2212:	08 95       	ret

00002214 <__fp_pscA>:
    2214:	00 24       	eor	r0, r0
    2216:	0a 94       	dec	r0
    2218:	16 16       	cp	r1, r22
    221a:	17 06       	cpc	r1, r23
    221c:	18 06       	cpc	r1, r24
    221e:	09 06       	cpc	r0, r25
    2220:	08 95       	ret

00002222 <__fp_pscB>:
    2222:	00 24       	eor	r0, r0
    2224:	0a 94       	dec	r0
    2226:	12 16       	cp	r1, r18
    2228:	13 06       	cpc	r1, r19
    222a:	14 06       	cpc	r1, r20
    222c:	05 06       	cpc	r0, r21
    222e:	08 95       	ret

00002230 <__fp_round>:
    2230:	09 2e       	mov	r0, r25
    2232:	03 94       	inc	r0
    2234:	00 0c       	add	r0, r0
    2236:	11 f4       	brne	.+4      	; 0x223c <__fp_round+0xc>
    2238:	88 23       	and	r24, r24
    223a:	52 f0       	brmi	.+20     	; 0x2250 <__fp_round+0x20>
    223c:	bb 0f       	add	r27, r27
    223e:	40 f4       	brcc	.+16     	; 0x2250 <__fp_round+0x20>
    2240:	bf 2b       	or	r27, r31
    2242:	11 f4       	brne	.+4      	; 0x2248 <__fp_round+0x18>
    2244:	60 ff       	sbrs	r22, 0
    2246:	04 c0       	rjmp	.+8      	; 0x2250 <__fp_round+0x20>
    2248:	6f 5f       	subi	r22, 0xFF	; 255
    224a:	7f 4f       	sbci	r23, 0xFF	; 255
    224c:	8f 4f       	sbci	r24, 0xFF	; 255
    224e:	9f 4f       	sbci	r25, 0xFF	; 255
    2250:	08 95       	ret

00002252 <__fp_split3>:
    2252:	57 fd       	sbrc	r21, 7
    2254:	90 58       	subi	r25, 0x80	; 128
    2256:	44 0f       	add	r20, r20
    2258:	55 1f       	adc	r21, r21
    225a:	59 f0       	breq	.+22     	; 0x2272 <__fp_splitA+0x10>
    225c:	5f 3f       	cpi	r21, 0xFF	; 255
    225e:	71 f0       	breq	.+28     	; 0x227c <__fp_splitA+0x1a>
    2260:	47 95       	ror	r20

00002262 <__fp_splitA>:
    2262:	88 0f       	add	r24, r24
    2264:	97 fb       	bst	r25, 7
    2266:	99 1f       	adc	r25, r25
    2268:	61 f0       	breq	.+24     	; 0x2282 <__fp_splitA+0x20>
    226a:	9f 3f       	cpi	r25, 0xFF	; 255
    226c:	79 f0       	breq	.+30     	; 0x228c <__fp_splitA+0x2a>
    226e:	87 95       	ror	r24
    2270:	08 95       	ret
    2272:	12 16       	cp	r1, r18
    2274:	13 06       	cpc	r1, r19
    2276:	14 06       	cpc	r1, r20
    2278:	55 1f       	adc	r21, r21
    227a:	f2 cf       	rjmp	.-28     	; 0x2260 <__fp_split3+0xe>
    227c:	46 95       	lsr	r20
    227e:	f1 df       	rcall	.-30     	; 0x2262 <__fp_splitA>
    2280:	08 c0       	rjmp	.+16     	; 0x2292 <__fp_splitA+0x30>
    2282:	16 16       	cp	r1, r22
    2284:	17 06       	cpc	r1, r23
    2286:	18 06       	cpc	r1, r24
    2288:	99 1f       	adc	r25, r25
    228a:	f1 cf       	rjmp	.-30     	; 0x226e <__fp_splitA+0xc>
    228c:	86 95       	lsr	r24
    228e:	71 05       	cpc	r23, r1
    2290:	61 05       	cpc	r22, r1
    2292:	08 94       	sec
    2294:	08 95       	ret

00002296 <__fp_zero>:
    2296:	e8 94       	clt

00002298 <__fp_szero>:
    2298:	bb 27       	eor	r27, r27
    229a:	66 27       	eor	r22, r22
    229c:	77 27       	eor	r23, r23
    229e:	cb 01       	movw	r24, r22
    22a0:	97 f9       	bld	r25, 7
    22a2:	08 95       	ret

000022a4 <__gesf2>:
    22a4:	0e 94 b6 10 	call	0x216c	; 0x216c <__fp_cmp>
    22a8:	08 f4       	brcc	.+2      	; 0x22ac <__gesf2+0x8>
    22aa:	8f ef       	ldi	r24, 0xFF	; 255
    22ac:	08 95       	ret

000022ae <inverse>:
    22ae:	9b 01       	movw	r18, r22
    22b0:	ac 01       	movw	r20, r24
    22b2:	60 e0       	ldi	r22, 0x00	; 0
    22b4:	70 e0       	ldi	r23, 0x00	; 0
    22b6:	80 e8       	ldi	r24, 0x80	; 128
    22b8:	9f e3       	ldi	r25, 0x3F	; 63
    22ba:	0c 94 16 12 	jmp	0x242c	; 0x242c <__divsf3>

000022be <__mulsf3>:
    22be:	0e 94 72 11 	call	0x22e4	; 0x22e4 <__mulsf3x>
    22c2:	0c 94 18 11 	jmp	0x2230	; 0x2230 <__fp_round>
    22c6:	0e 94 0a 11 	call	0x2214	; 0x2214 <__fp_pscA>
    22ca:	38 f0       	brcs	.+14     	; 0x22da <__mulsf3+0x1c>
    22cc:	0e 94 11 11 	call	0x2222	; 0x2222 <__fp_pscB>
    22d0:	20 f0       	brcs	.+8      	; 0x22da <__mulsf3+0x1c>
    22d2:	95 23       	and	r25, r21
    22d4:	11 f0       	breq	.+4      	; 0x22da <__mulsf3+0x1c>
    22d6:	0c 94 da 10 	jmp	0x21b4	; 0x21b4 <__fp_inf>
    22da:	0c 94 e0 10 	jmp	0x21c0	; 0x21c0 <__fp_nan>
    22de:	11 24       	eor	r1, r1
    22e0:	0c 94 4c 11 	jmp	0x2298	; 0x2298 <__fp_szero>

000022e4 <__mulsf3x>:
    22e4:	0e 94 29 11 	call	0x2252	; 0x2252 <__fp_split3>
    22e8:	70 f3       	brcs	.-36     	; 0x22c6 <__mulsf3+0x8>

000022ea <__mulsf3_pse>:
    22ea:	95 9f       	mul	r25, r21
    22ec:	c1 f3       	breq	.-16     	; 0x22de <__mulsf3+0x20>
    22ee:	95 0f       	add	r25, r21
    22f0:	50 e0       	ldi	r21, 0x00	; 0
    22f2:	55 1f       	adc	r21, r21
    22f4:	62 9f       	mul	r22, r18
    22f6:	f0 01       	movw	r30, r0
    22f8:	72 9f       	mul	r23, r18
    22fa:	bb 27       	eor	r27, r27
    22fc:	f0 0d       	add	r31, r0
    22fe:	b1 1d       	adc	r27, r1
    2300:	63 9f       	mul	r22, r19
    2302:	aa 27       	eor	r26, r26
    2304:	f0 0d       	add	r31, r0
    2306:	b1 1d       	adc	r27, r1
    2308:	aa 1f       	adc	r26, r26
    230a:	64 9f       	mul	r22, r20
    230c:	66 27       	eor	r22, r22
    230e:	b0 0d       	add	r27, r0
    2310:	a1 1d       	adc	r26, r1
    2312:	66 1f       	adc	r22, r22
    2314:	82 9f       	mul	r24, r18
    2316:	22 27       	eor	r18, r18
    2318:	b0 0d       	add	r27, r0
    231a:	a1 1d       	adc	r26, r1
    231c:	62 1f       	adc	r22, r18
    231e:	73 9f       	mul	r23, r19
    2320:	b0 0d       	add	r27, r0
    2322:	a1 1d       	adc	r26, r1
    2324:	62 1f       	adc	r22, r18
    2326:	83 9f       	mul	r24, r19
    2328:	a0 0d       	add	r26, r0
    232a:	61 1d       	adc	r22, r1
    232c:	22 1f       	adc	r18, r18
    232e:	74 9f       	mul	r23, r20
    2330:	33 27       	eor	r19, r19
    2332:	a0 0d       	add	r26, r0
    2334:	61 1d       	adc	r22, r1
    2336:	23 1f       	adc	r18, r19
    2338:	84 9f       	mul	r24, r20
    233a:	60 0d       	add	r22, r0
    233c:	21 1d       	adc	r18, r1
    233e:	82 2f       	mov	r24, r18
    2340:	76 2f       	mov	r23, r22
    2342:	6a 2f       	mov	r22, r26
    2344:	11 24       	eor	r1, r1
    2346:	9f 57       	subi	r25, 0x7F	; 127
    2348:	50 40       	sbci	r21, 0x00	; 0
    234a:	9a f0       	brmi	.+38     	; 0x2372 <__mulsf3_pse+0x88>
    234c:	f1 f0       	breq	.+60     	; 0x238a <__mulsf3_pse+0xa0>
    234e:	88 23       	and	r24, r24
    2350:	4a f0       	brmi	.+18     	; 0x2364 <__mulsf3_pse+0x7a>
    2352:	ee 0f       	add	r30, r30
    2354:	ff 1f       	adc	r31, r31
    2356:	bb 1f       	adc	r27, r27
    2358:	66 1f       	adc	r22, r22
    235a:	77 1f       	adc	r23, r23
    235c:	88 1f       	adc	r24, r24
    235e:	91 50       	subi	r25, 0x01	; 1
    2360:	50 40       	sbci	r21, 0x00	; 0
    2362:	a9 f7       	brne	.-22     	; 0x234e <__mulsf3_pse+0x64>
    2364:	9e 3f       	cpi	r25, 0xFE	; 254
    2366:	51 05       	cpc	r21, r1
    2368:	80 f0       	brcs	.+32     	; 0x238a <__mulsf3_pse+0xa0>
    236a:	0c 94 da 10 	jmp	0x21b4	; 0x21b4 <__fp_inf>
    236e:	0c 94 4c 11 	jmp	0x2298	; 0x2298 <__fp_szero>
    2372:	5f 3f       	cpi	r21, 0xFF	; 255
    2374:	e4 f3       	brlt	.-8      	; 0x236e <__mulsf3_pse+0x84>
    2376:	98 3e       	cpi	r25, 0xE8	; 232
    2378:	d4 f3       	brlt	.-12     	; 0x236e <__mulsf3_pse+0x84>
    237a:	86 95       	lsr	r24
    237c:	77 95       	ror	r23
    237e:	67 95       	ror	r22
    2380:	b7 95       	ror	r27
    2382:	f7 95       	ror	r31
    2384:	e7 95       	ror	r30
    2386:	9f 5f       	subi	r25, 0xFF	; 255
    2388:	c1 f7       	brne	.-16     	; 0x237a <__mulsf3_pse+0x90>
    238a:	fe 2b       	or	r31, r30
    238c:	88 0f       	add	r24, r24
    238e:	91 1d       	adc	r25, r1
    2390:	96 95       	lsr	r25
    2392:	87 95       	ror	r24
    2394:	97 f9       	bld	r25, 7
    2396:	08 95       	ret
    2398:	19 f4       	brne	.+6      	; 0x23a0 <__mulsf3_pse+0xb6>
    239a:	16 f4       	brtc	.+4      	; 0x23a0 <__mulsf3_pse+0xb6>
    239c:	0c 94 e0 10 	jmp	0x21c0	; 0x21c0 <__fp_nan>
    23a0:	0c 94 1a 12 	jmp	0x2434	; 0x2434 <__fp_mpack>

000023a4 <sqrt>:
    23a4:	0e 94 31 11 	call	0x2262	; 0x2262 <__fp_splitA>
    23a8:	b8 f3       	brcs	.-18     	; 0x2398 <__mulsf3_pse+0xae>
    23aa:	99 23       	and	r25, r25
    23ac:	c9 f3       	breq	.-14     	; 0x23a0 <__mulsf3_pse+0xb6>
    23ae:	b6 f3       	brts	.-20     	; 0x239c <__mulsf3_pse+0xb2>
    23b0:	9f 57       	subi	r25, 0x7F	; 127
    23b2:	55 0b       	sbc	r21, r21
    23b4:	87 ff       	sbrs	r24, 7
    23b6:	0e 94 28 12 	call	0x2450	; 0x2450 <__fp_norm2>
    23ba:	00 24       	eor	r0, r0
    23bc:	a0 e6       	ldi	r26, 0x60	; 96
    23be:	40 ea       	ldi	r20, 0xA0	; 160
    23c0:	90 01       	movw	r18, r0
    23c2:	80 58       	subi	r24, 0x80	; 128
    23c4:	56 95       	lsr	r21
    23c6:	97 95       	ror	r25
    23c8:	28 f4       	brcc	.+10     	; 0x23d4 <sqrt+0x30>
    23ca:	80 5c       	subi	r24, 0xC0	; 192
    23cc:	66 0f       	add	r22, r22
    23ce:	77 1f       	adc	r23, r23
    23d0:	88 1f       	adc	r24, r24
    23d2:	20 f0       	brcs	.+8      	; 0x23dc <sqrt+0x38>
    23d4:	26 17       	cp	r18, r22
    23d6:	37 07       	cpc	r19, r23
    23d8:	48 07       	cpc	r20, r24
    23da:	30 f4       	brcc	.+12     	; 0x23e8 <sqrt+0x44>
    23dc:	62 1b       	sub	r22, r18
    23de:	73 0b       	sbc	r23, r19
    23e0:	84 0b       	sbc	r24, r20
    23e2:	20 29       	or	r18, r0
    23e4:	31 29       	or	r19, r1
    23e6:	4a 2b       	or	r20, r26
    23e8:	a6 95       	lsr	r26
    23ea:	17 94       	ror	r1
    23ec:	07 94       	ror	r0
    23ee:	20 25       	eor	r18, r0
    23f0:	31 25       	eor	r19, r1
    23f2:	4a 27       	eor	r20, r26
    23f4:	58 f7       	brcc	.-42     	; 0x23cc <sqrt+0x28>
    23f6:	66 0f       	add	r22, r22
    23f8:	77 1f       	adc	r23, r23
    23fa:	88 1f       	adc	r24, r24
    23fc:	20 f0       	brcs	.+8      	; 0x2406 <sqrt+0x62>
    23fe:	26 17       	cp	r18, r22
    2400:	37 07       	cpc	r19, r23
    2402:	48 07       	cpc	r20, r24
    2404:	30 f4       	brcc	.+12     	; 0x2412 <sqrt+0x6e>
    2406:	62 0b       	sbc	r22, r18
    2408:	73 0b       	sbc	r23, r19
    240a:	84 0b       	sbc	r24, r20
    240c:	20 0d       	add	r18, r0
    240e:	31 1d       	adc	r19, r1
    2410:	41 1d       	adc	r20, r1
    2412:	a0 95       	com	r26
    2414:	81 f7       	brne	.-32     	; 0x23f6 <sqrt+0x52>
    2416:	b9 01       	movw	r22, r18
    2418:	84 2f       	mov	r24, r20
    241a:	91 58       	subi	r25, 0x81	; 129
    241c:	88 0f       	add	r24, r24
    241e:	96 95       	lsr	r25
    2420:	87 95       	ror	r24
    2422:	08 95       	ret

00002424 <square>:
    2424:	9b 01       	movw	r18, r22
    2426:	ac 01       	movw	r20, r24
    2428:	0c 94 5f 11 	jmp	0x22be	; 0x22be <__mulsf3>

0000242c <__divsf3>:
    242c:	0e 94 ec 0f 	call	0x1fd8	; 0x1fd8 <__divsf3x>
    2430:	0c 94 18 11 	jmp	0x2230	; 0x2230 <__fp_round>

00002434 <__fp_mpack>:
    2434:	9f 3f       	cpi	r25, 0xFF	; 255
    2436:	31 f0       	breq	.+12     	; 0x2444 <__fp_mpack_finite+0xc>

00002438 <__fp_mpack_finite>:
    2438:	91 50       	subi	r25, 0x01	; 1
    243a:	20 f4       	brcc	.+8      	; 0x2444 <__fp_mpack_finite+0xc>
    243c:	87 95       	ror	r24
    243e:	77 95       	ror	r23
    2440:	67 95       	ror	r22
    2442:	b7 95       	ror	r27
    2444:	88 0f       	add	r24, r24
    2446:	91 1d       	adc	r25, r1
    2448:	96 95       	lsr	r25
    244a:	87 95       	ror	r24
    244c:	97 f9       	bld	r25, 7
    244e:	08 95       	ret

00002450 <__fp_norm2>:
    2450:	91 50       	subi	r25, 0x01	; 1
    2452:	50 40       	sbci	r21, 0x00	; 0
    2454:	66 0f       	add	r22, r22
    2456:	77 1f       	adc	r23, r23
    2458:	88 1f       	adc	r24, r24
    245a:	d2 f7       	brpl	.-12     	; 0x2450 <__fp_norm2>
    245c:	08 95       	ret

0000245e <__udivmodsi4>:
    245e:	a1 e2       	ldi	r26, 0x21	; 33
    2460:	1a 2e       	mov	r1, r26
    2462:	aa 1b       	sub	r26, r26
    2464:	bb 1b       	sub	r27, r27
    2466:	fd 01       	movw	r30, r26
    2468:	0d c0       	rjmp	.+26     	; 0x2484 <__udivmodsi4_ep>

0000246a <__udivmodsi4_loop>:
    246a:	aa 1f       	adc	r26, r26
    246c:	bb 1f       	adc	r27, r27
    246e:	ee 1f       	adc	r30, r30
    2470:	ff 1f       	adc	r31, r31
    2472:	a2 17       	cp	r26, r18
    2474:	b3 07       	cpc	r27, r19
    2476:	e4 07       	cpc	r30, r20
    2478:	f5 07       	cpc	r31, r21
    247a:	20 f0       	brcs	.+8      	; 0x2484 <__udivmodsi4_ep>
    247c:	a2 1b       	sub	r26, r18
    247e:	b3 0b       	sbc	r27, r19
    2480:	e4 0b       	sbc	r30, r20
    2482:	f5 0b       	sbc	r31, r21

00002484 <__udivmodsi4_ep>:
    2484:	66 1f       	adc	r22, r22
    2486:	77 1f       	adc	r23, r23
    2488:	88 1f       	adc	r24, r24
    248a:	99 1f       	adc	r25, r25
    248c:	1a 94       	dec	r1
    248e:	69 f7       	brne	.-38     	; 0x246a <__udivmodsi4_loop>
    2490:	60 95       	com	r22
    2492:	70 95       	com	r23
    2494:	80 95       	com	r24
    2496:	90 95       	com	r25
    2498:	9b 01       	movw	r18, r22
    249a:	ac 01       	movw	r20, r24
    249c:	bd 01       	movw	r22, r26
    249e:	cf 01       	movw	r24, r30
    24a0:	08 95       	ret

000024a2 <__divmodsi4>:
    24a2:	05 2e       	mov	r0, r21
    24a4:	97 fb       	bst	r25, 7
    24a6:	1e f4       	brtc	.+6      	; 0x24ae <__divmodsi4+0xc>
    24a8:	00 94       	com	r0
    24aa:	0e 94 68 12 	call	0x24d0	; 0x24d0 <__negsi2>
    24ae:	57 fd       	sbrc	r21, 7
    24b0:	07 d0       	rcall	.+14     	; 0x24c0 <__divmodsi4_neg2>
    24b2:	0e 94 2f 12 	call	0x245e	; 0x245e <__udivmodsi4>
    24b6:	07 fc       	sbrc	r0, 7
    24b8:	03 d0       	rcall	.+6      	; 0x24c0 <__divmodsi4_neg2>
    24ba:	4e f4       	brtc	.+18     	; 0x24ce <__divmodsi4_exit>
    24bc:	0c 94 68 12 	jmp	0x24d0	; 0x24d0 <__negsi2>

000024c0 <__divmodsi4_neg2>:
    24c0:	50 95       	com	r21
    24c2:	40 95       	com	r20
    24c4:	30 95       	com	r19
    24c6:	21 95       	neg	r18
    24c8:	3f 4f       	sbci	r19, 0xFF	; 255
    24ca:	4f 4f       	sbci	r20, 0xFF	; 255
    24cc:	5f 4f       	sbci	r21, 0xFF	; 255

000024ce <__divmodsi4_exit>:
    24ce:	08 95       	ret

000024d0 <__negsi2>:
    24d0:	90 95       	com	r25
    24d2:	80 95       	com	r24
    24d4:	70 95       	com	r23
    24d6:	61 95       	neg	r22
    24d8:	7f 4f       	sbci	r23, 0xFF	; 255
    24da:	8f 4f       	sbci	r24, 0xFF	; 255
    24dc:	9f 4f       	sbci	r25, 0xFF	; 255
    24de:	08 95       	ret

000024e0 <__mulhisi3>:
    24e0:	0e 94 78 12 	call	0x24f0	; 0x24f0 <__umulhisi3>
    24e4:	33 23       	and	r19, r19
    24e6:	12 f4       	brpl	.+4      	; 0x24ec <__mulhisi3+0xc>
    24e8:	8a 1b       	sub	r24, r26
    24ea:	9b 0b       	sbc	r25, r27
    24ec:	0c 94 89 12 	jmp	0x2512	; 0x2512 <__usmulhisi3_tail>

000024f0 <__umulhisi3>:
    24f0:	a2 9f       	mul	r26, r18
    24f2:	b0 01       	movw	r22, r0
    24f4:	b3 9f       	mul	r27, r19
    24f6:	c0 01       	movw	r24, r0
    24f8:	a3 9f       	mul	r26, r19
    24fa:	70 0d       	add	r23, r0
    24fc:	81 1d       	adc	r24, r1
    24fe:	11 24       	eor	r1, r1
    2500:	91 1d       	adc	r25, r1
    2502:	b2 9f       	mul	r27, r18
    2504:	70 0d       	add	r23, r0
    2506:	81 1d       	adc	r24, r1
    2508:	11 24       	eor	r1, r1
    250a:	91 1d       	adc	r25, r1
    250c:	08 95       	ret

0000250e <__usmulhisi3>:
    250e:	0e 94 78 12 	call	0x24f0	; 0x24f0 <__umulhisi3>

00002512 <__usmulhisi3_tail>:
    2512:	b7 ff       	sbrs	r27, 7
    2514:	08 95       	ret
    2516:	82 1b       	sub	r24, r18
    2518:	93 0b       	sbc	r25, r19
    251a:	08 95       	ret

0000251c <__muldi3>:
    251c:	df 93       	push	r29
    251e:	cf 93       	push	r28
    2520:	1f 93       	push	r17
    2522:	0f 93       	push	r16
    2524:	9a 9d       	mul	r25, r10
    2526:	f0 2d       	mov	r31, r0
    2528:	21 9f       	mul	r18, r17
    252a:	f0 0d       	add	r31, r0
    252c:	8b 9d       	mul	r24, r11
    252e:	f0 0d       	add	r31, r0
    2530:	8a 9d       	mul	r24, r10
    2532:	e0 2d       	mov	r30, r0
    2534:	f1 0d       	add	r31, r1
    2536:	03 9f       	mul	r16, r19
    2538:	f0 0d       	add	r31, r0
    253a:	02 9f       	mul	r16, r18
    253c:	e0 0d       	add	r30, r0
    253e:	f1 1d       	adc	r31, r1
    2540:	4e 9d       	mul	r20, r14
    2542:	e0 0d       	add	r30, r0
    2544:	f1 1d       	adc	r31, r1
    2546:	5e 9d       	mul	r21, r14
    2548:	f0 0d       	add	r31, r0
    254a:	4f 9d       	mul	r20, r15
    254c:	f0 0d       	add	r31, r0
    254e:	7f 93       	push	r23
    2550:	6f 93       	push	r22
    2552:	bf 92       	push	r11
    2554:	af 92       	push	r10
    2556:	5f 93       	push	r21
    2558:	4f 93       	push	r20
    255a:	d5 01       	movw	r26, r10
    255c:	0e 94 78 12 	call	0x24f0	; 0x24f0 <__umulhisi3>
    2560:	8b 01       	movw	r16, r22
    2562:	ac 01       	movw	r20, r24
    2564:	d7 01       	movw	r26, r14
    2566:	0e 94 78 12 	call	0x24f0	; 0x24f0 <__umulhisi3>
    256a:	eb 01       	movw	r28, r22
    256c:	e8 0f       	add	r30, r24
    256e:	f9 1f       	adc	r31, r25
    2570:	d6 01       	movw	r26, r12
    2572:	0e 94 de 12 	call	0x25bc	; 0x25bc <__muldi3_6>
    2576:	2f 91       	pop	r18
    2578:	3f 91       	pop	r19
    257a:	d6 01       	movw	r26, r12
    257c:	0e 94 78 12 	call	0x24f0	; 0x24f0 <__umulhisi3>
    2580:	c6 0f       	add	r28, r22
    2582:	d7 1f       	adc	r29, r23
    2584:	e8 1f       	adc	r30, r24
    2586:	f9 1f       	adc	r31, r25
    2588:	af 91       	pop	r26
    258a:	bf 91       	pop	r27
    258c:	0e 94 de 12 	call	0x25bc	; 0x25bc <__muldi3_6>
    2590:	2f 91       	pop	r18
    2592:	3f 91       	pop	r19
    2594:	0e 94 78 12 	call	0x24f0	; 0x24f0 <__umulhisi3>
    2598:	c6 0f       	add	r28, r22
    259a:	d7 1f       	adc	r29, r23
    259c:	e8 1f       	adc	r30, r24
    259e:	f9 1f       	adc	r31, r25
    25a0:	d6 01       	movw	r26, r12
    25a2:	0e 94 78 12 	call	0x24f0	; 0x24f0 <__umulhisi3>
    25a6:	e6 0f       	add	r30, r22
    25a8:	f7 1f       	adc	r31, r23
    25aa:	98 01       	movw	r18, r16
    25ac:	be 01       	movw	r22, r28
    25ae:	cf 01       	movw	r24, r30
    25b0:	11 24       	eor	r1, r1
    25b2:	0f 91       	pop	r16
    25b4:	1f 91       	pop	r17
    25b6:	cf 91       	pop	r28
    25b8:	df 91       	pop	r29
    25ba:	08 95       	ret

000025bc <__muldi3_6>:
    25bc:	0e 94 78 12 	call	0x24f0	; 0x24f0 <__umulhisi3>
    25c0:	46 0f       	add	r20, r22
    25c2:	57 1f       	adc	r21, r23
    25c4:	c8 1f       	adc	r28, r24
    25c6:	d9 1f       	adc	r29, r25
    25c8:	08 f4       	brcc	.+2      	; 0x25cc <__muldi3_6+0x10>
    25ca:	31 96       	adiw	r30, 0x01	; 1
    25cc:	08 95       	ret

000025ce <__ashldi3>:
    25ce:	0f 93       	push	r16
    25d0:	08 30       	cpi	r16, 0x08	; 8
    25d2:	90 f0       	brcs	.+36     	; 0x25f8 <__ashldi3+0x2a>
    25d4:	98 2f       	mov	r25, r24
    25d6:	87 2f       	mov	r24, r23
    25d8:	76 2f       	mov	r23, r22
    25da:	65 2f       	mov	r22, r21
    25dc:	54 2f       	mov	r21, r20
    25de:	43 2f       	mov	r20, r19
    25e0:	32 2f       	mov	r19, r18
    25e2:	22 27       	eor	r18, r18
    25e4:	08 50       	subi	r16, 0x08	; 8
    25e6:	f4 cf       	rjmp	.-24     	; 0x25d0 <__ashldi3+0x2>
    25e8:	22 0f       	add	r18, r18
    25ea:	33 1f       	adc	r19, r19
    25ec:	44 1f       	adc	r20, r20
    25ee:	55 1f       	adc	r21, r21
    25f0:	66 1f       	adc	r22, r22
    25f2:	77 1f       	adc	r23, r23
    25f4:	88 1f       	adc	r24, r24
    25f6:	99 1f       	adc	r25, r25
    25f8:	0a 95       	dec	r16
    25fa:	b2 f7       	brpl	.-20     	; 0x25e8 <__ashldi3+0x1a>
    25fc:	0f 91       	pop	r16
    25fe:	08 95       	ret

00002600 <__ashrdi3>:
    2600:	97 fb       	bst	r25, 7
    2602:	10 f8       	bld	r1, 0

00002604 <__lshrdi3>:
    2604:	16 94       	lsr	r1
    2606:	00 08       	sbc	r0, r0
    2608:	0f 93       	push	r16
    260a:	08 30       	cpi	r16, 0x08	; 8
    260c:	98 f0       	brcs	.+38     	; 0x2634 <__lshrdi3+0x30>
    260e:	08 50       	subi	r16, 0x08	; 8
    2610:	23 2f       	mov	r18, r19
    2612:	34 2f       	mov	r19, r20
    2614:	45 2f       	mov	r20, r21
    2616:	56 2f       	mov	r21, r22
    2618:	67 2f       	mov	r22, r23
    261a:	78 2f       	mov	r23, r24
    261c:	89 2f       	mov	r24, r25
    261e:	90 2d       	mov	r25, r0
    2620:	f4 cf       	rjmp	.-24     	; 0x260a <__lshrdi3+0x6>
    2622:	05 94       	asr	r0
    2624:	97 95       	ror	r25
    2626:	87 95       	ror	r24
    2628:	77 95       	ror	r23
    262a:	67 95       	ror	r22
    262c:	57 95       	ror	r21
    262e:	47 95       	ror	r20
    2630:	37 95       	ror	r19
    2632:	27 95       	ror	r18
    2634:	0a 95       	dec	r16
    2636:	aa f7       	brpl	.-22     	; 0x2622 <__lshrdi3+0x1e>
    2638:	0f 91       	pop	r16
    263a:	08 95       	ret

0000263c <__adddi3>:
    263c:	2a 0d       	add	r18, r10
    263e:	3b 1d       	adc	r19, r11
    2640:	4c 1d       	adc	r20, r12
    2642:	5d 1d       	adc	r21, r13
    2644:	6e 1d       	adc	r22, r14
    2646:	7f 1d       	adc	r23, r15
    2648:	80 1f       	adc	r24, r16
    264a:	91 1f       	adc	r25, r17
    264c:	08 95       	ret

0000264e <__adddi3_s8>:
    264e:	00 24       	eor	r0, r0
    2650:	a7 fd       	sbrc	r26, 7
    2652:	00 94       	com	r0
    2654:	2a 0f       	add	r18, r26
    2656:	30 1d       	adc	r19, r0
    2658:	40 1d       	adc	r20, r0
    265a:	50 1d       	adc	r21, r0
    265c:	60 1d       	adc	r22, r0
    265e:	70 1d       	adc	r23, r0
    2660:	80 1d       	adc	r24, r0
    2662:	90 1d       	adc	r25, r0
    2664:	08 95       	ret

00002666 <__subdi3>:
    2666:	2a 19       	sub	r18, r10
    2668:	3b 09       	sbc	r19, r11
    266a:	4c 09       	sbc	r20, r12
    266c:	5d 09       	sbc	r21, r13
    266e:	6e 09       	sbc	r22, r14
    2670:	7f 09       	sbc	r23, r15
    2672:	80 0b       	sbc	r24, r16
    2674:	91 0b       	sbc	r25, r17
    2676:	08 95       	ret

00002678 <__cmpdi2_s8>:
    2678:	00 24       	eor	r0, r0
    267a:	a7 fd       	sbrc	r26, 7
    267c:	00 94       	com	r0
    267e:	2a 17       	cp	r18, r26
    2680:	30 05       	cpc	r19, r0
    2682:	40 05       	cpc	r20, r0
    2684:	50 05       	cpc	r21, r0
    2686:	60 05       	cpc	r22, r0
    2688:	70 05       	cpc	r23, r0
    268a:	80 05       	cpc	r24, r0
    268c:	90 05       	cpc	r25, r0
    268e:	08 95       	ret

00002690 <memset>:
    2690:	dc 01       	movw	r26, r24
    2692:	01 c0       	rjmp	.+2      	; 0x2696 <memset+0x6>
    2694:	6d 93       	st	X+, r22
    2696:	41 50       	subi	r20, 0x01	; 1
    2698:	50 40       	sbci	r21, 0x00	; 0
    269a:	e0 f7       	brcc	.-8      	; 0x2694 <memset+0x4>
    269c:	08 95       	ret

0000269e <strchr>:
    269e:	fc 01       	movw	r30, r24
    26a0:	81 91       	ld	r24, Z+
    26a2:	86 17       	cp	r24, r22
    26a4:	21 f0       	breq	.+8      	; 0x26ae <strchr+0x10>
    26a6:	88 23       	and	r24, r24
    26a8:	d9 f7       	brne	.-10     	; 0x26a0 <strchr+0x2>
    26aa:	99 27       	eor	r25, r25
    26ac:	08 95       	ret
    26ae:	31 97       	sbiw	r30, 0x01	; 1
    26b0:	cf 01       	movw	r24, r30
    26b2:	08 95       	ret

000026b4 <eeprom_read_byte>:
    26b4:	03 d0       	rcall	.+6      	; 0x26bc <eeprom_mapen>
    26b6:	80 81       	ld	r24, Z
    26b8:	99 27       	eor	r25, r25
    26ba:	08 95       	ret

000026bc <eeprom_mapen>:
    26bc:	fc 01       	movw	r30, r24
    26be:	e0 50       	subi	r30, 0x00	; 0
    26c0:	fc 4e       	sbci	r31, 0xEC	; 236
    26c2:	08 95       	ret

000026c4 <eeprom_write_byte>:
    26c4:	26 2f       	mov	r18, r22

000026c6 <eeprom_write_r18>:
    26c6:	af 93       	push	r26
    26c8:	bf 93       	push	r27
    26ca:	e0 e0       	ldi	r30, 0x00	; 0
    26cc:	f0 e1       	ldi	r31, 0x10	; 16
    26ce:	32 81       	ldd	r19, Z+2	; 0x02
    26d0:	31 fd       	sbrc	r19, 1
    26d2:	fd cf       	rjmp	.-6      	; 0x26ce <eeprom_write_r18+0x8>
    26d4:	dc 01       	movw	r26, r24
    26d6:	a0 50       	subi	r26, 0x00	; 0
    26d8:	bc 4e       	sbci	r27, 0xEC	; 236
    26da:	2c 93       	st	X, r18
    26dc:	2d e9       	ldi	r18, 0x9D	; 157
    26de:	24 bf       	out	0x34, r18	; 52
    26e0:	23 e0       	ldi	r18, 0x03	; 3
    26e2:	20 83       	st	Z, r18
    26e4:	01 96       	adiw	r24, 0x01	; 1
    26e6:	bf 91       	pop	r27
    26e8:	af 91       	pop	r26
    26ea:	08 95       	ret

000026ec <_exit>:
    26ec:	f8 94       	cli

000026ee <__stop_program>:
    26ee:	ff cf       	rjmp	.-2      	; 0x26ee <__stop_program>
