
ColibriREV1Test.elf:     file format elf32-avr

Sections:
Idx Name          Size      VMA       LMA       File off  Algn
  0 .data         00000002  00803800  0000257b  0000262f  2**0
                  CONTENTS, ALLOC, LOAD, DATA
  1 .text         0000232a  00000000  00000000  000000b4  2**1
                  CONTENTS, ALLOC, LOAD, READONLY, CODE
  2 .rodata       00000251  0000a32a  0000232a  000023de  2**0
                  CONTENTS, ALLOC, LOAD, READONLY, DATA
  3 .bss          00000020  00803802  00803802  00002631  2**0
                  ALLOC
  4 .comment      0000005c  00000000  00000000  00002631  2**0
                  CONTENTS, READONLY
  5 .note.gnu.avr.deviceinfo 00000040  00000000  00000000  00002690  2**2
                  CONTENTS, READONLY
  6 .debug_aranges 000002a8  00000000  00000000  000026d0  2**0
                  CONTENTS, READONLY, DEBUGGING
  7 .debug_info   00008003  00000000  00000000  00002978  2**0
                  CONTENTS, READONLY, DEBUGGING
  8 .debug_abbrev 00002a98  00000000  00000000  0000a97b  2**0
                  CONTENTS, READONLY, DEBUGGING
  9 .debug_line   00001ec6  00000000  00000000  0000d413  2**0
                  CONTENTS, READONLY, DEBUGGING
 10 .debug_frame  000008ec  00000000  00000000  0000f2dc  2**2
                  CONTENTS, READONLY, DEBUGGING
 11 .debug_str    00002c12  00000000  00000000  0000fbc8  2**0
                  CONTENTS, READONLY, DEBUGGING
 12 .debug_loc    00003044  00000000  00000000  000127da  2**0
                  CONTENTS, READONLY, DEBUGGING
 13 .debug_ranges 00000308  00000000  00000000  0001581e  2**0
                  CONTENTS, READONLY, DEBUGGING

Disassembly of section .text:

00000000 <__vectors>:
       0:	0c 94 3e 00 	jmp	0x7c	; 0x7c <__ctors_end>
       4:	0c 94 5b 00 	jmp	0xb6	; 0xb6 <__bad_interrupt>
       8:	0c 94 5b 00 	jmp	0xb6	; 0xb6 <__bad_interrupt>
       c:	0c 94 8e 08 	jmp	0x111c	; 0x111c <__vector_3>
      10:	0c 94 5b 00 	jmp	0xb6	; 0xb6 <__bad_interrupt>
      14:	0c 94 5b 00 	jmp	0xb6	; 0xb6 <__bad_interrupt>
      18:	0c 94 a6 08 	jmp	0x114c	; 0x114c <__vector_6>
      1c:	0c 94 5b 00 	jmp	0xb6	; 0xb6 <__bad_interrupt>
      20:	0c 94 b7 08 	jmp	0x116e	; 0x116e <__vector_8>
      24:	0c 94 5b 00 	jmp	0xb6	; 0xb6 <__bad_interrupt>
      28:	0c 94 5b 00 	jmp	0xb6	; 0xb6 <__bad_interrupt>
      2c:	0c 94 5b 00 	jmp	0xb6	; 0xb6 <__bad_interrupt>
      30:	0c 94 5b 00 	jmp	0xb6	; 0xb6 <__bad_interrupt>
      34:	0c 94 5b 00 	jmp	0xb6	; 0xb6 <__bad_interrupt>
      38:	0c 94 5b 00 	jmp	0xb6	; 0xb6 <__bad_interrupt>
      3c:	0c 94 5b 00 	jmp	0xb6	; 0xb6 <__bad_interrupt>
      40:	0c 94 5b 00 	jmp	0xb6	; 0xb6 <__bad_interrupt>
      44:	0c 94 5b 00 	jmp	0xb6	; 0xb6 <__bad_interrupt>
      48:	0c 94 5b 00 	jmp	0xb6	; 0xb6 <__bad_interrupt>
      4c:	0c 94 5b 00 	jmp	0xb6	; 0xb6 <__bad_interrupt>
      50:	0c 94 5b 00 	jmp	0xb6	; 0xb6 <__bad_interrupt>
      54:	0c 94 5b 00 	jmp	0xb6	; 0xb6 <__bad_interrupt>
      58:	0c 94 5b 00 	jmp	0xb6	; 0xb6 <__bad_interrupt>
      5c:	0c 94 5b 00 	jmp	0xb6	; 0xb6 <__bad_interrupt>
      60:	0c 94 5b 00 	jmp	0xb6	; 0xb6 <__bad_interrupt>
      64:	0c 94 5b 00 	jmp	0xb6	; 0xb6 <__bad_interrupt>
      68:	0c 94 5b 00 	jmp	0xb6	; 0xb6 <__bad_interrupt>
      6c:	0c 94 5b 00 	jmp	0xb6	; 0xb6 <__bad_interrupt>
      70:	0c 94 5b 00 	jmp	0xb6	; 0xb6 <__bad_interrupt>
      74:	0c 94 5b 00 	jmp	0xb6	; 0xb6 <__bad_interrupt>
      78:	0c 94 5b 00 	jmp	0xb6	; 0xb6 <__bad_interrupt>

0000007c <__ctors_end>:
      7c:	11 24       	eor	r1, r1
      7e:	1f be       	out	0x3f, r1	; 63
      80:	cf ef       	ldi	r28, 0xFF	; 255
      82:	cd bf       	out	0x3d, r28	; 61
      84:	df e3       	ldi	r29, 0x3F	; 63
      86:	de bf       	out	0x3e, r29	; 62

00000088 <__do_copy_data>:
      88:	18 e3       	ldi	r17, 0x38	; 56
      8a:	a0 e0       	ldi	r26, 0x00	; 0
      8c:	b8 e3       	ldi	r27, 0x38	; 56
      8e:	eb e7       	ldi	r30, 0x7B	; 123
      90:	f5 e2       	ldi	r31, 0x25	; 37
      92:	02 c0       	rjmp	.+4      	; 0x98 <__do_copy_data+0x10>
      94:	05 90       	lpm	r0, Z+
      96:	0d 92       	st	X+, r0
      98:	a2 30       	cpi	r26, 0x02	; 2
      9a:	b1 07       	cpc	r27, r17
      9c:	d9 f7       	brne	.-10     	; 0x94 <__do_copy_data+0xc>

0000009e <__do_clear_bss>:
      9e:	28 e3       	ldi	r18, 0x38	; 56
      a0:	a2 e0       	ldi	r26, 0x02	; 2
      a2:	b8 e3       	ldi	r27, 0x38	; 56
      a4:	01 c0       	rjmp	.+2      	; 0xa8 <.do_clear_bss_start>

000000a6 <.do_clear_bss_loop>:
      a6:	1d 92       	st	X+, r1

000000a8 <.do_clear_bss_start>:
      a8:	a2 32       	cpi	r26, 0x22	; 34
      aa:	b2 07       	cpc	r27, r18
      ac:	e1 f7       	brne	.-8      	; 0xa6 <.do_clear_bss_loop>
      ae:	0e 94 fe 0b 	call	0x17fc	; 0x17fc <main>
      b2:	0c 94 93 11 	jmp	0x2326	; 0x2326 <_exit>

000000b6 <__bad_interrupt>:
      b6:	0c 94 00 00 	jmp	0	; 0x0 <__vectors>

000000ba <_ZN7TickTag8initPinsEv>:
	}
	for(uint32_t i = from; i < from+len; i++) {
		(EERef(i)) = val;
	}
	return true;
}
      ba:	8e ef       	ldi	r24, 0xFE	; 254
      bc:	80 93 00 04 	sts	0x0400, r24	; 0x800400 <__RODATA_PM_OFFSET__+0x7f8400>
      c0:	87 e3       	ldi	r24, 0x37	; 55
      c2:	80 93 20 04 	sts	0x0420, r24	; 0x800420 <__RODATA_PM_OFFSET__+0x7f8420>
      c6:	8f e0       	ldi	r24, 0x0F	; 15
      c8:	80 93 40 04 	sts	0x0440, r24	; 0x800440 <__RODATA_PM_OFFSET__+0x7f8440>
      cc:	80 e6       	ldi	r24, 0x60	; 96
      ce:	80 93 80 0a 	sts	0x0A80, r24	; 0x800a80 <__RODATA_PM_OFFSET__+0x7f8a80>
      d2:	08 95       	ret

000000d4 <_ZN7TickTag35initDownloadPinInterruptInDeepSleepEv>:
      d4:	e0 e0       	ldi	r30, 0x00	; 0
      d6:	f4 e0       	ldi	r31, 0x04	; 4
      d8:	80 e2       	ldi	r24, 0x20	; 32
      da:	82 83       	std	Z+2, r24	; 0x02
      dc:	88 e0       	ldi	r24, 0x08	; 8
      de:	85 8b       	std	Z+21, r24	; 0x15
      e0:	85 89       	ldd	r24, Z+21	; 0x15
      e2:	81 60       	ori	r24, 0x01	; 1
      e4:	85 8b       	std	Z+21, r24	; 0x15
      e6:	08 95       	ret

000000e8 <_ZN7TickTag14incrementTimerEv>:
      e8:	80 91 02 38 	lds	r24, 0x3802	; 0x803802 <__data_end>
      ec:	90 91 03 38 	lds	r25, 0x3803	; 0x803803 <__data_end+0x1>
      f0:	a0 91 04 38 	lds	r26, 0x3804	; 0x803804 <__data_end+0x2>
      f4:	b0 91 05 38 	lds	r27, 0x3805	; 0x803805 <__data_end+0x3>
      f8:	01 96       	adiw	r24, 0x01	; 1
      fa:	a1 1d       	adc	r26, r1
      fc:	b1 1d       	adc	r27, r1
      fe:	80 93 02 38 	sts	0x3802, r24	; 0x803802 <__data_end>
     102:	90 93 03 38 	sts	0x3803, r25	; 0x803803 <__data_end+0x1>
     106:	a0 93 04 38 	sts	0x3804, r26	; 0x803804 <__data_end+0x2>
     10a:	b0 93 05 38 	sts	0x3805, r27	; 0x803805 <__data_end+0x3>
     10e:	08 95       	ret

00000110 <_ZN7TickTag9initTimerEv>:
     110:	10 92 02 38 	sts	0x3802, r1	; 0x803802 <__data_end>
     114:	10 92 03 38 	sts	0x3803, r1	; 0x803803 <__data_end+0x1>
     118:	10 92 04 38 	sts	0x3804, r1	; 0x803804 <__data_end+0x2>
     11c:	10 92 05 38 	sts	0x3805, r1	; 0x803805 <__data_end+0x3>
     120:	e0 e0       	ldi	r30, 0x00	; 0
     122:	fa e0       	ldi	r31, 0x0A	; 10
     124:	91 e0       	ldi	r25, 0x01	; 1
     126:	92 87       	std	Z+10, r25	; 0x0a
     128:	11 82       	std	Z+1, r1	; 0x01
     12a:	81 85       	ldd	r24, Z+9	; 0x09
     12c:	8e 7f       	andi	r24, 0xFE	; 254
     12e:	81 87       	std	Z+9, r24	; 0x09
     130:	27 ee       	ldi	r18, 0xE7	; 231
     132:	33 e0       	ldi	r19, 0x03	; 3
     134:	26 a3       	std	Z+38, r18	; 0x26
     136:	37 a3       	std	Z+39, r19	; 0x27
     138:	90 83       	st	Z, r25
     13a:	78 94       	sei
     13c:	08 95       	ret

0000013e <_ZN7TickTag9getMillisEv>:
     13e:	2f b7       	in	r18, 0x3f	; 63
     140:	f8 94       	cli
     142:	60 91 02 38 	lds	r22, 0x3802	; 0x803802 <__data_end>
     146:	70 91 03 38 	lds	r23, 0x3803	; 0x803803 <__data_end+0x1>
     14a:	80 91 04 38 	lds	r24, 0x3804	; 0x803804 <__data_end+0x2>
     14e:	90 91 05 38 	lds	r25, 0x3805	; 0x803805 <__data_end+0x3>
     152:	2f bf       	out	0x3f, r18	; 63
     154:	08 95       	ret

00000156 <_Z9stopTimerv>:
     156:	f8 94       	cli
     158:	e0 e0       	ldi	r30, 0x00	; 0
     15a:	fa e0       	ldi	r31, 0x0A	; 10
     15c:	12 86       	std	Z+10, r1	; 0x0a
     15e:	10 82       	st	Z, r1
     160:	78 94       	sei
     162:	08 95       	ret

00000164 <_ZN7TickTag10L70powerOnEv>:
     164:	e0 e4       	ldi	r30, 0x40	; 64
     166:	f4 e0       	ldi	r31, 0x04	; 4
     168:	80 81       	ld	r24, Z
     16a:	88 60       	ori	r24, 0x08	; 8
     16c:	80 83       	st	Z, r24
     16e:	88 e0       	ldi	r24, 0x08	; 8
     170:	85 83       	std	Z+5, r24	; 0x05
     172:	08 95       	ret

00000174 <_ZN7TickTag11L70powerOffEv>:
     174:	e0 e4       	ldi	r30, 0x40	; 64
     176:	f4 e0       	ldi	r31, 0x04	; 4
     178:	80 81       	ld	r24, Z
     17a:	88 60       	ori	r24, 0x08	; 8
     17c:	80 83       	st	Z, r24
     17e:	88 e0       	ldi	r24, 0x08	; 8
     180:	86 83       	std	Z+6, r24	; 0x06
     182:	08 95       	ret

00000184 <_ZN7TickTag11L70backupOnEv>:
     184:	e0 e0       	ldi	r30, 0x00	; 0
     186:	f4 e0       	ldi	r31, 0x04	; 4
     188:	80 81       	ld	r24, Z
     18a:	88 60       	ori	r24, 0x08	; 8
     18c:	80 83       	st	Z, r24
     18e:	88 e0       	ldi	r24, 0x08	; 8
     190:	85 83       	std	Z+5, r24	; 0x05
     192:	08 95       	ret

00000194 <_ZN7TickTag20powerMemoryAndI2COffEv>:
     194:	e0 e2       	ldi	r30, 0x20	; 32
     196:	f4 e0       	ldi	r31, 0x04	; 4
     198:	80 81       	ld	r24, Z
     19a:	80 61       	ori	r24, 0x10	; 16
     19c:	80 83       	st	Z, r24
     19e:	80 e1       	ldi	r24, 0x10	; 16
     1a0:	86 83       	std	Z+6, r24	; 0x06
     1a2:	08 95       	ret

000001a4 <_ZN7TickTag19powerMemoryAndI2COnEv>:
     1a4:	e0 e2       	ldi	r30, 0x20	; 32
     1a6:	f4 e0       	ldi	r31, 0x04	; 4
     1a8:	80 81       	ld	r24, Z
     1aa:	80 61       	ori	r24, 0x10	; 16
     1ac:	80 83       	st	Z, r24
     1ae:	80 e1       	ldi	r24, 0x10	; 16
     1b0:	85 83       	std	Z+5, r24	; 0x05
     1b2:	89 ef       	ldi	r24, 0xF9	; 249
     1b4:	90 e0       	ldi	r25, 0x00	; 0
     1b6:	01 97       	sbiw	r24, 0x01	; 1
     1b8:	f1 f7       	brne	.-4      	; 0x1b6 <_ZN7TickTag19powerMemoryAndI2COnEv+0x12>
     1ba:	00 c0       	rjmp	.+0      	; 0x1bc <_ZN7TickTag19powerMemoryAndI2COnEv+0x18>
     1bc:	00 00       	nop
     1be:	08 95       	ret

000001c0 <_ZN7TickTag12standbySleepEv>:
     1c0:	0e 94 ab 00 	call	0x156	; 0x156 <_Z9stopTimerv>
     1c4:	e0 e2       	ldi	r30, 0x20	; 32
     1c6:	f4 e0       	ldi	r31, 0x04	; 4
     1c8:	10 8a       	std	Z+16, r1	; 0x10
     1ca:	11 8a       	std	Z+17, r1	; 0x11
     1cc:	e0 e5       	ldi	r30, 0x50	; 80
     1ce:	f0 e0       	ldi	r31, 0x00	; 0
     1d0:	80 81       	ld	r24, Z
     1d2:	89 7f       	andi	r24, 0xF9	; 249
     1d4:	82 60       	ori	r24, 0x02	; 2
     1d6:	80 83       	st	Z, r24
     1d8:	80 81       	ld	r24, Z
     1da:	81 60       	ori	r24, 0x01	; 1
     1dc:	80 83       	st	Z, r24
     1de:	88 95       	sleep
     1e0:	08 95       	ret

000001e2 <_ZN7TickTag24initInternalRTCInterruptEj>:
     1e2:	f8 94       	cli
     1e4:	e0 e4       	ldi	r30, 0x40	; 64
     1e6:	f1 e0       	ldi	r31, 0x01	; 1
     1e8:	81 81       	ldd	r24, Z+1	; 0x01
     1ea:	81 11       	cpse	r24, r1
     1ec:	fd cf       	rjmp	.-6      	; 0x1e8 <_ZN7TickTag24initInternalRTCInterruptEj+0x6>
     1ee:	66 0f       	add	r22, r22
     1f0:	77 1f       	adc	r23, r23
     1f2:	66 0f       	add	r22, r22
     1f4:	77 1f       	adc	r23, r23
     1f6:	e0 e4       	ldi	r30, 0x40	; 64
     1f8:	f1 e0       	ldi	r31, 0x01	; 1
     1fa:	62 87       	std	Z+10, r22	; 0x0a
     1fc:	73 87       	std	Z+11, r23	; 0x0b
     1fe:	81 e0       	ldi	r24, 0x01	; 1
     200:	87 83       	std	Z+7, r24	; 0x07
     202:	91 ec       	ldi	r25, 0xC1	; 193
     204:	90 83       	st	Z, r25
     206:	82 83       	std	Z+2, r24	; 0x02
     208:	78 94       	sei
     20a:	08 95       	ret

0000020c <_ZN7TickTag17readSupplyVoltageEh>:
     20c:	80 e1       	ldi	r24, 0x10	; 16
     20e:	80 93 a0 00 	sts	0x00A0, r24	; 0x8000a0 <__RODATA_PM_OFFSET__+0x7f80a0>
     212:	e0 e0       	ldi	r30, 0x00	; 0
     214:	f6 e0       	ldi	r31, 0x06	; 6
     216:	8d e1       	ldi	r24, 0x1D	; 29
     218:	86 83       	std	Z+6, r24	; 0x06
     21a:	60 61       	ori	r22, 0x10	; 16
     21c:	62 83       	std	Z+2, r22	; 0x02
     21e:	83 e0       	ldi	r24, 0x03	; 3
     220:	80 83       	st	Z, r24
     222:	80 85       	ldd	r24, Z+8	; 0x08
     224:	81 60       	ori	r24, 0x01	; 1
     226:	80 87       	std	Z+8, r24	; 0x08
     228:	81 ee       	ldi	r24, 0xE1	; 225
     22a:	94 e0       	ldi	r25, 0x04	; 4
     22c:	01 97       	sbiw	r24, 0x01	; 1
     22e:	f1 f7       	brne	.-4      	; 0x22c <_ZN7TickTag17readSupplyVoltageEh+0x20>
     230:	00 c0       	rjmp	.+0      	; 0x232 <_ZN7TickTag17readSupplyVoltageEh+0x26>
     232:	00 00       	nop
     234:	83 85       	ldd	r24, Z+11	; 0x0b
     236:	88 23       	and	r24, r24
     238:	e9 f3       	breq	.-6      	; 0x234 <_ZN7TickTag17readSupplyVoltageEh+0x28>
     23a:	e0 e0       	ldi	r30, 0x00	; 0
     23c:	f6 e0       	ldi	r31, 0x06	; 6
     23e:	20 89       	ldd	r18, Z+16	; 0x10
     240:	31 89       	ldd	r19, Z+17	; 0x11
     242:	10 82       	st	Z, r1
     244:	40 e0       	ldi	r20, 0x00	; 0
     246:	50 e0       	ldi	r21, 0x00	; 0
     248:	60 e0       	ldi	r22, 0x00	; 0
     24a:	70 e3       	ldi	r23, 0x30	; 48
     24c:	81 e1       	ldi	r24, 0x11	; 17
     24e:	90 e0       	ldi	r25, 0x00	; 0
     250:	0e 94 1d 0e 	call	0x1c3a	; 0x1c3a <__udivmodsi4>
     254:	c9 01       	movw	r24, r18
     256:	08 95       	ret

00000258 <_ZN7TickTag11setCPUSpeedEh>:
     258:	88 ed       	ldi	r24, 0xD8	; 216
     25a:	61 60       	ori	r22, 0x01	; 1
     25c:	70 e0       	ldi	r23, 0x00	; 0
     25e:	84 bf       	out	0x34, r24	; 52
     260:	60 93 61 00 	sts	0x0061, r22	; 0x800061 <__RODATA_PM_OFFSET__+0x7f8061>
     264:	90 e0       	ldi	r25, 0x00	; 0
     266:	84 bf       	out	0x34, r24	; 52
     268:	90 93 60 00 	sts	0x0060, r25	; 0x800060 <__RODATA_PM_OFFSET__+0x7f8060>
     26c:	e0 e6       	ldi	r30, 0x60	; 96
     26e:	f0 e0       	ldi	r31, 0x00	; 0
     270:	83 81       	ldd	r24, Z+3	; 0x03
     272:	80 fd       	sbrc	r24, 0
     274:	fd cf       	rjmp	.-6      	; 0x270 <_ZN7TickTag11setCPUSpeedEh+0x18>
     276:	08 95       	ret

00000278 <_ZN7TickTag5ledOnEv>:

void TickTag::ledOn() {
	PORTB.DIR |= PIN5_bm; // output
     278:	e0 e2       	ldi	r30, 0x20	; 32
     27a:	f4 e0       	ldi	r31, 0x04	; 4
     27c:	80 81       	ld	r24, Z
     27e:	80 62       	ori	r24, 0x20	; 32
     280:	80 83       	st	Z, r24
	PORTB.OUTSET = PIN5_bm; // on
     282:	80 e2       	ldi	r24, 0x20	; 32
     284:	85 83       	std	Z+5, r24	; 0x05
     286:	08 95       	ret

00000288 <_ZN7TickTag6ledOffEv>:
}

void TickTag::ledOff() {
	PORTB.DIR |= PIN5_bm; // output, important, otherwise leakage in sleep
     288:	e0 e2       	ldi	r30, 0x20	; 32
     28a:	f4 e0       	ldi	r31, 0x04	; 4
     28c:	80 81       	ld	r24, Z
     28e:	80 62       	ori	r24, 0x20	; 32
     290:	80 83       	st	Z, r24
	PORTB.OUTCLR = PIN5_bm; // off
     292:	80 e2       	ldi	r24, 0x20	; 32
     294:	86 83       	std	Z+6, r24	; 0x06
     296:	08 95       	ret

00000298 <_ZN15EEPROM_CAT24M0110readMemoryEmPhm>:
	else { // use second page (different I2C address)
		return EEPROM_CAT24M01_ADDRESS_2;
	}	
}

bool EEPROM_CAT24M01::readMemory(uint32_t adr, uint8_t *result_arr, uint32_t len) {
     298:	2f 92       	push	r2
     29a:	3f 92       	push	r3
     29c:	4f 92       	push	r4
     29e:	5f 92       	push	r5
     2a0:	6f 92       	push	r6
     2a2:	7f 92       	push	r7
     2a4:	8f 92       	push	r8
     2a6:	9f 92       	push	r9
     2a8:	af 92       	push	r10
     2aa:	bf 92       	push	r11
     2ac:	cf 92       	push	r12
     2ae:	df 92       	push	r13
     2b0:	ef 92       	push	r14
     2b2:	ff 92       	push	r15
     2b4:	0f 93       	push	r16
     2b6:	1f 93       	push	r17
     2b8:	cf 93       	push	r28
     2ba:	df 93       	push	r29
	// read wraps around automatically
	if(adr + len > EEPROM_CAT24M01_MEM_SIZE) {
     2bc:	db 01       	movw	r26, r22
     2be:	ca 01       	movw	r24, r20
     2c0:	8e 0d       	add	r24, r14
     2c2:	9f 1d       	adc	r25, r15
     2c4:	a0 1f       	adc	r26, r16
     2c6:	b1 1f       	adc	r27, r17
     2c8:	01 97       	sbiw	r24, 0x01	; 1
     2ca:	a2 40       	sbci	r26, 0x02	; 2
     2cc:	b1 05       	cpc	r27, r1
     2ce:	08 f0       	brcs	.+2      	; 0x2d2 <_ZN15EEPROM_CAT24M0110readMemoryEmPhm+0x3a>
     2d0:	48 c0       	rjmp	.+144    	; 0x362 <_ZN15EEPROM_CAT24M0110readMemoryEmPhm+0xca>
	i2cStop();
	return true;
}

uint8_t EEPROM_CAT24M01::getI2CAddress(uint32_t adr) {
	if(adr < EEPROM_CAT24M01_MEM_SIZE / 2) { // 2^16, use first page
     2d2:	41 15       	cp	r20, r1
     2d4:	51 05       	cpc	r21, r1
     2d6:	81 e0       	ldi	r24, 0x01	; 1
     2d8:	68 07       	cpc	r22, r24
     2da:	71 05       	cpc	r23, r1
     2dc:	10 f0       	brcs	.+4      	; 0x2e2 <_ZN15EEPROM_CAT24M0110readMemoryEmPhm+0x4a>
		return EEPROM_CAT24M01_ADDRESS;
	}
	else { // use second page (different I2C address)
		return EEPROM_CAT24M01_ADDRESS_2;
     2de:	c1 e5       	ldi	r28, 0x51	; 81
     2e0:	01 c0       	rjmp	.+2      	; 0x2e4 <_ZN15EEPROM_CAT24M0110readMemoryEmPhm+0x4c>
	return true;
}

uint8_t EEPROM_CAT24M01::getI2CAddress(uint32_t adr) {
	if(adr < EEPROM_CAT24M01_MEM_SIZE / 2) { // 2^16, use first page
		return EEPROM_CAT24M01_ADDRESS;
     2e2:	c0 e5       	ldi	r28, 0x50	; 80
     2e4:	67 01       	movw	r12, r14
     2e6:	78 01       	movw	r14, r16
     2e8:	19 01       	movw	r2, r18
     2ea:	4a 01       	movw	r8, r20
     2ec:	5b 01       	movw	r10, r22
	if(adr + len > EEPROM_CAT24M01_MEM_SIZE) {
		return false;
	}
	uint8_t i2cAddress = getI2CAddress(adr);
	
	if(!i2cStartWrite(i2cAddress)) { return false; }
     2ee:	8c 2f       	mov	r24, r28
     2f0:	0e 94 36 08 	call	0x106c	; 0x106c <_Z13i2cStartWriteh>
     2f4:	18 2f       	mov	r17, r24
     2f6:	88 23       	and	r24, r24
     2f8:	a9 f1       	breq	.+106    	; 0x364 <_ZN15EEPROM_CAT24M0110readMemoryEmPhm+0xcc>
	if(!i2cWrite((adr >> 8) & 0xff)) { return false; }
     2fa:	89 2d       	mov	r24, r9
     2fc:	0e 94 67 08 	call	0x10ce	; 0x10ce <_Z8i2cWriteh>
     300:	18 2f       	mov	r17, r24
     302:	88 23       	and	r24, r24
     304:	79 f1       	breq	.+94     	; 0x364 <_ZN15EEPROM_CAT24M0110readMemoryEmPhm+0xcc>
	if(!i2cWrite((adr >> 0) & 0xff)) { return false; }
     306:	88 2d       	mov	r24, r8
     308:	0e 94 67 08 	call	0x10ce	; 0x10ce <_Z8i2cWriteh>
     30c:	18 2f       	mov	r17, r24
     30e:	88 23       	and	r24, r24
     310:	49 f1       	breq	.+82     	; 0x364 <_ZN15EEPROM_CAT24M0110readMemoryEmPhm+0xcc>
	
	if(!i2cStartRead(i2cAddress)) { return false; }
     312:	8c 2f       	mov	r24, r28
     314:	0e 94 24 08 	call	0x1048	; 0x1048 <_Z12i2cStartReadh>
     318:	18 2f       	mov	r17, r24
     31a:	88 23       	and	r24, r24
     31c:	19 f1       	breq	.+70     	; 0x364 <_ZN15EEPROM_CAT24M0110readMemoryEmPhm+0xcc>
	uint32_t i = 0;
	while(i < (len - 1)) {
     31e:	e1 e0       	ldi	r30, 0x01	; 1
     320:	ce 1a       	sub	r12, r30
     322:	d1 08       	sbc	r13, r1
     324:	e1 08       	sbc	r14, r1
     326:	f1 08       	sbc	r15, r1
     328:	91 f0       	breq	.+36     	; 0x34e <_ZN15EEPROM_CAT24M0110readMemoryEmPhm+0xb6>
     32a:	e1 01       	movw	r28, r2
     32c:	41 2c       	mov	r4, r1
     32e:	51 2c       	mov	r5, r1
     330:	32 01       	movw	r6, r4
		result_arr[i] = i2cRead(true); // with ack
     332:	81 e0       	ldi	r24, 0x01	; 1
     334:	0e 94 47 08 	call	0x108e	; 0x108e <_Z7i2cReadb>
     338:	89 93       	st	Y+, r24
		i++;
     33a:	8f ef       	ldi	r24, 0xFF	; 255
     33c:	48 1a       	sub	r4, r24
     33e:	58 0a       	sbc	r5, r24
     340:	68 0a       	sbc	r6, r24
     342:	78 0a       	sbc	r7, r24
	if(!i2cWrite((adr >> 8) & 0xff)) { return false; }
	if(!i2cWrite((adr >> 0) & 0xff)) { return false; }
	
	if(!i2cStartRead(i2cAddress)) { return false; }
	uint32_t i = 0;
	while(i < (len - 1)) {
     344:	4c 14       	cp	r4, r12
     346:	5d 04       	cpc	r5, r13
     348:	6e 04       	cpc	r6, r14
     34a:	7f 04       	cpc	r7, r15
     34c:	90 f3       	brcs	.-28     	; 0x332 <_ZN15EEPROM_CAT24M0110readMemoryEmPhm+0x9a>
		result_arr[i] = i2cRead(true); // with ack
		i++;
	}
	result_arr[i] = i2cRead(false); // last one: no ack
     34e:	e1 01       	movw	r28, r2
     350:	cc 0d       	add	r28, r12
     352:	dd 1d       	adc	r29, r13
     354:	80 e0       	ldi	r24, 0x00	; 0
     356:	0e 94 47 08 	call	0x108e	; 0x108e <_Z7i2cReadb>
     35a:	88 83       	st	Y, r24
	i2cStop();
     35c:	0e 94 85 08 	call	0x110a	; 0x110a <_Z7i2cStopv>
	return true;
     360:	01 c0       	rjmp	.+2      	; 0x364 <_ZN15EEPROM_CAT24M0110readMemoryEmPhm+0xcc>
}

bool EEPROM_CAT24M01::readMemory(uint32_t adr, uint8_t *result_arr, uint32_t len) {
	// read wraps around automatically
	if(adr + len > EEPROM_CAT24M01_MEM_SIZE) {
		return false;
     362:	10 e0       	ldi	r17, 0x00	; 0
		i++;
	}
	result_arr[i] = i2cRead(false); // last one: no ack
	i2cStop();
	return true;
}
     364:	81 2f       	mov	r24, r17
     366:	df 91       	pop	r29
     368:	cf 91       	pop	r28
     36a:	1f 91       	pop	r17
     36c:	0f 91       	pop	r16
     36e:	ff 90       	pop	r15
     370:	ef 90       	pop	r14
     372:	df 90       	pop	r13
     374:	cf 90       	pop	r12
     376:	bf 90       	pop	r11
     378:	af 90       	pop	r10
     37a:	9f 90       	pop	r9
     37c:	8f 90       	pop	r8
     37e:	7f 90       	pop	r7
     380:	6f 90       	pop	r6
     382:	5f 90       	pop	r5
     384:	4f 90       	pop	r4
     386:	3f 90       	pop	r3
     388:	2f 90       	pop	r2
     38a:	08 95       	ret

0000038c <_ZN15EEPROM_CAT24M0111busyWritingEv>:

bool EEPROM_CAT24M01::busyWriting() {
     38c:	ef 92       	push	r14
     38e:	ff 92       	push	r15
     390:	0f 93       	push	r16
     392:	1f 93       	push	r17
     394:	cf 93       	push	r28
     396:	df 93       	push	r29
     398:	1f 92       	push	r1
     39a:	cd b7       	in	r28, 0x3d	; 61
     39c:	de b7       	in	r29, 0x3e	; 62
	uint8_t val = 0x0;
     39e:	19 82       	std	Y+1, r1	; 0x01
	if(!readMemory(0, &val, 1)) { return true; }
     3a0:	e1 2c       	mov	r14, r1
     3a2:	f1 2c       	mov	r15, r1
     3a4:	87 01       	movw	r16, r14
     3a6:	e3 94       	inc	r14
     3a8:	9e 01       	movw	r18, r28
     3aa:	2f 5f       	subi	r18, 0xFF	; 255
     3ac:	3f 4f       	sbci	r19, 0xFF	; 255
     3ae:	40 e0       	ldi	r20, 0x00	; 0
     3b0:	50 e0       	ldi	r21, 0x00	; 0
     3b2:	ba 01       	movw	r22, r20
     3b4:	0e 94 4c 01 	call	0x298	; 0x298 <_ZN15EEPROM_CAT24M0110readMemoryEmPhm>
	return false; // ACKed the command
}
     3b8:	91 e0       	ldi	r25, 0x01	; 1
     3ba:	89 27       	eor	r24, r25
     3bc:	0f 90       	pop	r0
     3be:	df 91       	pop	r29
     3c0:	cf 91       	pop	r28
     3c2:	1f 91       	pop	r17
     3c4:	0f 91       	pop	r16
     3c6:	ff 90       	pop	r15
     3c8:	ef 90       	pop	r14
     3ca:	08 95       	ret

000003cc <_ZN15EEPROM_CAT24M0111writeMemoryEmPhm>:

bool EEPROM_CAT24M01::writeMemory(uint32_t adr, uint8_t *value_arr, uint32_t len) {
     3cc:	2f 92       	push	r2
     3ce:	3f 92       	push	r3
     3d0:	4f 92       	push	r4
     3d2:	5f 92       	push	r5
     3d4:	6f 92       	push	r6
     3d6:	7f 92       	push	r7
     3d8:	8f 92       	push	r8
     3da:	9f 92       	push	r9
     3dc:	af 92       	push	r10
     3de:	bf 92       	push	r11
     3e0:	cf 92       	push	r12
     3e2:	df 92       	push	r13
     3e4:	ef 92       	push	r14
     3e6:	ff 92       	push	r15
     3e8:	0f 93       	push	r16
     3ea:	1f 93       	push	r17
     3ec:	cf 93       	push	r28
     3ee:	df 93       	push	r29
     3f0:	cd b7       	in	r28, 0x3d	; 61
     3f2:	de b7       	in	r29, 0x3e	; 62
     3f4:	2b 97       	sbiw	r28, 0x0b	; 11
     3f6:	cd bf       	out	0x3d, r28	; 61
     3f8:	de bf       	out	0x3e, r29	; 62
     3fa:	8d 83       	std	Y+5, r24	; 0x05
     3fc:	9e 83       	std	Y+6, r25	; 0x06
     3fe:	2a 01       	movw	r4, r20
     400:	3b 01       	movw	r6, r22
     402:	19 01       	movw	r2, r18
     404:	47 01       	movw	r8, r14
     406:	58 01       	movw	r10, r16
	uint16_t oneWriteCycleLen;
	bool finished = false;
	uint32_t arrayIndex = 0;
	uint16_t busyWritingTimeoutMs;
	
	if((adr + len > EEPROM_CAT24M01_MEM_SIZE) || (len == 0)) {
     408:	db 01       	movw	r26, r22
     40a:	ca 01       	movw	r24, r20
     40c:	8e 0d       	add	r24, r14
     40e:	9f 1d       	adc	r25, r15
     410:	a0 1f       	adc	r26, r16
     412:	b1 1f       	adc	r27, r17
     414:	01 97       	sbiw	r24, 0x01	; 1
     416:	a2 40       	sbci	r26, 0x02	; 2
     418:	b1 05       	cpc	r27, r1
     41a:	08 f0       	brcs	.+2      	; 0x41e <__LOCK_REGION_LENGTH__+0x1e>
     41c:	cc c0       	rjmp	.+408    	; 0x5b6 <__LOCK_REGION_LENGTH__+0x1b6>
     41e:	ef 28       	or	r14, r15
     420:	e0 2a       	or	r14, r16
     422:	e1 2a       	or	r14, r17
     424:	09 f4       	brne	.+2      	; 0x428 <__LOCK_REGION_LENGTH__+0x28>
     426:	c9 c0       	rjmp	.+402    	; 0x5ba <__LOCK_REGION_LENGTH__+0x1ba>
     428:	40 e7       	ldi	r20, 0x70	; 112
     42a:	57 e1       	ldi	r21, 0x17	; 23
     42c:	4f 83       	std	Y+7, r20	; 0x07
     42e:	58 87       	std	Y+8, r21	; 0x08
     430:	19 82       	std	Y+1, r1	; 0x01
     432:	1a 82       	std	Y+2, r1	; 0x02
     434:	1b 82       	std	Y+3, r1	; 0x03
     436:	1c 82       	std	Y+4, r1	; 0x04
     438:	03 c0       	rjmp	.+6      	; 0x440 <__LOCK_REGION_LENGTH__+0x40>
		return false;
	}
	
	while(!finished) {
     43a:	59 85       	ldd	r21, Y+9	; 0x09
     43c:	51 11       	cpse	r21, r1
     43e:	bf c0       	rjmp	.+382    	; 0x5be <__LOCK_REGION_LENGTH__+0x1be>
		// calculate how much to write
		pageStillFits = (uint16_t) (EEPROM_CAT24M01_PAGE_SIZE - (adr % EEPROM_CAT24M01_PAGE_SIZE)); // warning: page size maximum 2^16 = 65536
     440:	c2 01       	movw	r24, r4
     442:	99 27       	eor	r25, r25
     444:	c1 2c       	mov	r12, r1
     446:	dd 24       	eor	r13, r13
     448:	d3 94       	inc	r13
     44a:	c8 1a       	sub	r12, r24
     44c:	d9 0a       	sbc	r13, r25
		if(pageStillFits > EEPROM_CAT24M01_MAX_WRITE_LENGTH) { // page still fits more than 256 Bytes
     44e:	81 e0       	ldi	r24, 0x01	; 1
     450:	c8 16       	cp	r12, r24
     452:	d8 06       	cpc	r13, r24
     454:	50 f0       	brcs	.+20     	; 0x46a <__LOCK_REGION_LENGTH__+0x6a>
			if(len <= EEPROM_CAT24M01_MAX_WRITE_LENGTH) { // all remaining data can go into the next 256 Bytes
     456:	91 e0       	ldi	r25, 0x01	; 1
     458:	89 16       	cp	r8, r25
     45a:	99 06       	cpc	r9, r25
     45c:	a1 04       	cpc	r10, r1
     45e:	b1 04       	cpc	r11, r1
     460:	80 f4       	brcc	.+32     	; 0x482 <__LOCK_REGION_LENGTH__+0x82>
				oneWriteCycleLen = len;
     462:	64 01       	movw	r12, r8
				finished = true;
     464:	e1 e0       	ldi	r30, 0x01	; 1
     466:	e9 87       	std	Y+9, r30	; 0x09
     468:	12 c0       	rjmp	.+36     	; 0x48e <__LOCK_REGION_LENGTH__+0x8e>
			else { // write 256 Bytes, but next iteration necessary
				oneWriteCycleLen = EEPROM_CAT24M01_MAX_WRITE_LENGTH;
			}
		}
		else { // page fits less than 256 Bytes, cannot write full length
			if(len <= pageStillFits) { // all remaining data can go into less than 30 Bytes
     46a:	c6 01       	movw	r24, r12
     46c:	a0 e0       	ldi	r26, 0x00	; 0
     46e:	b0 e0       	ldi	r27, 0x00	; 0
     470:	88 15       	cp	r24, r8
     472:	99 05       	cpc	r25, r9
     474:	aa 05       	cpc	r26, r10
     476:	bb 05       	cpc	r27, r11
     478:	48 f0       	brcs	.+18     	; 0x48c <__LOCK_REGION_LENGTH__+0x8c>
				oneWriteCycleLen = len;
     47a:	64 01       	movw	r12, r8
				finished = true;
     47c:	f1 e0       	ldi	r31, 0x01	; 1
     47e:	f9 87       	std	Y+9, r31	; 0x09
     480:	06 c0       	rjmp	.+12     	; 0x48e <__LOCK_REGION_LENGTH__+0x8e>
     482:	19 86       	std	Y+9, r1	; 0x09
			if(len <= EEPROM_CAT24M01_MAX_WRITE_LENGTH) { // all remaining data can go into the next 256 Bytes
				oneWriteCycleLen = len;
				finished = true;
			}
			else { // write 256 Bytes, but next iteration necessary
				oneWriteCycleLen = EEPROM_CAT24M01_MAX_WRITE_LENGTH;
     484:	c1 2c       	mov	r12, r1
     486:	dd 24       	eor	r13, r13
     488:	d3 94       	inc	r13
     48a:	01 c0       	rjmp	.+2      	; 0x48e <__LOCK_REGION_LENGTH__+0x8e>
     48c:	19 86       	std	Y+9, r1	; 0x09
				oneWriteCycleLen = pageStillFits; // warning, assigning 16bit integer to 8bit, should be fine because pageStillFits <= 256
			}
		}
		
		// write
		printf("WRITE %lu\n\r", adr);
     48e:	7f 92       	push	r7
     490:	6f 92       	push	r6
     492:	5f 92       	push	r5
     494:	4f 92       	push	r4
     496:	2a e2       	ldi	r18, 0x2A	; 42
     498:	33 ea       	ldi	r19, 0xA3	; 163
     49a:	3f 93       	push	r19
     49c:	2f 93       	push	r18
     49e:	0e 94 bb 0e 	call	0x1d76	; 0x1d76 <printf>
	i2cStop();
	return true;
}

uint8_t EEPROM_CAT24M01::getI2CAddress(uint32_t adr) {
	if(adr < EEPROM_CAT24M01_MEM_SIZE / 2) { // 2^16, use first page
     4a2:	0f 90       	pop	r0
     4a4:	0f 90       	pop	r0
     4a6:	0f 90       	pop	r0
     4a8:	0f 90       	pop	r0
     4aa:	0f 90       	pop	r0
     4ac:	0f 90       	pop	r0
     4ae:	41 14       	cp	r4, r1
     4b0:	51 04       	cpc	r5, r1
     4b2:	51 e0       	ldi	r21, 0x01	; 1
     4b4:	65 06       	cpc	r6, r21
     4b6:	71 04       	cpc	r7, r1
     4b8:	10 f0       	brcs	.+4      	; 0x4be <__LOCK_REGION_LENGTH__+0xbe>
		return EEPROM_CAT24M01_ADDRESS;
	}
	else { // use second page (different I2C address)
		return EEPROM_CAT24M01_ADDRESS_2;
     4ba:	81 e5       	ldi	r24, 0x51	; 81
     4bc:	01 c0       	rjmp	.+2      	; 0x4c0 <__LOCK_REGION_LENGTH__+0xc0>
	return true;
}

uint8_t EEPROM_CAT24M01::getI2CAddress(uint32_t adr) {
	if(adr < EEPROM_CAT24M01_MEM_SIZE / 2) { // 2^16, use first page
		return EEPROM_CAT24M01_ADDRESS;
     4be:	80 e5       	ldi	r24, 0x50	; 80
		}
		
		// write
		printf("WRITE %lu\n\r", adr);
		uint8_t i2cAddress = getI2CAddress(adr);
		if(!i2cStartWrite(i2cAddress)) { return false; }
     4c0:	0e 94 36 08 	call	0x106c	; 0x106c <_Z13i2cStartWriteh>
     4c4:	f8 2e       	mov	r15, r24
     4c6:	88 23       	and	r24, r24
     4c8:	09 f4       	brne	.+2      	; 0x4cc <__LOCK_REGION_LENGTH__+0xcc>
     4ca:	80 c0       	rjmp	.+256    	; 0x5cc <__LOCK_REGION_LENGTH__+0x1cc>
		if(!i2cWrite((adr >> 8) & 0xff)) { return false; }
     4cc:	85 2d       	mov	r24, r5
     4ce:	0e 94 67 08 	call	0x10ce	; 0x10ce <_Z8i2cWriteh>
     4d2:	f8 2e       	mov	r15, r24
     4d4:	88 23       	and	r24, r24
     4d6:	09 f4       	brne	.+2      	; 0x4da <__LOCK_REGION_LENGTH__+0xda>
     4d8:	79 c0       	rjmp	.+242    	; 0x5cc <__LOCK_REGION_LENGTH__+0x1cc>
		if(!i2cWrite((adr >> 0) & 0xff)) { return false; }
     4da:	84 2d       	mov	r24, r4
     4dc:	0e 94 67 08 	call	0x10ce	; 0x10ce <_Z8i2cWriteh>
     4e0:	e8 2e       	mov	r14, r24
     4e2:	88 23       	and	r24, r24
     4e4:	09 f4       	brne	.+2      	; 0x4e8 <__LOCK_REGION_LENGTH__+0xe8>
     4e6:	6d c0       	rjmp	.+218    	; 0x5c2 <__LOCK_REGION_LENGTH__+0x1c2>
		for(uint16_t i = 0; i < oneWriteCycleLen; i++) { // append data
     4e8:	c1 14       	cp	r12, r1
     4ea:	d1 04       	cpc	r13, r1
     4ec:	c9 f0       	breq	.+50     	; 0x520 <__LOCK_REGION_LENGTH__+0x120>
     4ee:	09 81       	ldd	r16, Y+1	; 0x01
     4f0:	1a 81       	ldd	r17, Y+2	; 0x02
     4f2:	02 0d       	add	r16, r2
     4f4:	13 1d       	adc	r17, r3
     4f6:	89 81       	ldd	r24, Y+1	; 0x01
     4f8:	9a 81       	ldd	r25, Y+2	; 0x02
     4fa:	8c 0d       	add	r24, r12
     4fc:	9d 1d       	adc	r25, r13
     4fe:	82 0d       	add	r24, r2
     500:	93 1d       	adc	r25, r3
     502:	8a 87       	std	Y+10, r24	; 0x0a
     504:	9b 87       	std	Y+11, r25	; 0x0b
			if(!i2cWrite(value_arr[arrayIndex+i])) { return false; }
     506:	f8 01       	movw	r30, r16
     508:	81 91       	ld	r24, Z+
     50a:	8f 01       	movw	r16, r30
     50c:	0e 94 67 08 	call	0x10ce	; 0x10ce <_Z8i2cWriteh>
     510:	88 23       	and	r24, r24
     512:	09 f4       	brne	.+2      	; 0x516 <__LOCK_REGION_LENGTH__+0x116>
     514:	5a c0       	rjmp	.+180    	; 0x5ca <__LOCK_REGION_LENGTH__+0x1ca>
		printf("WRITE %lu\n\r", adr);
		uint8_t i2cAddress = getI2CAddress(adr);
		if(!i2cStartWrite(i2cAddress)) { return false; }
		if(!i2cWrite((adr >> 8) & 0xff)) { return false; }
		if(!i2cWrite((adr >> 0) & 0xff)) { return false; }
		for(uint16_t i = 0; i < oneWriteCycleLen; i++) { // append data
     516:	2a 85       	ldd	r18, Y+10	; 0x0a
     518:	3b 85       	ldd	r19, Y+11	; 0x0b
     51a:	02 17       	cp	r16, r18
     51c:	13 07       	cpc	r17, r19
     51e:	99 f7       	brne	.-26     	; 0x506 <__LOCK_REGION_LENGTH__+0x106>
			if(!i2cWrite(value_arr[arrayIndex+i])) { return false; }
		}
		i2cStop();
     520:	0e 94 85 08 	call	0x110a	; 0x110a <_Z7i2cStopv>
		
		// wait until written
		busyWritingTimeoutMs = 1000;
     524:	48 ee       	ldi	r20, 0xE8	; 232
     526:	53 e0       	ldi	r21, 0x03	; 3
     528:	4a 87       	std	Y+10, r20	; 0x0a
     52a:	5b 87       	std	Y+11, r21	; 0x0b
     52c:	0d 81       	ldd	r16, Y+5	; 0x05
     52e:	1e 81       	ldd	r17, Y+6	; 0x06
		while(busyWriting()) {
     530:	c8 01       	movw	r24, r16
     532:	0e 94 c6 01 	call	0x38c	; 0x38c <_ZN15EEPROM_CAT24M0111busyWritingEv>
     536:	88 23       	and	r24, r24
     538:	71 f0       	breq	.+28     	; 0x556 <__LOCK_REGION_LENGTH__+0x156>
	#else
		//round up by default
		__ticks_dc = (uint32_t)(ceil(fabs(__tmp)));
	#endif

	__builtin_avr_delay_cycles(__ticks_dc);
     53a:	89 ef       	ldi	r24, 0xF9	; 249
     53c:	90 e0       	ldi	r25, 0x00	; 0
     53e:	01 97       	sbiw	r24, 0x01	; 1
     540:	f1 f7       	brne	.-4      	; 0x53e <__LOCK_REGION_LENGTH__+0x13e>
     542:	00 c0       	rjmp	.+0      	; 0x544 <__LOCK_REGION_LENGTH__+0x144>
     544:	00 00       	nop
			_delay_ms(1);
			busyWritingTimeoutMs--;
     546:	ea 85       	ldd	r30, Y+10	; 0x0a
     548:	fb 85       	ldd	r31, Y+11	; 0x0b
     54a:	31 97       	sbiw	r30, 0x01	; 1
     54c:	ea 87       	std	Y+10, r30	; 0x0a
     54e:	fb 87       	std	Y+11, r31	; 0x0b
			if(busyWritingTimeoutMs == 0) { return false; }
     550:	ef 2b       	or	r30, r31
     552:	71 f7       	brne	.-36     	; 0x530 <__LOCK_REGION_LENGTH__+0x130>
     554:	38 c0       	rjmp	.+112    	; 0x5c6 <__LOCK_REGION_LENGTH__+0x1c6>
     556:	2a 85       	ldd	r18, Y+10	; 0x0a
     558:	3b 85       	ldd	r19, Y+11	; 0x0b
     55a:	f8 2e       	mov	r15, r24
		}
		printf("TO %d\n\r", busyWritingTimeoutMs);
     55c:	3f 93       	push	r19
     55e:	2f 93       	push	r18
     560:	46 e3       	ldi	r20, 0x36	; 54
     562:	53 ea       	ldi	r21, 0xA3	; 163
     564:	5f 93       	push	r21
     566:	4f 93       	push	r20
     568:	0e 94 bb 0e 	call	0x1d76	; 0x1d76 <printf>
		
		// decrement for next cycle
		len -= oneWriteCycleLen;
     56c:	c6 01       	movw	r24, r12
     56e:	a0 e0       	ldi	r26, 0x00	; 0
     570:	b0 e0       	ldi	r27, 0x00	; 0
     572:	88 1a       	sub	r8, r24
     574:	99 0a       	sbc	r9, r25
     576:	aa 0a       	sbc	r10, r26
     578:	bb 0a       	sbc	r11, r27
		adr += oneWriteCycleLen;
     57a:	48 0e       	add	r4, r24
     57c:	59 1e       	adc	r5, r25
     57e:	6a 1e       	adc	r6, r26
     580:	7b 1e       	adc	r7, r27
		arrayIndex += oneWriteCycleLen;
     582:	29 81       	ldd	r18, Y+1	; 0x01
     584:	3a 81       	ldd	r19, Y+2	; 0x02
     586:	4b 81       	ldd	r20, Y+3	; 0x03
     588:	5c 81       	ldd	r21, Y+4	; 0x04
     58a:	28 0f       	add	r18, r24
     58c:	39 1f       	adc	r19, r25
     58e:	4a 1f       	adc	r20, r26
     590:	5b 1f       	adc	r21, r27
     592:	29 83       	std	Y+1, r18	; 0x01
     594:	3a 83       	std	Y+2, r19	; 0x02
     596:	4b 83       	std	Y+3, r20	; 0x03
     598:	5c 83       	std	Y+4, r21	; 0x04
     59a:	4f 81       	ldd	r20, Y+7	; 0x07
     59c:	58 85       	ldd	r21, Y+8	; 0x08
     59e:	41 50       	subi	r20, 0x01	; 1
     5a0:	51 09       	sbc	r21, r1
     5a2:	4f 83       	std	Y+7, r20	; 0x07
     5a4:	58 87       	std	Y+8, r21	; 0x08
		protectionCount--;
		if(protectionCount == 0) { // timeout
     5a6:	0f 90       	pop	r0
     5a8:	0f 90       	pop	r0
     5aa:	0f 90       	pop	r0
     5ac:	0f 90       	pop	r0
     5ae:	45 2b       	or	r20, r21
     5b0:	09 f0       	breq	.+2      	; 0x5b4 <__LOCK_REGION_LENGTH__+0x1b4>
     5b2:	43 cf       	rjmp	.-378    	; 0x43a <__LOCK_REGION_LENGTH__+0x3a>
     5b4:	0b c0       	rjmp	.+22     	; 0x5cc <__LOCK_REGION_LENGTH__+0x1cc>
	bool finished = false;
	uint32_t arrayIndex = 0;
	uint16_t busyWritingTimeoutMs;
	
	if((adr + len > EEPROM_CAT24M01_MEM_SIZE) || (len == 0)) {
		return false;
     5b6:	f1 2c       	mov	r15, r1
     5b8:	09 c0       	rjmp	.+18     	; 0x5cc <__LOCK_REGION_LENGTH__+0x1cc>
     5ba:	f1 2c       	mov	r15, r1
     5bc:	07 c0       	rjmp	.+14     	; 0x5cc <__LOCK_REGION_LENGTH__+0x1cc>
		protectionCount--;
		if(protectionCount == 0) { // timeout
			return false;
		}
	}
	return true;
     5be:	fe 2c       	mov	r15, r14
     5c0:	05 c0       	rjmp	.+10     	; 0x5cc <__LOCK_REGION_LENGTH__+0x1cc>
		// write
		printf("WRITE %lu\n\r", adr);
		uint8_t i2cAddress = getI2CAddress(adr);
		if(!i2cStartWrite(i2cAddress)) { return false; }
		if(!i2cWrite((adr >> 8) & 0xff)) { return false; }
		if(!i2cWrite((adr >> 0) & 0xff)) { return false; }
     5c2:	f8 2e       	mov	r15, r24
     5c4:	03 c0       	rjmp	.+6      	; 0x5cc <__LOCK_REGION_LENGTH__+0x1cc>
		// wait until written
		busyWritingTimeoutMs = 1000;
		while(busyWriting()) {
			_delay_ms(1);
			busyWritingTimeoutMs--;
			if(busyWritingTimeoutMs == 0) { return false; }
     5c6:	f1 2c       	mov	r15, r1
     5c8:	01 c0       	rjmp	.+2      	; 0x5cc <__LOCK_REGION_LENGTH__+0x1cc>
     5ca:	f8 2e       	mov	r15, r24
		if(protectionCount == 0) { // timeout
			return false;
		}
	}
	return true;
}
     5cc:	8f 2d       	mov	r24, r15
     5ce:	2b 96       	adiw	r28, 0x0b	; 11
     5d0:	cd bf       	out	0x3d, r28	; 61
     5d2:	de bf       	out	0x3e, r29	; 62
     5d4:	df 91       	pop	r29
     5d6:	cf 91       	pop	r28
     5d8:	1f 91       	pop	r17
     5da:	0f 91       	pop	r16
     5dc:	ff 90       	pop	r15
     5de:	ef 90       	pop	r14
     5e0:	df 90       	pop	r13
     5e2:	cf 90       	pop	r12
     5e4:	bf 90       	pop	r11
     5e6:	af 90       	pop	r10
     5e8:	9f 90       	pop	r9
     5ea:	8f 90       	pop	r8
     5ec:	7f 90       	pop	r7
     5ee:	6f 90       	pop	r6
     5f0:	5f 90       	pop	r5
     5f2:	4f 90       	pop	r4
     5f4:	3f 90       	pop	r3
     5f6:	2f 90       	pop	r2
     5f8:	08 95       	ret

000005fa <_ZN13GPS_L70_Light22convertTwoDigit2NumberEPc>:
		}
		d++;
	}
}

void GPS_L70_Light::decodeGPGGA(char* d, gps_t *gpsData) {
     5fa:	fb 01       	movw	r30, r22
     5fc:	80 81       	ld	r24, Z
     5fe:	88 0f       	add	r24, r24
     600:	80 56       	subi	r24, 0x60	; 96
     602:	98 2f       	mov	r25, r24
     604:	99 0f       	add	r25, r25
     606:	99 0f       	add	r25, r25
     608:	89 0f       	add	r24, r25
     60a:	91 81       	ldd	r25, Z+1	; 0x01
     60c:	90 53       	subi	r25, 0x30	; 48
     60e:	89 0f       	add	r24, r25
     610:	08 95       	ret

00000612 <_Z14removeAllCharsPcc>:
     612:	fc 01       	movw	r30, r24
     614:	90 81       	ld	r25, Z
     616:	99 23       	and	r25, r25
     618:	71 f0       	breq	.+28     	; 0x636 <_Z14removeAllCharsPcc+0x24>
     61a:	df 01       	movw	r26, r30
     61c:	11 96       	adiw	r26, 0x01	; 1
     61e:	90 83       	st	Z, r25
     620:	21 e0       	ldi	r18, 0x01	; 1
     622:	30 e0       	ldi	r19, 0x00	; 0
     624:	69 13       	cpse	r22, r25
     626:	02 c0       	rjmp	.+4      	; 0x62c <_Z14removeAllCharsPcc+0x1a>
     628:	20 e0       	ldi	r18, 0x00	; 0
     62a:	30 e0       	ldi	r19, 0x00	; 0
     62c:	e2 0f       	add	r30, r18
     62e:	f3 1f       	adc	r31, r19
     630:	9d 91       	ld	r25, X+
     632:	91 11       	cpse	r25, r1
     634:	f4 cf       	rjmp	.-24     	; 0x61e <_Z14removeAllCharsPcc+0xc>
     636:	10 82       	st	Z, r1
     638:	08 95       	ret

0000063a <_ZN13GPS_L70_Light12parseLatLongEPc>:
     63a:	8f 92       	push	r8
     63c:	9f 92       	push	r9
     63e:	af 92       	push	r10
     640:	bf 92       	push	r11
     642:	cf 92       	push	r12
     644:	df 92       	push	r13
     646:	ef 92       	push	r14
     648:	ff 92       	push	r15
     64a:	7b 01       	movw	r14, r22
     64c:	6e e2       	ldi	r22, 0x2E	; 46
     64e:	c7 01       	movw	r24, r14
     650:	0e 94 09 03 	call	0x612	; 0x612 <_Z14removeAllCharsPcc>
     654:	c7 01       	movw	r24, r14
     656:	0e 94 78 0e 	call	0x1cf0	; 0x1cf0 <atol>
     65a:	6b 01       	movw	r12, r22
     65c:	7c 01       	movw	r14, r24
     65e:	20 e4       	ldi	r18, 0x40	; 64
     660:	32 e4       	ldi	r19, 0x42	; 66
     662:	4f e0       	ldi	r20, 0x0F	; 15
     664:	50 e0       	ldi	r21, 0x00	; 0
     666:	0e 94 1d 0e 	call	0x1c3a	; 0x1c3a <__udivmodsi4>
     66a:	49 01       	movw	r8, r18
     66c:	5a 01       	movw	r10, r20
     66e:	60 e4       	ldi	r22, 0x40	; 64
     670:	72 e4       	ldi	r23, 0x42	; 66
     672:	8f e0       	ldi	r24, 0x0F	; 15
     674:	90 e0       	ldi	r25, 0x00	; 0
     676:	0e 94 0d 0e 	call	0x1c1a	; 0x1c1a <__mulsi3>
     67a:	a7 01       	movw	r20, r14
     67c:	96 01       	movw	r18, r12
     67e:	26 1b       	sub	r18, r22
     680:	37 0b       	sbc	r19, r23
     682:	48 0b       	sbc	r20, r24
     684:	59 0b       	sbc	r21, r25
     686:	ca 01       	movw	r24, r20
     688:	b9 01       	movw	r22, r18
     68a:	26 e0       	ldi	r18, 0x06	; 6
     68c:	30 e0       	ldi	r19, 0x00	; 0
     68e:	40 e0       	ldi	r20, 0x00	; 0
     690:	50 e0       	ldi	r21, 0x00	; 0
     692:	0e 94 3f 0e 	call	0x1c7e	; 0x1c7e <__divmodsi4>
     696:	69 01       	movw	r12, r18
     698:	7a 01       	movw	r14, r20
     69a:	a5 01       	movw	r20, r10
     69c:	94 01       	movw	r18, r8
     69e:	60 ea       	ldi	r22, 0xA0	; 160
     6a0:	76 e8       	ldi	r23, 0x86	; 134
     6a2:	81 e0       	ldi	r24, 0x01	; 1
     6a4:	90 e0       	ldi	r25, 0x00	; 0
     6a6:	0e 94 0d 0e 	call	0x1c1a	; 0x1c1a <__mulsi3>
     6aa:	6c 0d       	add	r22, r12
     6ac:	7d 1d       	adc	r23, r13
     6ae:	8e 1d       	adc	r24, r14
     6b0:	9f 1d       	adc	r25, r15
     6b2:	ff 90       	pop	r15
     6b4:	ef 90       	pop	r14
     6b6:	df 90       	pop	r13
     6b8:	cf 90       	pop	r12
     6ba:	bf 90       	pop	r11
     6bc:	af 90       	pop	r10
     6be:	9f 90       	pop	r9
     6c0:	8f 90       	pop	r8
     6c2:	08 95       	ret

000006c4 <_ZN13GPS_L70_Light15getUTCTimestampEP5gps_t>:
     6c4:	4f 92       	push	r4
     6c6:	5f 92       	push	r5
     6c8:	6f 92       	push	r6
     6ca:	7f 92       	push	r7
     6cc:	8f 92       	push	r8
     6ce:	9f 92       	push	r9
     6d0:	af 92       	push	r10
     6d2:	bf 92       	push	r11
     6d4:	cf 92       	push	r12
     6d6:	df 92       	push	r13
     6d8:	ef 92       	push	r14
     6da:	ff 92       	push	r15
     6dc:	cf 93       	push	r28
     6de:	df 93       	push	r29
     6e0:	cd b7       	in	r28, 0x3d	; 61
     6e2:	de b7       	in	r29, 0x3e	; 62
     6e4:	e8 97       	sbiw	r28, 0x38	; 56
     6e6:	cd bf       	out	0x3d, r28	; 61
     6e8:	de bf       	out	0x3e, r29	; 62
     6ea:	fb 01       	movw	r30, r22
     6ec:	30 97       	sbiw	r30, 0x00	; 0
     6ee:	09 f4       	brne	.+2      	; 0x6f2 <_ZN13GPS_L70_Light15getUTCTimestampEP5gps_t+0x2e>
     6f0:	f1 c1       	rjmp	.+994    	; 0xad4 <__DATA_REGION_LENGTH__+0x2d4>
     6f2:	65 81       	ldd	r22, Z+5	; 0x05
     6f4:	60 35       	cpi	r22, 0x50	; 80
     6f6:	09 f4       	brne	.+2      	; 0x6fa <_ZN13GPS_L70_Light15getUTCTimestampEP5gps_t+0x36>
     6f8:	f1 c1       	rjmp	.+994    	; 0xadc <__DATA_REGION_LENGTH__+0x2dc>
     6fa:	c6 2e       	mov	r12, r22
     6fc:	d1 2c       	mov	r13, r1
     6fe:	20 e3       	ldi	r18, 0x30	; 48
     700:	c2 1a       	sub	r12, r18
     702:	28 ef       	ldi	r18, 0xF8	; 248
     704:	d2 0a       	sbc	r13, r18
     706:	42 80       	ldd	r4, Z+2	; 0x02
     708:	84 2c       	mov	r8, r4
     70a:	91 2c       	mov	r9, r1
     70c:	a1 2c       	mov	r10, r1
     70e:	b1 2c       	mov	r11, r1
     710:	20 81       	ld	r18, Z
     712:	30 e0       	ldi	r19, 0x00	; 0
     714:	a0 e1       	ldi	r26, 0x10	; 16
     716:	be e0       	ldi	r27, 0x0E	; 14
     718:	0e 94 5e 0e 	call	0x1cbc	; 0x1cbc <__umulhisi3>
     71c:	6d 83       	std	Y+5, r22	; 0x05
     71e:	7e 83       	std	Y+6, r23	; 0x06
     720:	8f 83       	std	Y+7, r24	; 0x07
     722:	98 87       	std	Y+8, r25	; 0x08
     724:	21 81       	ldd	r18, Z+1	; 0x01
     726:	30 e0       	ldi	r19, 0x00	; 0
     728:	ac e3       	ldi	r26, 0x3C	; 60
     72a:	b0 e0       	ldi	r27, 0x00	; 0
     72c:	0e 94 5e 0e 	call	0x1cbc	; 0x1cbc <__umulhisi3>
     730:	69 87       	std	Y+9, r22	; 0x09
     732:	7a 87       	std	Y+10, r23	; 0x0a
     734:	8b 87       	std	Y+11, r24	; 0x0b
     736:	9c 87       	std	Y+12, r25	; 0x0c
     738:	23 81       	ldd	r18, Z+3	; 0x03
     73a:	42 2e       	mov	r4, r18
     73c:	51 2c       	mov	r5, r1
     73e:	61 2c       	mov	r6, r1
     740:	71 2c       	mov	r7, r1
     742:	44 81       	ldd	r20, Z+4	; 0x04
     744:	42 30       	cpi	r20, 0x02	; 2
     746:	28 f4       	brcc	.+10     	; 0x752 <_ZN13GPS_L70_Light15getUTCTimestampEP5gps_t+0x8e>
     748:	19 82       	std	Y+1, r1	; 0x01
     74a:	1a 82       	std	Y+2, r1	; 0x02
     74c:	1b 82       	std	Y+3, r1	; 0x03
     74e:	1c 82       	std	Y+4, r1	; 0x04
     750:	08 c0       	rjmp	.+16     	; 0x762 <_ZN13GPS_L70_Light15getUTCTimestampEP5gps_t+0x9e>
     752:	6f e1       	ldi	r22, 0x1F	; 31
     754:	70 e0       	ldi	r23, 0x00	; 0
     756:	80 e0       	ldi	r24, 0x00	; 0
     758:	90 e0       	ldi	r25, 0x00	; 0
     75a:	69 83       	std	Y+1, r22	; 0x01
     75c:	7a 83       	std	Y+2, r23	; 0x02
     75e:	8b 83       	std	Y+3, r24	; 0x03
     760:	9c 83       	std	Y+4, r25	; 0x04
     762:	43 30       	cpi	r20, 0x03	; 3
     764:	d0 f1       	brcs	.+116    	; 0x7da <_ZN13GPS_L70_Light15getUTCTimestampEP5gps_t+0x116>
     766:	96 01       	movw	r18, r12
     768:	32 95       	swap	r19
     76a:	22 95       	swap	r18
     76c:	2f 70       	andi	r18, 0x0F	; 15
     76e:	23 27       	eor	r18, r19
     770:	3f 70       	andi	r19, 0x0F	; 15
     772:	23 27       	eor	r18, r19
     774:	ae e3       	ldi	r26, 0x3E	; 62
     776:	ba e0       	ldi	r27, 0x0A	; 10
     778:	0e 94 5e 0e 	call	0x1cbc	; 0x1cbc <__umulhisi3>
     77c:	20 e9       	ldi	r18, 0x90	; 144
     77e:	31 e0       	ldi	r19, 0x01	; 1
     780:	dc 01       	movw	r26, r24
     782:	a2 9f       	mul	r26, r18
     784:	c0 01       	movw	r24, r0
     786:	a3 9f       	mul	r26, r19
     788:	90 0d       	add	r25, r0
     78a:	b2 9f       	mul	r27, r18
     78c:	90 0d       	add	r25, r0
     78e:	11 24       	eor	r1, r1
     790:	c8 16       	cp	r12, r24
     792:	d9 06       	cpc	r13, r25
     794:	39 f1       	breq	.+78     	; 0x7e4 <_ZN13GPS_L70_Light15getUTCTimestampEP5gps_t+0x120>
     796:	96 01       	movw	r18, r12
     798:	36 95       	lsr	r19
     79a:	27 95       	ror	r18
     79c:	36 95       	lsr	r19
     79e:	27 95       	ror	r18
     7a0:	ab e7       	ldi	r26, 0x7B	; 123
     7a2:	b4 e1       	ldi	r27, 0x14	; 20
     7a4:	0e 94 5e 0e 	call	0x1cbc	; 0x1cbc <__umulhisi3>
     7a8:	96 95       	lsr	r25
     7aa:	87 95       	ror	r24
     7ac:	54 e6       	ldi	r21, 0x64	; 100
     7ae:	58 9f       	mul	r21, r24
     7b0:	90 01       	movw	r18, r0
     7b2:	59 9f       	mul	r21, r25
     7b4:	30 0d       	add	r19, r0
     7b6:	11 24       	eor	r1, r1
     7b8:	c2 16       	cp	r12, r18
     7ba:	d3 06       	cpc	r13, r19
     7bc:	e1 f0       	breq	.+56     	; 0x7f6 <_ZN13GPS_L70_Light15getUTCTimestampEP5gps_t+0x132>
     7be:	c6 01       	movw	r24, r12
     7c0:	83 70       	andi	r24, 0x03	; 3
     7c2:	99 27       	eor	r25, r25
     7c4:	89 2b       	or	r24, r25
     7c6:	01 f1       	breq	.+64     	; 0x808 <__DATA_REGION_LENGTH__+0x8>
     7c8:	6c e1       	ldi	r22, 0x1C	; 28
     7ca:	70 e0       	ldi	r23, 0x00	; 0
     7cc:	80 e0       	ldi	r24, 0x00	; 0
     7ce:	90 e0       	ldi	r25, 0x00	; 0
     7d0:	69 8b       	std	Y+17, r22	; 0x11
     7d2:	7a 8b       	std	Y+18, r23	; 0x12
     7d4:	8b 8b       	std	Y+19, r24	; 0x13
     7d6:	9c 8b       	std	Y+20, r25	; 0x14
     7d8:	1f c0       	rjmp	.+62     	; 0x818 <__DATA_REGION_LENGTH__+0x18>
     7da:	19 8a       	std	Y+17, r1	; 0x11
     7dc:	1a 8a       	std	Y+18, r1	; 0x12
     7de:	1b 8a       	std	Y+19, r1	; 0x13
     7e0:	1c 8a       	std	Y+20, r1	; 0x14
     7e2:	1a c0       	rjmp	.+52     	; 0x818 <__DATA_REGION_LENGTH__+0x18>
     7e4:	8d e1       	ldi	r24, 0x1D	; 29
     7e6:	90 e0       	ldi	r25, 0x00	; 0
     7e8:	a0 e0       	ldi	r26, 0x00	; 0
     7ea:	b0 e0       	ldi	r27, 0x00	; 0
     7ec:	89 8b       	std	Y+17, r24	; 0x11
     7ee:	9a 8b       	std	Y+18, r25	; 0x12
     7f0:	ab 8b       	std	Y+19, r26	; 0x13
     7f2:	bc 8b       	std	Y+20, r27	; 0x14
     7f4:	11 c0       	rjmp	.+34     	; 0x818 <__DATA_REGION_LENGTH__+0x18>
     7f6:	6c e1       	ldi	r22, 0x1C	; 28
     7f8:	70 e0       	ldi	r23, 0x00	; 0
     7fa:	80 e0       	ldi	r24, 0x00	; 0
     7fc:	90 e0       	ldi	r25, 0x00	; 0
     7fe:	69 8b       	std	Y+17, r22	; 0x11
     800:	7a 8b       	std	Y+18, r23	; 0x12
     802:	8b 8b       	std	Y+19, r24	; 0x13
     804:	9c 8b       	std	Y+20, r25	; 0x14
     806:	08 c0       	rjmp	.+16     	; 0x818 <__DATA_REGION_LENGTH__+0x18>
     808:	8d e1       	ldi	r24, 0x1D	; 29
     80a:	90 e0       	ldi	r25, 0x00	; 0
     80c:	a0 e0       	ldi	r26, 0x00	; 0
     80e:	b0 e0       	ldi	r27, 0x00	; 0
     810:	89 8b       	std	Y+17, r24	; 0x11
     812:	9a 8b       	std	Y+18, r25	; 0x12
     814:	ab 8b       	std	Y+19, r26	; 0x13
     816:	bc 8b       	std	Y+20, r27	; 0x14
     818:	44 30       	cpi	r20, 0x04	; 4
     81a:	28 f4       	brcc	.+10     	; 0x826 <__DATA_REGION_LENGTH__+0x26>
     81c:	1d 8a       	std	Y+21, r1	; 0x15
     81e:	1e 8a       	std	Y+22, r1	; 0x16
     820:	1f 8a       	std	Y+23, r1	; 0x17
     822:	18 8e       	std	Y+24, r1	; 0x18
     824:	08 c0       	rjmp	.+16     	; 0x836 <__DATA_REGION_LENGTH__+0x36>
     826:	6f e1       	ldi	r22, 0x1F	; 31
     828:	70 e0       	ldi	r23, 0x00	; 0
     82a:	80 e0       	ldi	r24, 0x00	; 0
     82c:	90 e0       	ldi	r25, 0x00	; 0
     82e:	6d 8b       	std	Y+21, r22	; 0x15
     830:	7e 8b       	std	Y+22, r23	; 0x16
     832:	8f 8b       	std	Y+23, r24	; 0x17
     834:	98 8f       	std	Y+24, r25	; 0x18
     836:	45 30       	cpi	r20, 0x05	; 5
     838:	28 f4       	brcc	.+10     	; 0x844 <__DATA_REGION_LENGTH__+0x44>
     83a:	19 8e       	std	Y+25, r1	; 0x19
     83c:	1a 8e       	std	Y+26, r1	; 0x1a
     83e:	1b 8e       	std	Y+27, r1	; 0x1b
     840:	1c 8e       	std	Y+28, r1	; 0x1c
     842:	08 c0       	rjmp	.+16     	; 0x854 <__DATA_REGION_LENGTH__+0x54>
     844:	8e e1       	ldi	r24, 0x1E	; 30
     846:	90 e0       	ldi	r25, 0x00	; 0
     848:	a0 e0       	ldi	r26, 0x00	; 0
     84a:	b0 e0       	ldi	r27, 0x00	; 0
     84c:	89 8f       	std	Y+25, r24	; 0x19
     84e:	9a 8f       	std	Y+26, r25	; 0x1a
     850:	ab 8f       	std	Y+27, r26	; 0x1b
     852:	bc 8f       	std	Y+28, r27	; 0x1c
     854:	46 30       	cpi	r20, 0x06	; 6
     856:	28 f4       	brcc	.+10     	; 0x862 <__DATA_REGION_LENGTH__+0x62>
     858:	1d 8e       	std	Y+29, r1	; 0x1d
     85a:	1e 8e       	std	Y+30, r1	; 0x1e
     85c:	1f 8e       	std	Y+31, r1	; 0x1f
     85e:	18 a2       	std	Y+32, r1	; 0x20
     860:	08 c0       	rjmp	.+16     	; 0x872 <__DATA_REGION_LENGTH__+0x72>
     862:	6f e1       	ldi	r22, 0x1F	; 31
     864:	70 e0       	ldi	r23, 0x00	; 0
     866:	80 e0       	ldi	r24, 0x00	; 0
     868:	90 e0       	ldi	r25, 0x00	; 0
     86a:	6d 8f       	std	Y+29, r22	; 0x1d
     86c:	7e 8f       	std	Y+30, r23	; 0x1e
     86e:	8f 8f       	std	Y+31, r24	; 0x1f
     870:	98 a3       	std	Y+32, r25	; 0x20
     872:	47 30       	cpi	r20, 0x07	; 7
     874:	28 f4       	brcc	.+10     	; 0x880 <__DATA_REGION_LENGTH__+0x80>
     876:	19 a2       	std	Y+33, r1	; 0x21
     878:	1a a2       	std	Y+34, r1	; 0x22
     87a:	1b a2       	std	Y+35, r1	; 0x23
     87c:	1c a2       	std	Y+36, r1	; 0x24
     87e:	08 c0       	rjmp	.+16     	; 0x890 <__DATA_REGION_LENGTH__+0x90>
     880:	8e e1       	ldi	r24, 0x1E	; 30
     882:	90 e0       	ldi	r25, 0x00	; 0
     884:	a0 e0       	ldi	r26, 0x00	; 0
     886:	b0 e0       	ldi	r27, 0x00	; 0
     888:	89 a3       	std	Y+33, r24	; 0x21
     88a:	9a a3       	std	Y+34, r25	; 0x22
     88c:	ab a3       	std	Y+35, r26	; 0x23
     88e:	bc a3       	std	Y+36, r27	; 0x24
     890:	48 30       	cpi	r20, 0x08	; 8
     892:	28 f4       	brcc	.+10     	; 0x89e <__DATA_REGION_LENGTH__+0x9e>
     894:	1d a2       	std	Y+37, r1	; 0x25
     896:	1e a2       	std	Y+38, r1	; 0x26
     898:	1f a2       	std	Y+39, r1	; 0x27
     89a:	18 a6       	std	Y+40, r1	; 0x28
     89c:	08 c0       	rjmp	.+16     	; 0x8ae <__DATA_REGION_LENGTH__+0xae>
     89e:	6f e1       	ldi	r22, 0x1F	; 31
     8a0:	70 e0       	ldi	r23, 0x00	; 0
     8a2:	80 e0       	ldi	r24, 0x00	; 0
     8a4:	90 e0       	ldi	r25, 0x00	; 0
     8a6:	6d a3       	std	Y+37, r22	; 0x25
     8a8:	7e a3       	std	Y+38, r23	; 0x26
     8aa:	8f a3       	std	Y+39, r24	; 0x27
     8ac:	98 a7       	std	Y+40, r25	; 0x28
     8ae:	49 30       	cpi	r20, 0x09	; 9
     8b0:	28 f4       	brcc	.+10     	; 0x8bc <__DATA_REGION_LENGTH__+0xbc>
     8b2:	19 a6       	std	Y+41, r1	; 0x29
     8b4:	1a a6       	std	Y+42, r1	; 0x2a
     8b6:	1b a6       	std	Y+43, r1	; 0x2b
     8b8:	1c a6       	std	Y+44, r1	; 0x2c
     8ba:	08 c0       	rjmp	.+16     	; 0x8cc <__DATA_REGION_LENGTH__+0xcc>
     8bc:	8f e1       	ldi	r24, 0x1F	; 31
     8be:	90 e0       	ldi	r25, 0x00	; 0
     8c0:	a0 e0       	ldi	r26, 0x00	; 0
     8c2:	b0 e0       	ldi	r27, 0x00	; 0
     8c4:	89 a7       	std	Y+41, r24	; 0x29
     8c6:	9a a7       	std	Y+42, r25	; 0x2a
     8c8:	ab a7       	std	Y+43, r26	; 0x2b
     8ca:	bc a7       	std	Y+44, r27	; 0x2c
     8cc:	4a 30       	cpi	r20, 0x0A	; 10
     8ce:	28 f4       	brcc	.+10     	; 0x8da <__DATA_REGION_LENGTH__+0xda>
     8d0:	1d a6       	std	Y+45, r1	; 0x2d
     8d2:	1e a6       	std	Y+46, r1	; 0x2e
     8d4:	1f a6       	std	Y+47, r1	; 0x2f
     8d6:	18 aa       	std	Y+48, r1	; 0x30
     8d8:	08 c0       	rjmp	.+16     	; 0x8ea <__DATA_REGION_LENGTH__+0xea>
     8da:	6e e1       	ldi	r22, 0x1E	; 30
     8dc:	70 e0       	ldi	r23, 0x00	; 0
     8de:	80 e0       	ldi	r24, 0x00	; 0
     8e0:	90 e0       	ldi	r25, 0x00	; 0
     8e2:	6d a7       	std	Y+45, r22	; 0x2d
     8e4:	7e a7       	std	Y+46, r23	; 0x2e
     8e6:	8f a7       	std	Y+47, r24	; 0x2f
     8e8:	98 ab       	std	Y+48, r25	; 0x30
     8ea:	4b 30       	cpi	r20, 0x0B	; 11
     8ec:	28 f4       	brcc	.+10     	; 0x8f8 <__DATA_REGION_LENGTH__+0xf8>
     8ee:	19 aa       	std	Y+49, r1	; 0x31
     8f0:	1a aa       	std	Y+50, r1	; 0x32
     8f2:	1b aa       	std	Y+51, r1	; 0x33
     8f4:	1c aa       	std	Y+52, r1	; 0x34
     8f6:	08 c0       	rjmp	.+16     	; 0x908 <__DATA_REGION_LENGTH__+0x108>
     8f8:	8f e1       	ldi	r24, 0x1F	; 31
     8fa:	90 e0       	ldi	r25, 0x00	; 0
     8fc:	a0 e0       	ldi	r26, 0x00	; 0
     8fe:	b0 e0       	ldi	r27, 0x00	; 0
     900:	89 ab       	std	Y+49, r24	; 0x31
     902:	9a ab       	std	Y+50, r25	; 0x32
     904:	ab ab       	std	Y+51, r26	; 0x33
     906:	bc ab       	std	Y+52, r27	; 0x34
     908:	4c 30       	cpi	r20, 0x0C	; 12
     90a:	28 f4       	brcc	.+10     	; 0x916 <__DATA_REGION_LENGTH__+0x116>
     90c:	1d aa       	std	Y+53, r1	; 0x35
     90e:	1e aa       	std	Y+54, r1	; 0x36
     910:	1f aa       	std	Y+55, r1	; 0x37
     912:	18 ae       	std	Y+56, r1	; 0x38
     914:	08 c0       	rjmp	.+16     	; 0x926 <__DATA_REGION_LENGTH__+0x126>
     916:	2e e1       	ldi	r18, 0x1E	; 30
     918:	30 e0       	ldi	r19, 0x00	; 0
     91a:	40 e0       	ldi	r20, 0x00	; 0
     91c:	50 e0       	ldi	r21, 0x00	; 0
     91e:	2d ab       	std	Y+53, r18	; 0x35
     920:	3e ab       	std	Y+54, r19	; 0x36
     922:	4f ab       	std	Y+55, r20	; 0x37
     924:	58 af       	std	Y+56, r21	; 0x38
     926:	e1 2c       	mov	r14, r1
     928:	f1 2c       	mov	r15, r1
     92a:	d7 01       	movw	r26, r14
     92c:	c6 01       	movw	r24, r12
     92e:	81 5b       	subi	r24, 0xB1	; 177
     930:	97 40       	sbci	r25, 0x07	; 7
     932:	a1 09       	sbc	r26, r1
     934:	b1 09       	sbc	r27, r1
     936:	ac 01       	movw	r20, r24
     938:	bd 01       	movw	r22, r26
     93a:	76 95       	lsr	r23
     93c:	67 95       	ror	r22
     93e:	57 95       	ror	r21
     940:	47 95       	ror	r20
     942:	76 95       	lsr	r23
     944:	67 95       	ror	r22
     946:	57 95       	ror	r21
     948:	47 95       	ror	r20
     94a:	4d 87       	std	Y+13, r20	; 0x0d
     94c:	5e 87       	std	Y+14, r21	; 0x0e
     94e:	6f 87       	std	Y+15, r22	; 0x0f
     950:	78 8b       	std	Y+16, r23	; 0x10
     952:	c7 01       	movw	r24, r14
     954:	b6 01       	movw	r22, r12
     956:	61 54       	subi	r22, 0x41	; 65
     958:	76 40       	sbci	r23, 0x06	; 6
     95a:	81 09       	sbc	r24, r1
     95c:	91 09       	sbc	r25, r1
     95e:	20 e9       	ldi	r18, 0x90	; 144
     960:	31 e0       	ldi	r19, 0x01	; 1
     962:	40 e0       	ldi	r20, 0x00	; 0
     964:	50 e0       	ldi	r21, 0x00	; 0
     966:	0e 94 1d 0e 	call	0x1c3a	; 0x1c3a <__udivmodsi4>
     96a:	8d 85       	ldd	r24, Y+13	; 0x0d
     96c:	9e 85       	ldd	r25, Y+14	; 0x0e
     96e:	af 85       	ldd	r26, Y+15	; 0x0f
     970:	b8 89       	ldd	r27, Y+16	; 0x10
     972:	82 0f       	add	r24, r18
     974:	93 1f       	adc	r25, r19
     976:	a4 1f       	adc	r26, r20
     978:	b5 1f       	adc	r27, r21
     97a:	84 0d       	add	r24, r4
     97c:	95 1d       	adc	r25, r5
     97e:	a6 1d       	adc	r26, r6
     980:	b7 1d       	adc	r27, r7
     982:	29 81       	ldd	r18, Y+1	; 0x01
     984:	3a 81       	ldd	r19, Y+2	; 0x02
     986:	4b 81       	ldd	r20, Y+3	; 0x03
     988:	5c 81       	ldd	r21, Y+4	; 0x04
     98a:	82 0f       	add	r24, r18
     98c:	93 1f       	adc	r25, r19
     98e:	a4 1f       	adc	r26, r20
     990:	b5 1f       	adc	r27, r21
     992:	49 89       	ldd	r20, Y+17	; 0x11
     994:	5a 89       	ldd	r21, Y+18	; 0x12
     996:	6b 89       	ldd	r22, Y+19	; 0x13
     998:	7c 89       	ldd	r23, Y+20	; 0x14
     99a:	84 0f       	add	r24, r20
     99c:	95 1f       	adc	r25, r21
     99e:	a6 1f       	adc	r26, r22
     9a0:	b7 1f       	adc	r27, r23
     9a2:	2d 89       	ldd	r18, Y+21	; 0x15
     9a4:	3e 89       	ldd	r19, Y+22	; 0x16
     9a6:	4f 89       	ldd	r20, Y+23	; 0x17
     9a8:	58 8d       	ldd	r21, Y+24	; 0x18
     9aa:	82 0f       	add	r24, r18
     9ac:	93 1f       	adc	r25, r19
     9ae:	a4 1f       	adc	r26, r20
     9b0:	b5 1f       	adc	r27, r21
     9b2:	49 8d       	ldd	r20, Y+25	; 0x19
     9b4:	5a 8d       	ldd	r21, Y+26	; 0x1a
     9b6:	6b 8d       	ldd	r22, Y+27	; 0x1b
     9b8:	7c 8d       	ldd	r23, Y+28	; 0x1c
     9ba:	84 0f       	add	r24, r20
     9bc:	95 1f       	adc	r25, r21
     9be:	a6 1f       	adc	r26, r22
     9c0:	b7 1f       	adc	r27, r23
     9c2:	2d 8d       	ldd	r18, Y+29	; 0x1d
     9c4:	3e 8d       	ldd	r19, Y+30	; 0x1e
     9c6:	4f 8d       	ldd	r20, Y+31	; 0x1f
     9c8:	58 a1       	ldd	r21, Y+32	; 0x20
     9ca:	82 0f       	add	r24, r18
     9cc:	93 1f       	adc	r25, r19
     9ce:	a4 1f       	adc	r26, r20
     9d0:	b5 1f       	adc	r27, r21
     9d2:	49 a1       	ldd	r20, Y+33	; 0x21
     9d4:	5a a1       	ldd	r21, Y+34	; 0x22
     9d6:	6b a1       	ldd	r22, Y+35	; 0x23
     9d8:	7c a1       	ldd	r23, Y+36	; 0x24
     9da:	84 0f       	add	r24, r20
     9dc:	95 1f       	adc	r25, r21
     9de:	a6 1f       	adc	r26, r22
     9e0:	b7 1f       	adc	r27, r23
     9e2:	2d a1       	ldd	r18, Y+37	; 0x25
     9e4:	3e a1       	ldd	r19, Y+38	; 0x26
     9e6:	4f a1       	ldd	r20, Y+39	; 0x27
     9e8:	58 a5       	ldd	r21, Y+40	; 0x28
     9ea:	82 0f       	add	r24, r18
     9ec:	93 1f       	adc	r25, r19
     9ee:	a4 1f       	adc	r26, r20
     9f0:	b5 1f       	adc	r27, r21
     9f2:	49 a5       	ldd	r20, Y+41	; 0x29
     9f4:	5a a5       	ldd	r21, Y+42	; 0x2a
     9f6:	6b a5       	ldd	r22, Y+43	; 0x2b
     9f8:	7c a5       	ldd	r23, Y+44	; 0x2c
     9fa:	84 0f       	add	r24, r20
     9fc:	95 1f       	adc	r25, r21
     9fe:	a6 1f       	adc	r26, r22
     a00:	b7 1f       	adc	r27, r23
     a02:	2d a5       	ldd	r18, Y+45	; 0x2d
     a04:	3e a5       	ldd	r19, Y+46	; 0x2e
     a06:	4f a5       	ldd	r20, Y+47	; 0x2f
     a08:	58 a9       	ldd	r21, Y+48	; 0x30
     a0a:	82 0f       	add	r24, r18
     a0c:	93 1f       	adc	r25, r19
     a0e:	a4 1f       	adc	r26, r20
     a10:	b5 1f       	adc	r27, r21
     a12:	49 a9       	ldd	r20, Y+49	; 0x31
     a14:	5a a9       	ldd	r21, Y+50	; 0x32
     a16:	6b a9       	ldd	r22, Y+51	; 0x33
     a18:	7c a9       	ldd	r23, Y+52	; 0x34
     a1a:	84 0f       	add	r24, r20
     a1c:	95 1f       	adc	r25, r21
     a1e:	a6 1f       	adc	r26, r22
     a20:	b7 1f       	adc	r27, r23
     a22:	2d a9       	ldd	r18, Y+53	; 0x35
     a24:	3e a9       	ldd	r19, Y+54	; 0x36
     a26:	4f a9       	ldd	r20, Y+55	; 0x37
     a28:	58 ad       	ldd	r21, Y+56	; 0x38
     a2a:	28 0f       	add	r18, r24
     a2c:	39 1f       	adc	r19, r25
     a2e:	4a 1f       	adc	r20, r26
     a30:	5b 1f       	adc	r21, r27
     a32:	60 e8       	ldi	r22, 0x80	; 128
     a34:	71 e5       	ldi	r23, 0x51	; 81
     a36:	81 e0       	ldi	r24, 0x01	; 1
     a38:	90 e0       	ldi	r25, 0x00	; 0
     a3a:	0e 94 0d 0e 	call	0x1c1a	; 0x1c1a <__mulsi3>
     a3e:	69 83       	std	Y+1, r22	; 0x01
     a40:	7a 83       	std	Y+2, r23	; 0x02
     a42:	8b 83       	std	Y+3, r24	; 0x03
     a44:	9c 83       	std	Y+4, r25	; 0x04
     a46:	d5 01       	movw	r26, r10
     a48:	c4 01       	movw	r24, r8
     a4a:	80 58       	subi	r24, 0x80	; 128
     a4c:	90 4a       	sbci	r25, 0xA0	; 160
     a4e:	af 4f       	sbci	r26, 0xFF	; 255
     a50:	b6 47       	sbci	r27, 0x76	; 118
     a52:	4d 80       	ldd	r4, Y+5	; 0x05
     a54:	5e 80       	ldd	r5, Y+6	; 0x06
     a56:	6f 80       	ldd	r6, Y+7	; 0x07
     a58:	78 84       	ldd	r7, Y+8	; 0x08
     a5a:	48 0e       	add	r4, r24
     a5c:	59 1e       	adc	r5, r25
     a5e:	6a 1e       	adc	r6, r26
     a60:	7b 1e       	adc	r7, r27
     a62:	89 84       	ldd	r8, Y+9	; 0x09
     a64:	9a 84       	ldd	r9, Y+10	; 0x0a
     a66:	ab 84       	ldd	r10, Y+11	; 0x0b
     a68:	bc 84       	ldd	r11, Y+12	; 0x0c
     a6a:	84 0c       	add	r8, r4
     a6c:	95 1c       	adc	r9, r5
     a6e:	a6 1c       	adc	r10, r6
     a70:	b7 1c       	adc	r11, r7
     a72:	a7 01       	movw	r20, r14
     a74:	96 01       	movw	r18, r12
     a76:	60 e8       	ldi	r22, 0x80	; 128
     a78:	73 e3       	ldi	r23, 0x33	; 51
     a7a:	81 ee       	ldi	r24, 0xE1	; 225
     a7c:	91 e0       	ldi	r25, 0x01	; 1
     a7e:	0e 94 0d 0e 	call	0x1c1a	; 0x1c1a <__mulsi3>
     a82:	86 0e       	add	r8, r22
     a84:	97 1e       	adc	r9, r23
     a86:	a8 1e       	adc	r10, r24
     a88:	b9 1e       	adc	r11, r25
     a8a:	c7 01       	movw	r24, r14
     a8c:	b6 01       	movw	r22, r12
     a8e:	6d 56       	subi	r22, 0x6D	; 109
     a90:	77 40       	sbci	r23, 0x07	; 7
     a92:	81 09       	sbc	r24, r1
     a94:	91 09       	sbc	r25, r1
     a96:	24 e6       	ldi	r18, 0x64	; 100
     a98:	30 e0       	ldi	r19, 0x00	; 0
     a9a:	40 e0       	ldi	r20, 0x00	; 0
     a9c:	50 e0       	ldi	r21, 0x00	; 0
     a9e:	0e 94 1d 0e 	call	0x1c3a	; 0x1c3a <__udivmodsi4>
     aa2:	60 e8       	ldi	r22, 0x80	; 128
     aa4:	71 e5       	ldi	r23, 0x51	; 81
     aa6:	81 e0       	ldi	r24, 0x01	; 1
     aa8:	90 e0       	ldi	r25, 0x00	; 0
     aaa:	0e 94 0d 0e 	call	0x1c1a	; 0x1c1a <__mulsi3>
     aae:	a5 01       	movw	r20, r10
     ab0:	94 01       	movw	r18, r8
     ab2:	26 1b       	sub	r18, r22
     ab4:	37 0b       	sbc	r19, r23
     ab6:	48 0b       	sbc	r20, r24
     ab8:	59 0b       	sbc	r21, r25
     aba:	da 01       	movw	r26, r20
     abc:	c9 01       	movw	r24, r18
     abe:	29 81       	ldd	r18, Y+1	; 0x01
     ac0:	3a 81       	ldd	r19, Y+2	; 0x02
     ac2:	4b 81       	ldd	r20, Y+3	; 0x03
     ac4:	5c 81       	ldd	r21, Y+4	; 0x04
     ac6:	28 0f       	add	r18, r24
     ac8:	39 1f       	adc	r19, r25
     aca:	4a 1f       	adc	r20, r26
     acc:	5b 1f       	adc	r21, r27
     ace:	ca 01       	movw	r24, r20
     ad0:	b9 01       	movw	r22, r18
     ad2:	07 c0       	rjmp	.+14     	; 0xae2 <__DATA_REGION_LENGTH__+0x2e2>
     ad4:	60 e0       	ldi	r22, 0x00	; 0
     ad6:	70 e0       	ldi	r23, 0x00	; 0
     ad8:	cb 01       	movw	r24, r22
     ada:	03 c0       	rjmp	.+6      	; 0xae2 <__DATA_REGION_LENGTH__+0x2e2>
     adc:	60 e0       	ldi	r22, 0x00	; 0
     ade:	70 e0       	ldi	r23, 0x00	; 0
     ae0:	cb 01       	movw	r24, r22
     ae2:	e8 96       	adiw	r28, 0x38	; 56
     ae4:	cd bf       	out	0x3d, r28	; 61
     ae6:	de bf       	out	0x3e, r29	; 62
     ae8:	df 91       	pop	r29
     aea:	cf 91       	pop	r28
     aec:	ff 90       	pop	r15
     aee:	ef 90       	pop	r14
     af0:	df 90       	pop	r13
     af2:	cf 90       	pop	r12
     af4:	bf 90       	pop	r11
     af6:	af 90       	pop	r10
     af8:	9f 90       	pop	r9
     afa:	8f 90       	pop	r8
     afc:	7f 90       	pop	r7
     afe:	6f 90       	pop	r6
     b00:	5f 90       	pop	r5
     b02:	4f 90       	pop	r4
     b04:	08 95       	ret

00000b06 <_ZN13GPS_L70_Light11decodeGPRMCEPcP5gps_tb>:
     b06:	8f 92       	push	r8
     b08:	9f 92       	push	r9
     b0a:	af 92       	push	r10
     b0c:	bf 92       	push	r11
     b0e:	cf 92       	push	r12
     b10:	df 92       	push	r13
     b12:	ef 92       	push	r14
     b14:	ff 92       	push	r15
     b16:	0f 93       	push	r16
     b18:	1f 93       	push	r17
     b1a:	cf 93       	push	r28
     b1c:	df 93       	push	r29
     b1e:	cd b7       	in	r28, 0x3d	; 61
     b20:	de b7       	in	r29, 0x3e	; 62
     b22:	a0 97       	sbiw	r28, 0x20	; 32
     b24:	cd bf       	out	0x3d, r28	; 61
     b26:	de bf       	out	0x3e, r29	; 62
     b28:	5c 01       	movw	r10, r24
     b2a:	fe 01       	movw	r30, r28
     b2c:	31 96       	adiw	r30, 0x01	; 1
     b2e:	90 e2       	ldi	r25, 0x20	; 32
     b30:	df 01       	movw	r26, r30
     b32:	1d 92       	st	X+, r1
     b34:	9a 95       	dec	r25
     b36:	e9 f7       	brne	.-6      	; 0xb32 <_ZN13GPS_L70_Light11decodeGPRMCEPcP5gps_tb+0x2c>
     b38:	41 15       	cp	r20, r1
     b3a:	51 05       	cpc	r21, r1
     b3c:	09 f4       	brne	.+2      	; 0xb40 <_ZN13GPS_L70_Light11decodeGPRMCEPcP5gps_tb+0x3a>
     b3e:	0d c1       	rjmp	.+538    	; 0xd5a <_ZN13GPS_L70_Light11decodeGPRMCEPcP5gps_tb+0x254>
     b40:	fb 01       	movw	r30, r22
     b42:	90 81       	ld	r25, Z
     b44:	99 23       	and	r25, r25
     b46:	09 f4       	brne	.+2      	; 0xb4a <_ZN13GPS_L70_Light11decodeGPRMCEPcP5gps_tb+0x44>
     b48:	08 c1       	rjmp	.+528    	; 0xd5a <_ZN13GPS_L70_Light11decodeGPRMCEPcP5gps_tb+0x254>
     b4a:	6a 01       	movw	r12, r20
     b4c:	8b 01       	movw	r16, r22
     b4e:	0f 5f       	subi	r16, 0xFF	; 255
     b50:	1f 4f       	sbci	r17, 0xFF	; 255
     b52:	20 e0       	ldi	r18, 0x00	; 0
     b54:	91 2c       	mov	r9, r1
     b56:	ae 01       	movw	r20, r28
     b58:	4f 5f       	subi	r20, 0xFF	; 255
     b5a:	5f 4f       	sbci	r21, 0xFF	; 255
     b5c:	7a 01       	movw	r14, r20
     b5e:	68 94       	set
     b60:	88 24       	eor	r8, r8
     b62:	85 f8       	bld	r8, 5
     b64:	94 32       	cpi	r25, 0x24	; 36
     b66:	09 f4       	brne	.+2      	; 0xb6a <_ZN13GPS_L70_Light11decodeGPRMCEPcP5gps_tb+0x64>
     b68:	f3 c0       	rjmp	.+486    	; 0xd50 <_ZN13GPS_L70_Light11decodeGPRMCEPcP5gps_tb+0x24a>
     b6a:	9c 32       	cpi	r25, 0x2C	; 44
     b6c:	09 f0       	breq	.+2      	; 0xb70 <_ZN13GPS_L70_Light11decodeGPRMCEPcP5gps_tb+0x6a>
     b6e:	d9 c0       	rjmp	.+434    	; 0xd22 <_ZN13GPS_L70_Light11decodeGPRMCEPcP5gps_tb+0x21c>
     b70:	93 94       	inc	r9
     b72:	51 e0       	ldi	r21, 0x01	; 1
     b74:	95 16       	cp	r9, r21
     b76:	09 f4       	brne	.+2      	; 0xb7a <_ZN13GPS_L70_Light11decodeGPRMCEPcP5gps_tb+0x74>
     b78:	cd c0       	rjmp	.+410    	; 0xd14 <_ZN13GPS_L70_Light11decodeGPRMCEPcP5gps_tb+0x20e>
     b7a:	82 e0       	ldi	r24, 0x02	; 2
     b7c:	98 12       	cpse	r9, r24
     b7e:	29 c0       	rjmp	.+82     	; 0xbd2 <_ZN13GPS_L70_Light11decodeGPRMCEPcP5gps_tb+0xcc>
     b80:	d6 01       	movw	r26, r12
     b82:	1c 92       	st	X, r1
     b84:	11 96       	adiw	r26, 0x01	; 1
     b86:	1c 92       	st	X, r1
     b88:	11 97       	sbiw	r26, 0x01	; 1
     b8a:	12 96       	adiw	r26, 0x02	; 2
     b8c:	1c 92       	st	X, r1
     b8e:	f7 01       	movw	r30, r14
     b90:	01 90       	ld	r0, Z+
     b92:	00 20       	and	r0, r0
     b94:	e9 f7       	brne	.-6      	; 0xb90 <_ZN13GPS_L70_Light11decodeGPRMCEPcP5gps_tb+0x8a>
     b96:	31 97       	sbiw	r30, 0x01	; 1
     b98:	ee 19       	sub	r30, r14
     b9a:	ff 09       	sbc	r31, r15
     b9c:	36 97       	sbiw	r30, 0x06	; 6
     b9e:	08 f4       	brcc	.+2      	; 0xba2 <_ZN13GPS_L70_Light11decodeGPRMCEPcP5gps_tb+0x9c>
     ba0:	b9 c0       	rjmp	.+370    	; 0xd14 <_ZN13GPS_L70_Light11decodeGPRMCEPcP5gps_tb+0x20e>
     ba2:	b7 01       	movw	r22, r14
     ba4:	c5 01       	movw	r24, r10
     ba6:	0e 94 fd 02 	call	0x5fa	; 0x5fa <_ZN13GPS_L70_Light22convertTwoDigit2NumberEPc>
     baa:	f6 01       	movw	r30, r12
     bac:	80 83       	st	Z, r24
     bae:	be 01       	movw	r22, r28
     bb0:	6d 5f       	subi	r22, 0xFD	; 253
     bb2:	7f 4f       	sbci	r23, 0xFF	; 255
     bb4:	c5 01       	movw	r24, r10
     bb6:	0e 94 fd 02 	call	0x5fa	; 0x5fa <_ZN13GPS_L70_Light22convertTwoDigit2NumberEPc>
     bba:	d6 01       	movw	r26, r12
     bbc:	11 96       	adiw	r26, 0x01	; 1
     bbe:	8c 93       	st	X, r24
     bc0:	be 01       	movw	r22, r28
     bc2:	6b 5f       	subi	r22, 0xFB	; 251
     bc4:	7f 4f       	sbci	r23, 0xFF	; 255
     bc6:	c5 01       	movw	r24, r10
     bc8:	0e 94 fd 02 	call	0x5fa	; 0x5fa <_ZN13GPS_L70_Light22convertTwoDigit2NumberEPc>
     bcc:	f6 01       	movw	r30, r12
     bce:	82 83       	std	Z+2, r24	; 0x02
     bd0:	a1 c0       	rjmp	.+322    	; 0xd14 <_ZN13GPS_L70_Light11decodeGPRMCEPcP5gps_tb+0x20e>
     bd2:	f4 e0       	ldi	r31, 0x04	; 4
     bd4:	9f 12       	cpse	r9, r31
     bd6:	15 c0       	rjmp	.+42     	; 0xc02 <_ZN13GPS_L70_Light11decodeGPRMCEPcP5gps_tb+0xfc>
     bd8:	d6 01       	movw	r26, r12
     bda:	16 96       	adiw	r26, 0x06	; 6
     bdc:	1d 92       	st	X+, r1
     bde:	1d 92       	st	X+, r1
     be0:	1d 92       	st	X+, r1
     be2:	1c 92       	st	X, r1
     be4:	19 97       	sbiw	r26, 0x09	; 9
     be6:	89 81       	ldd	r24, Y+1	; 0x01
     be8:	88 23       	and	r24, r24
     bea:	09 f4       	brne	.+2      	; 0xbee <_ZN13GPS_L70_Light11decodeGPRMCEPcP5gps_tb+0xe8>
     bec:	93 c0       	rjmp	.+294    	; 0xd14 <_ZN13GPS_L70_Light11decodeGPRMCEPcP5gps_tb+0x20e>
     bee:	b7 01       	movw	r22, r14
     bf0:	c5 01       	movw	r24, r10
     bf2:	0e 94 1d 03 	call	0x63a	; 0x63a <_ZN13GPS_L70_Light12parseLatLongEPc>
     bf6:	f6 01       	movw	r30, r12
     bf8:	66 83       	std	Z+6, r22	; 0x06
     bfa:	77 83       	std	Z+7, r23	; 0x07
     bfc:	80 87       	std	Z+8, r24	; 0x08
     bfe:	91 87       	std	Z+9, r25	; 0x09
     c00:	89 c0       	rjmp	.+274    	; 0xd14 <_ZN13GPS_L70_Light11decodeGPRMCEPcP5gps_tb+0x20e>
     c02:	f5 e0       	ldi	r31, 0x05	; 5
     c04:	9f 12       	cpse	r9, r31
     c06:	20 c0       	rjmp	.+64     	; 0xc48 <_ZN13GPS_L70_Light11decodeGPRMCEPcP5gps_tb+0x142>
     c08:	f7 01       	movw	r30, r14
     c0a:	01 90       	ld	r0, Z+
     c0c:	00 20       	and	r0, r0
     c0e:	e9 f7       	brne	.-6      	; 0xc0a <_ZN13GPS_L70_Light11decodeGPRMCEPcP5gps_tb+0x104>
     c10:	cf 01       	movw	r24, r30
     c12:	02 97       	sbiw	r24, 0x02	; 2
     c14:	8e 15       	cp	r24, r14
     c16:	9f 05       	cpc	r25, r15
     c18:	09 f0       	breq	.+2      	; 0xc1c <_ZN13GPS_L70_Light11decodeGPRMCEPcP5gps_tb+0x116>
     c1a:	7c c0       	rjmp	.+248    	; 0xd14 <_ZN13GPS_L70_Light11decodeGPRMCEPcP5gps_tb+0x20e>
     c1c:	89 81       	ldd	r24, Y+1	; 0x01
     c1e:	8f 7d       	andi	r24, 0xDF	; 223
     c20:	83 35       	cpi	r24, 0x53	; 83
     c22:	09 f0       	breq	.+2      	; 0xc26 <_ZN13GPS_L70_Light11decodeGPRMCEPcP5gps_tb+0x120>
     c24:	77 c0       	rjmp	.+238    	; 0xd14 <_ZN13GPS_L70_Light11decodeGPRMCEPcP5gps_tb+0x20e>
     c26:	f6 01       	movw	r30, r12
     c28:	86 81       	ldd	r24, Z+6	; 0x06
     c2a:	97 81       	ldd	r25, Z+7	; 0x07
     c2c:	a0 85       	ldd	r26, Z+8	; 0x08
     c2e:	b1 85       	ldd	r27, Z+9	; 0x09
     c30:	b0 95       	com	r27
     c32:	a0 95       	com	r26
     c34:	90 95       	com	r25
     c36:	81 95       	neg	r24
     c38:	9f 4f       	sbci	r25, 0xFF	; 255
     c3a:	af 4f       	sbci	r26, 0xFF	; 255
     c3c:	bf 4f       	sbci	r27, 0xFF	; 255
     c3e:	86 83       	std	Z+6, r24	; 0x06
     c40:	97 83       	std	Z+7, r25	; 0x07
     c42:	a0 87       	std	Z+8, r26	; 0x08
     c44:	b1 87       	std	Z+9, r27	; 0x09
     c46:	66 c0       	rjmp	.+204    	; 0xd14 <_ZN13GPS_L70_Light11decodeGPRMCEPcP5gps_tb+0x20e>
     c48:	f6 e0       	ldi	r31, 0x06	; 6
     c4a:	9f 12       	cpse	r9, r31
     c4c:	15 c0       	rjmp	.+42     	; 0xc78 <_ZN13GPS_L70_Light11decodeGPRMCEPcP5gps_tb+0x172>
     c4e:	d6 01       	movw	r26, r12
     c50:	16 96       	adiw	r26, 0x06	; 6
     c52:	1d 92       	st	X+, r1
     c54:	1d 92       	st	X+, r1
     c56:	1d 92       	st	X+, r1
     c58:	1c 92       	st	X, r1
     c5a:	19 97       	sbiw	r26, 0x09	; 9
     c5c:	89 81       	ldd	r24, Y+1	; 0x01
     c5e:	88 23       	and	r24, r24
     c60:	09 f4       	brne	.+2      	; 0xc64 <_ZN13GPS_L70_Light11decodeGPRMCEPcP5gps_tb+0x15e>
     c62:	58 c0       	rjmp	.+176    	; 0xd14 <_ZN13GPS_L70_Light11decodeGPRMCEPcP5gps_tb+0x20e>
     c64:	b7 01       	movw	r22, r14
     c66:	c5 01       	movw	r24, r10
     c68:	0e 94 1d 03 	call	0x63a	; 0x63a <_ZN13GPS_L70_Light12parseLatLongEPc>
     c6c:	f6 01       	movw	r30, r12
     c6e:	62 87       	std	Z+10, r22	; 0x0a
     c70:	73 87       	std	Z+11, r23	; 0x0b
     c72:	84 87       	std	Z+12, r24	; 0x0c
     c74:	95 87       	std	Z+13, r25	; 0x0d
     c76:	4e c0       	rjmp	.+156    	; 0xd14 <_ZN13GPS_L70_Light11decodeGPRMCEPcP5gps_tb+0x20e>
     c78:	f7 e0       	ldi	r31, 0x07	; 7
     c7a:	9f 12       	cpse	r9, r31
     c7c:	1f c0       	rjmp	.+62     	; 0xcbc <_ZN13GPS_L70_Light11decodeGPRMCEPcP5gps_tb+0x1b6>
     c7e:	f7 01       	movw	r30, r14
     c80:	01 90       	ld	r0, Z+
     c82:	00 20       	and	r0, r0
     c84:	e9 f7       	brne	.-6      	; 0xc80 <_ZN13GPS_L70_Light11decodeGPRMCEPcP5gps_tb+0x17a>
     c86:	cf 01       	movw	r24, r30
     c88:	02 97       	sbiw	r24, 0x02	; 2
     c8a:	8e 15       	cp	r24, r14
     c8c:	9f 05       	cpc	r25, r15
     c8e:	09 f0       	breq	.+2      	; 0xc92 <_ZN13GPS_L70_Light11decodeGPRMCEPcP5gps_tb+0x18c>
     c90:	41 c0       	rjmp	.+130    	; 0xd14 <_ZN13GPS_L70_Light11decodeGPRMCEPcP5gps_tb+0x20e>
     c92:	89 81       	ldd	r24, Y+1	; 0x01
     c94:	8f 7d       	andi	r24, 0xDF	; 223
     c96:	87 35       	cpi	r24, 0x57	; 87
     c98:	e9 f5       	brne	.+122    	; 0xd14 <_ZN13GPS_L70_Light11decodeGPRMCEPcP5gps_tb+0x20e>
     c9a:	f6 01       	movw	r30, r12
     c9c:	82 85       	ldd	r24, Z+10	; 0x0a
     c9e:	93 85       	ldd	r25, Z+11	; 0x0b
     ca0:	a4 85       	ldd	r26, Z+12	; 0x0c
     ca2:	b5 85       	ldd	r27, Z+13	; 0x0d
     ca4:	b0 95       	com	r27
     ca6:	a0 95       	com	r26
     ca8:	90 95       	com	r25
     caa:	81 95       	neg	r24
     cac:	9f 4f       	sbci	r25, 0xFF	; 255
     cae:	af 4f       	sbci	r26, 0xFF	; 255
     cb0:	bf 4f       	sbci	r27, 0xFF	; 255
     cb2:	82 87       	std	Z+10, r24	; 0x0a
     cb4:	93 87       	std	Z+11, r25	; 0x0b
     cb6:	a4 87       	std	Z+12, r26	; 0x0c
     cb8:	b5 87       	std	Z+13, r27	; 0x0d
     cba:	2c c0       	rjmp	.+88     	; 0xd14 <_ZN13GPS_L70_Light11decodeGPRMCEPcP5gps_tb+0x20e>
     cbc:	fa e0       	ldi	r31, 0x0A	; 10
     cbe:	9f 12       	cpse	r9, r31
     cc0:	29 c0       	rjmp	.+82     	; 0xd14 <_ZN13GPS_L70_Light11decodeGPRMCEPcP5gps_tb+0x20e>
     cc2:	d6 01       	movw	r26, r12
     cc4:	13 96       	adiw	r26, 0x03	; 3
     cc6:	1c 92       	st	X, r1
     cc8:	13 97       	sbiw	r26, 0x03	; 3
     cca:	14 96       	adiw	r26, 0x04	; 4
     ccc:	1c 92       	st	X, r1
     cce:	14 97       	sbiw	r26, 0x04	; 4
     cd0:	15 96       	adiw	r26, 0x05	; 5
     cd2:	1c 92       	st	X, r1
     cd4:	f7 01       	movw	r30, r14
     cd6:	01 90       	ld	r0, Z+
     cd8:	00 20       	and	r0, r0
     cda:	e9 f7       	brne	.-6      	; 0xcd6 <_ZN13GPS_L70_Light11decodeGPRMCEPcP5gps_tb+0x1d0>
     cdc:	31 97       	sbiw	r30, 0x01	; 1
     cde:	ee 19       	sub	r30, r14
     ce0:	ff 09       	sbc	r31, r15
     ce2:	36 97       	sbiw	r30, 0x06	; 6
     ce4:	b8 f0       	brcs	.+46     	; 0xd14 <_ZN13GPS_L70_Light11decodeGPRMCEPcP5gps_tb+0x20e>
     ce6:	b7 01       	movw	r22, r14
     ce8:	c5 01       	movw	r24, r10
     cea:	0e 94 fd 02 	call	0x5fa	; 0x5fa <_ZN13GPS_L70_Light22convertTwoDigit2NumberEPc>
     cee:	f6 01       	movw	r30, r12
     cf0:	83 83       	std	Z+3, r24	; 0x03
     cf2:	be 01       	movw	r22, r28
     cf4:	6d 5f       	subi	r22, 0xFD	; 253
     cf6:	7f 4f       	sbci	r23, 0xFF	; 255
     cf8:	c5 01       	movw	r24, r10
     cfa:	0e 94 fd 02 	call	0x5fa	; 0x5fa <_ZN13GPS_L70_Light22convertTwoDigit2NumberEPc>
     cfe:	d6 01       	movw	r26, r12
     d00:	14 96       	adiw	r26, 0x04	; 4
     d02:	8c 93       	st	X, r24
     d04:	be 01       	movw	r22, r28
     d06:	6b 5f       	subi	r22, 0xFB	; 251
     d08:	7f 4f       	sbci	r23, 0xFF	; 255
     d0a:	c5 01       	movw	r24, r10
     d0c:	0e 94 fd 02 	call	0x5fa	; 0x5fa <_ZN13GPS_L70_Light22convertTwoDigit2NumberEPc>
     d10:	f6 01       	movw	r30, r12
     d12:	85 83       	std	Z+5, r24	; 0x05
     d14:	d7 01       	movw	r26, r14
     d16:	e8 2d       	mov	r30, r8
     d18:	1d 92       	st	X+, r1
     d1a:	ea 95       	dec	r30
     d1c:	e9 f7       	brne	.-6      	; 0xd18 <_ZN13GPS_L70_Light11decodeGPRMCEPcP5gps_tb+0x212>
     d1e:	20 e0       	ldi	r18, 0x00	; 0
     d20:	17 c0       	rjmp	.+46     	; 0xd50 <_ZN13GPS_L70_Light11decodeGPRMCEPcP5gps_tb+0x24a>
     d22:	9a 32       	cpi	r25, 0x2A	; 42
     d24:	81 f4       	brne	.+32     	; 0xd46 <_ZN13GPS_L70_Light11decodeGPRMCEPcP5gps_tb+0x240>
     d26:	d6 01       	movw	r26, r12
     d28:	1e 96       	adiw	r26, 0x0e	; 14
     d2a:	1c 92       	st	X, r1
     d2c:	89 81       	ldd	r24, Y+1	; 0x01
     d2e:	88 23       	and	r24, r24
     d30:	a1 f0       	breq	.+40     	; 0xd5a <_ZN13GPS_L70_Light11decodeGPRMCEPcP5gps_tb+0x254>
     d32:	8e 34       	cpi	r24, 0x4E	; 78
     d34:	91 f0       	breq	.+36     	; 0xd5a <_ZN13GPS_L70_Light11decodeGPRMCEPcP5gps_tb+0x254>
     d36:	81 34       	cpi	r24, 0x41	; 65
     d38:	11 f0       	breq	.+4      	; 0xd3e <_ZN13GPS_L70_Light11decodeGPRMCEPcP5gps_tb+0x238>
     d3a:	84 34       	cpi	r24, 0x44	; 68
     d3c:	71 f4       	brne	.+28     	; 0xd5a <_ZN13GPS_L70_Light11decodeGPRMCEPcP5gps_tb+0x254>
     d3e:	81 e0       	ldi	r24, 0x01	; 1
     d40:	f6 01       	movw	r30, r12
     d42:	86 87       	std	Z+14, r24	; 0x0e
     d44:	0a c0       	rjmp	.+20     	; 0xd5a <_ZN13GPS_L70_Light11decodeGPRMCEPcP5gps_tb+0x254>
     d46:	f7 01       	movw	r30, r14
     d48:	e2 0f       	add	r30, r18
     d4a:	f1 1d       	adc	r31, r1
     d4c:	90 83       	st	Z, r25
     d4e:	2f 5f       	subi	r18, 0xFF	; 255
     d50:	d8 01       	movw	r26, r16
     d52:	9d 91       	ld	r25, X+
     d54:	8d 01       	movw	r16, r26
     d56:	91 11       	cpse	r25, r1
     d58:	05 cf       	rjmp	.-502    	; 0xb64 <_ZN13GPS_L70_Light11decodeGPRMCEPcP5gps_tb+0x5e>
     d5a:	a0 96       	adiw	r28, 0x20	; 32
     d5c:	cd bf       	out	0x3d, r28	; 61
     d5e:	de bf       	out	0x3e, r29	; 62
     d60:	df 91       	pop	r29
     d62:	cf 91       	pop	r28
     d64:	1f 91       	pop	r17
     d66:	0f 91       	pop	r16
     d68:	ff 90       	pop	r15
     d6a:	ef 90       	pop	r14
     d6c:	df 90       	pop	r13
     d6e:	cf 90       	pop	r12
     d70:	bf 90       	pop	r11
     d72:	af 90       	pop	r10
     d74:	9f 90       	pop	r9
     d76:	8f 90       	pop	r8
     d78:	08 95       	ret

00000d7a <_ZN13GPS_L70_Light5startEP5gps_tP7TickTagjbb>:
	// $GPGGA,HHMMSS.ss,BBBB.BBBB,b,LLLLL.LLLL,l,Q,NN,D.D,H.H,h,G.G,g,A.A,RRRR*PP
	// TODO: extracts hdop and sats
}

bool GPS_L70_Light::start(gps_t *gpsData, TickTag *device, uint16_t timeoutSeconds, bool debug, bool ledOn) {
     d7a:	2f 92       	push	r2
     d7c:	3f 92       	push	r3
     d7e:	4f 92       	push	r4
     d80:	5f 92       	push	r5
     d82:	6f 92       	push	r6
     d84:	7f 92       	push	r7
     d86:	8f 92       	push	r8
     d88:	9f 92       	push	r9
     d8a:	af 92       	push	r10
     d8c:	bf 92       	push	r11
     d8e:	cf 92       	push	r12
     d90:	df 92       	push	r13
     d92:	ef 92       	push	r14
     d94:	ff 92       	push	r15
     d96:	0f 93       	push	r16
     d98:	1f 93       	push	r17
     d9a:	cf 93       	push	r28
     d9c:	df 93       	push	r29
     d9e:	cd b7       	in	r28, 0x3d	; 61
     da0:	de b7       	in	r29, 0x3e	; 62
     da2:	c6 55       	subi	r28, 0x56	; 86
     da4:	d1 09       	sbc	r29, r1
     da6:	cd bf       	out	0x3d, r28	; 61
     da8:	de bf       	out	0x3e, r29	; 62
     daa:	67 96       	adiw	r28, 0x17	; 23
     dac:	8e af       	std	Y+62, r24	; 0x3e
     dae:	9f af       	std	Y+63, r25	; 0x3f
     db0:	67 97       	sbiw	r28, 0x17	; 23
     db2:	5b 01       	movw	r10, r22
     db4:	6a 01       	movw	r12, r20
     db6:	39 01       	movw	r6, r18
     db8:	1e 2d       	mov	r17, r14
	// TODO: get HDOP value from GPGGA!!
	const uint32_t WAIT_MILLIS_AFTER_FIRST_FIX = 2500;
	char message[L70_MAX_COMMAND_LEN]; // = { 0 };
	gpsData->ttfSeconds = 0;
     dba:	fb 01       	movw	r30, r22
     dbc:	17 86       	std	Z+15, r1	; 0x0f
     dbe:	10 8a       	std	Z+16, r1	; 0x10
	uint32_t startTime = device->getMillis();
     dc0:	ca 01       	movw	r24, r20
     dc2:	0e 94 9f 00 	call	0x13e	; 0x13e <_ZN7TickTag9getMillisEv>
     dc6:	65 96       	adiw	r28, 0x15	; 21
     dc8:	6c af       	std	Y+60, r22	; 0x3c
     dca:	7d af       	std	Y+61, r23	; 0x3d
     dcc:	8e af       	std	Y+62, r24	; 0x3e
     dce:	9f af       	std	Y+63, r25	; 0x3f
     dd0:	65 97       	sbiw	r28, 0x15	; 21
	uint32_t startTimeWaitAfterFirstFix = 0;
	initPrimaryUARTwith9600(); // uart to communicate with L70
     dd2:	0e 94 84 0d 	call	0x1b08	; 0x1b08 <_Z23initPrimaryUARTwith9600v>
     dd6:	87 ea       	ldi	r24, 0xA7	; 167
     dd8:	91 e6       	ldi	r25, 0x61	; 97
     dda:	01 97       	sbiw	r24, 0x01	; 1
     ddc:	f1 f7       	brne	.-4      	; 0xdda <_ZN13GPS_L70_Light5startEP5gps_tP7TickTagjbb+0x60>
     dde:	00 c0       	rjmp	.+0      	; 0xde0 <_ZN13GPS_L70_Light5startEP5gps_tP7TickTagjbb+0x66>
     de0:	00 00       	nop
	_delay_ms(100);
	printf(commandOnlyGPRMCEverySecond);
     de2:	80 91 01 38 	lds	r24, 0x3801	; 0x803801 <__DATA_REGION_ORIGIN__+0x1>
     de6:	8f 93       	push	r24
     de8:	80 91 00 38 	lds	r24, 0x3800	; 0x803800 <__DATA_REGION_ORIGIN__>
     dec:	8f 93       	push	r24
     dee:	0e 94 bb 0e 	call	0x1d76	; 0x1d76 <printf>
	uartRead('\n', message, L70_MAX_COMMAND_LEN, 1200); // wait on answer
     df2:	20 eb       	ldi	r18, 0xB0	; 176
     df4:	34 e0       	ldi	r19, 0x04	; 4
     df6:	40 e5       	ldi	r20, 0x50	; 80
     df8:	be 01       	movw	r22, r28
     dfa:	6f 5f       	subi	r22, 0xFF	; 255
     dfc:	7f 4f       	sbci	r23, 0xFF	; 255
     dfe:	8a e0       	ldi	r24, 0x0A	; 10
     e00:	0e 94 ba 0d 	call	0x1b74	; 0x1b74 <_Z8uartReadcPchj>
     e04:	0f 90       	pop	r0
     e06:	0f 90       	pop	r0
	// TODO: get HDOP value from GPGGA!!
	const uint32_t WAIT_MILLIS_AFTER_FIRST_FIX = 2500;
	char message[L70_MAX_COMMAND_LEN]; // = { 0 };
	gpsData->ttfSeconds = 0;
	uint32_t startTime = device->getMillis();
	uint32_t startTimeWaitAfterFirstFix = 0;
     e08:	21 2c       	mov	r2, r1
     e0a:	31 2c       	mov	r3, r1
     e0c:	21 01       	movw	r4, r2
	printf(commandOnlyGPRMCEverySecond);
	uartRead('\n', message, L70_MAX_COMMAND_LEN, 1200); // wait on answer
	
	while(1) {
		// wait on message from L70
		uartRead('\n', message, L70_MAX_COMMAND_LEN, 1200); // flush and memset done in function
     e0e:	fe 01       	movw	r30, r28
     e10:	31 96       	adiw	r30, 0x01	; 1
     e12:	7f 01       	movw	r14, r30
     e14:	20 eb       	ldi	r18, 0xB0	; 176
     e16:	34 e0       	ldi	r19, 0x04	; 4
     e18:	40 e5       	ldi	r20, 0x50	; 80
     e1a:	b7 01       	movw	r22, r14
     e1c:	8a e0       	ldi	r24, 0x0A	; 10
     e1e:	0e 94 ba 0d 	call	0x1b74	; 0x1b74 <_Z8uartReadcPchj>
		
		// switch to debug uart
		if(debug) {
     e22:	00 23       	and	r16, r16
     e24:	09 f4       	brne	.+2      	; 0xe28 <_ZN13GPS_L70_Light5startEP5gps_tP7TickTagjbb+0xae>
     e26:	b9 c0       	rjmp	.+370    	; 0xf9a <_ZN13GPS_L70_Light5startEP5gps_tP7TickTagjbb+0x220>
     e28:	87 ea       	ldi	r24, 0xA7	; 167
     e2a:	91 e6       	ldi	r25, 0x61	; 97
     e2c:	01 97       	sbiw	r24, 0x01	; 1
     e2e:	f1 f7       	brne	.-4      	; 0xe2c <_ZN13GPS_L70_Light5startEP5gps_tP7TickTagjbb+0xb2>
     e30:	00 c0       	rjmp	.+0      	; 0xe32 <_ZN13GPS_L70_Light5startEP5gps_tP7TickTagjbb+0xb8>
     e32:	00 00       	nop
			_delay_ms(100);
			initSecondUARTwith9600(); // uart to communicate with external programmer
     e34:	0e 94 98 0d 	call	0x1b30	; 0x1b30 <_Z22initSecondUARTwith9600v>
     e38:	e7 ea       	ldi	r30, 0xA7	; 167
     e3a:	f1 e6       	ldi	r31, 0x61	; 97
     e3c:	31 97       	sbiw	r30, 0x01	; 1
     e3e:	f1 f7       	brne	.-4      	; 0xe3c <_ZN13GPS_L70_Light5startEP5gps_tP7TickTagjbb+0xc2>
     e40:	00 c0       	rjmp	.+0      	; 0xe42 <_ZN13GPS_L70_Light5startEP5gps_tP7TickTagjbb+0xc8>
     e42:	00 00       	nop
			_delay_ms(100);
			//strcpy(command, "$GPRMC,144326.00,A,5107.0017,N,11402.3291,W,0.080,323.3,210307,0.0,E,A*25"); // TEST
		}
		
		// decode received message
		if((message[0] == '$') && (message[1] == 'G') && (message[2] == 'P') && (message[3] == 'R')) { decodeGPRMC(message, gpsData, debug); }
     e44:	89 81       	ldd	r24, Y+1	; 0x01
     e46:	84 32       	cpi	r24, 0x24	; 36
     e48:	09 f4       	brne	.+2      	; 0xe4c <_ZN13GPS_L70_Light5startEP5gps_tP7TickTagjbb+0xd2>
     e4a:	ac c0       	rjmp	.+344    	; 0xfa4 <_ZN13GPS_L70_Light5startEP5gps_tP7TickTagjbb+0x22a>
     e4c:	11 c0       	rjmp	.+34     	; 0xe70 <_ZN13GPS_L70_Light5startEP5gps_tP7TickTagjbb+0xf6>
     e4e:	8b 81       	ldd	r24, Y+3	; 0x03
     e50:	80 35       	cpi	r24, 0x50	; 80
     e52:	61 f4       	brne	.+24     	; 0xe6c <_ZN13GPS_L70_Light5startEP5gps_tP7TickTagjbb+0xf2>
     e54:	8c 81       	ldd	r24, Y+4	; 0x04
     e56:	82 35       	cpi	r24, 0x52	; 82
     e58:	49 f4       	brne	.+18     	; 0xe6c <_ZN13GPS_L70_Light5startEP5gps_tP7TickTagjbb+0xf2>
     e5a:	20 2f       	mov	r18, r16
     e5c:	a5 01       	movw	r20, r10
     e5e:	b7 01       	movw	r22, r14
     e60:	67 96       	adiw	r28, 0x17	; 23
     e62:	8e ad       	ldd	r24, Y+62	; 0x3e
     e64:	9f ad       	ldd	r25, Y+63	; 0x3f
     e66:	67 97       	sbiw	r28, 0x17	; 23
     e68:	0e 94 83 05 	call	0xb06	; 0xb06 <_ZN13GPS_L70_Light11decodeGPRMCEPcP5gps_tb>
		if(debug) { printf("%lu: %s (%d)\n\r", device->getMillis(), message, strlen(message)); _delay_ms(10); }
     e6c:	00 23       	and	r16, r16
     e6e:	09 f1       	breq	.+66     	; 0xeb2 <_ZN13GPS_L70_Light5startEP5gps_tP7TickTagjbb+0x138>
     e70:	f7 01       	movw	r30, r14
     e72:	01 90       	ld	r0, Z+
     e74:	00 20       	and	r0, r0
     e76:	e9 f7       	brne	.-6      	; 0xe72 <_ZN13GPS_L70_Light5startEP5gps_tP7TickTagjbb+0xf8>
     e78:	31 97       	sbiw	r30, 0x01	; 1
     e7a:	4f 01       	movw	r8, r30
     e7c:	8e 18       	sub	r8, r14
     e7e:	9f 08       	sbc	r9, r15
     e80:	c6 01       	movw	r24, r12
     e82:	0e 94 9f 00 	call	0x13e	; 0x13e <_ZN7TickTag9getMillisEv>
     e86:	9f 92       	push	r9
     e88:	8f 92       	push	r8
     e8a:	ff 92       	push	r15
     e8c:	ef 92       	push	r14
     e8e:	9f 93       	push	r25
     e90:	8f 93       	push	r24
     e92:	7f 93       	push	r23
     e94:	6f 93       	push	r22
     e96:	2e e3       	ldi	r18, 0x3E	; 62
     e98:	33 ea       	ldi	r19, 0xA3	; 163
     e9a:	3f 93       	push	r19
     e9c:	2f 93       	push	r18
     e9e:	0e 94 bb 0e 	call	0x1d76	; 0x1d76 <printf>
     ea2:	83 ec       	ldi	r24, 0xC3	; 195
     ea4:	99 e0       	ldi	r25, 0x09	; 9
     ea6:	01 97       	sbiw	r24, 0x01	; 1
     ea8:	f1 f7       	brne	.-4      	; 0xea6 <_ZN13GPS_L70_Light5startEP5gps_tP7TickTagjbb+0x12c>
     eaa:	00 c0       	rjmp	.+0      	; 0xeac <_ZN13GPS_L70_Light5startEP5gps_tP7TickTagjbb+0x132>
     eac:	00 00       	nop
     eae:	cd bf       	out	0x3d, r28	; 61
     eb0:	de bf       	out	0x3e, r29	; 62
		
		// check if fix found
		if(gpsData->fix == 1) {
     eb2:	f5 01       	movw	r30, r10
     eb4:	86 85       	ldd	r24, Z+14	; 0x0e
     eb6:	81 30       	cpi	r24, 0x01	; 1
     eb8:	81 f5       	brne	.+96     	; 0xf1a <_ZN13GPS_L70_Light5startEP5gps_tP7TickTagjbb+0x1a0>
			if(startTimeWaitAfterFirstFix == 0) { startTimeWaitAfterFirstFix = device->getMillis(); } // first fix
     eba:	21 14       	cp	r2, r1
     ebc:	31 04       	cpc	r3, r1
     ebe:	41 04       	cpc	r4, r1
     ec0:	51 04       	cpc	r5, r1
     ec2:	29 f4       	brne	.+10     	; 0xece <_ZN13GPS_L70_Light5startEP5gps_tP7TickTagjbb+0x154>
     ec4:	c6 01       	movw	r24, r12
     ec6:	0e 94 9f 00 	call	0x13e	; 0x13e <_ZN7TickTag9getMillisEv>
     eca:	1b 01       	movw	r2, r22
     ecc:	2c 01       	movw	r4, r24
			if(device->getMillis() - startTimeWaitAfterFirstFix > WAIT_MILLIS_AFTER_FIRST_FIX) {
     ece:	c6 01       	movw	r24, r12
     ed0:	0e 94 9f 00 	call	0x13e	; 0x13e <_ZN7TickTag9getMillisEv>
     ed4:	dc 01       	movw	r26, r24
     ed6:	cb 01       	movw	r24, r22
     ed8:	82 19       	sub	r24, r2
     eda:	93 09       	sbc	r25, r3
     edc:	a4 09       	sbc	r26, r4
     ede:	b5 09       	sbc	r27, r5
     ee0:	85 3c       	cpi	r24, 0xC5	; 197
     ee2:	99 40       	sbci	r25, 0x09	; 9
     ee4:	a1 05       	cpc	r26, r1
     ee6:	b1 05       	cpc	r27, r1
     ee8:	c0 f0       	brcs	.+48     	; 0xf1a <_ZN13GPS_L70_Light5startEP5gps_tP7TickTagjbb+0x1a0>
				startTime = device->getMillis() - startTime;
     eea:	c6 01       	movw	r24, r12
     eec:	0e 94 9f 00 	call	0x13e	; 0x13e <_ZN7TickTag9getMillisEv>
     ef0:	65 96       	adiw	r28, 0x15	; 21
     ef2:	2c ad       	ldd	r18, Y+60	; 0x3c
     ef4:	3d ad       	ldd	r19, Y+61	; 0x3d
     ef6:	4e ad       	ldd	r20, Y+62	; 0x3e
     ef8:	5f ad       	ldd	r21, Y+63	; 0x3f
     efa:	65 97       	sbiw	r28, 0x15	; 21
     efc:	62 1b       	sub	r22, r18
     efe:	73 0b       	sbc	r23, r19
     f00:	84 0b       	sbc	r24, r20
     f02:	95 0b       	sbc	r25, r21
				startTime /= 1000;
				gpsData->ttfSeconds = startTime;
     f04:	28 ee       	ldi	r18, 0xE8	; 232
     f06:	33 e0       	ldi	r19, 0x03	; 3
     f08:	40 e0       	ldi	r20, 0x00	; 0
     f0a:	50 e0       	ldi	r21, 0x00	; 0
     f0c:	0e 94 1d 0e 	call	0x1c3a	; 0x1c3a <__udivmodsi4>
     f10:	f5 01       	movw	r30, r10
     f12:	27 87       	std	Z+15, r18	; 0x0f
     f14:	30 8b       	std	Z+16, r19	; 0x10
				return true;				
     f16:	81 e0       	ldi	r24, 0x01	; 1
     f18:	4f c0       	rjmp	.+158    	; 0xfb8 <_ZN13GPS_L70_Light5startEP5gps_tP7TickTagjbb+0x23e>
			}
		}
		
		// check if timeout reached
		uint32_t seconds = device->getMillis() / 1000;
     f1a:	c6 01       	movw	r24, r12
     f1c:	0e 94 9f 00 	call	0x13e	; 0x13e <_ZN7TickTag9getMillisEv>
		uint16_t seconds16 = seconds;
		if(seconds16 > timeoutSeconds) {
     f20:	28 ee       	ldi	r18, 0xE8	; 232
     f22:	33 e0       	ldi	r19, 0x03	; 3
     f24:	40 e0       	ldi	r20, 0x00	; 0
     f26:	50 e0       	ldi	r21, 0x00	; 0
     f28:	0e 94 1d 0e 	call	0x1c3a	; 0x1c3a <__udivmodsi4>
     f2c:	62 16       	cp	r6, r18
     f2e:	73 06       	cpc	r7, r19
     f30:	28 f4       	brcc	.+10     	; 0xf3c <_ZN13GPS_L70_Light5startEP5gps_tP7TickTagjbb+0x1c2>
			gpsData->ttfSeconds = timeoutSeconds;
     f32:	f5 01       	movw	r30, r10
     f34:	67 86       	std	Z+15, r6	; 0x0f
     f36:	70 8a       	std	Z+16, r7	; 0x10
			return false;
     f38:	80 e0       	ldi	r24, 0x00	; 0
     f3a:	3e c0       	rjmp	.+124    	; 0xfb8 <_ZN13GPS_L70_Light5startEP5gps_tP7TickTagjbb+0x23e>
		}
		
		// re-init L70 uart
		if(debug) { initPrimaryUARTwith9600(); }
     f3c:	01 11       	cpse	r16, r1
     f3e:	0e 94 84 0d 	call	0x1b08	; 0x1b08 <_Z23initPrimaryUARTwith9600v>
		
		// shortly blink led
		if(ledOn) {
     f42:	11 23       	and	r17, r17
     f44:	19 f1       	breq	.+70     	; 0xf8c <_ZN13GPS_L70_Light5startEP5gps_tP7TickTagjbb+0x212>
			device->ledOn();
     f46:	c6 01       	movw	r24, r12
     f48:	0e 94 3c 01 	call	0x278	; 0x278 <_ZN7TickTag5ledOnEv>
			if(gpsData->year == 80) { _delay_ms(100); }
     f4c:	f5 01       	movw	r30, r10
     f4e:	85 81       	ldd	r24, Z+5	; 0x05
     f50:	80 35       	cpi	r24, 0x50	; 80
     f52:	39 f4       	brne	.+14     	; 0xf62 <_ZN13GPS_L70_Light5startEP5gps_tP7TickTagjbb+0x1e8>
     f54:	87 ea       	ldi	r24, 0xA7	; 167
     f56:	91 e6       	ldi	r25, 0x61	; 97
     f58:	01 97       	sbiw	r24, 0x01	; 1
     f5a:	f1 f7       	brne	.-4      	; 0xf58 <_ZN13GPS_L70_Light5startEP5gps_tP7TickTagjbb+0x1de>
     f5c:	00 c0       	rjmp	.+0      	; 0xf5e <_ZN13GPS_L70_Light5startEP5gps_tP7TickTagjbb+0x1e4>
     f5e:	00 00       	nop
     f60:	06 c0       	rjmp	.+12     	; 0xf6e <_ZN13GPS_L70_Light5startEP5gps_tP7TickTagjbb+0x1f4>
     f62:	ef e4       	ldi	r30, 0x4F	; 79
     f64:	f3 ec       	ldi	r31, 0xC3	; 195
     f66:	31 97       	sbiw	r30, 0x01	; 1
     f68:	f1 f7       	brne	.-4      	; 0xf66 <_ZN13GPS_L70_Light5startEP5gps_tP7TickTagjbb+0x1ec>
     f6a:	00 c0       	rjmp	.+0      	; 0xf6c <_ZN13GPS_L70_Light5startEP5gps_tP7TickTagjbb+0x1f2>
     f6c:	00 00       	nop
			else { _delay_ms(200); }
			device->ledOff();
     f6e:	c6 01       	movw	r24, r12
     f70:	0e 94 44 01 	call	0x288	; 0x288 <_ZN7TickTag6ledOffEv>
			if(gpsData->year == 80) { _delay_ms(100); }
     f74:	f5 01       	movw	r30, r10
     f76:	85 81       	ldd	r24, Z+5	; 0x05
     f78:	80 35       	cpi	r24, 0x50	; 80
     f7a:	09 f0       	breq	.+2      	; 0xf7e <_ZN13GPS_L70_Light5startEP5gps_tP7TickTagjbb+0x204>
     f7c:	4b cf       	rjmp	.-362    	; 0xe14 <_ZN13GPS_L70_Light5startEP5gps_tP7TickTagjbb+0x9a>
     f7e:	87 ea       	ldi	r24, 0xA7	; 167
     f80:	91 e6       	ldi	r25, 0x61	; 97
     f82:	01 97       	sbiw	r24, 0x01	; 1
     f84:	f1 f7       	brne	.-4      	; 0xf82 <_ZN13GPS_L70_Light5startEP5gps_tP7TickTagjbb+0x208>
     f86:	00 c0       	rjmp	.+0      	; 0xf88 <_ZN13GPS_L70_Light5startEP5gps_tP7TickTagjbb+0x20e>
     f88:	00 00       	nop
     f8a:	44 cf       	rjmp	.-376    	; 0xe14 <_ZN13GPS_L70_Light5startEP5gps_tP7TickTagjbb+0x9a>
     f8c:	e7 ea       	ldi	r30, 0xA7	; 167
     f8e:	f1 e6       	ldi	r31, 0x61	; 97
     f90:	31 97       	sbiw	r30, 0x01	; 1
     f92:	f1 f7       	brne	.-4      	; 0xf90 <_ZN13GPS_L70_Light5startEP5gps_tP7TickTagjbb+0x216>
     f94:	00 c0       	rjmp	.+0      	; 0xf96 <_ZN13GPS_L70_Light5startEP5gps_tP7TickTagjbb+0x21c>
     f96:	00 00       	nop
     f98:	3d cf       	rjmp	.-390    	; 0xe14 <_ZN13GPS_L70_Light5startEP5gps_tP7TickTagjbb+0x9a>
			_delay_ms(100);
			//strcpy(command, "$GPRMC,144326.00,A,5107.0017,N,11402.3291,W,0.080,323.3,210307,0.0,E,A*25"); // TEST
		}
		
		// decode received message
		if((message[0] == '$') && (message[1] == 'G') && (message[2] == 'P') && (message[3] == 'R')) { decodeGPRMC(message, gpsData, debug); }
     f9a:	89 81       	ldd	r24, Y+1	; 0x01
     f9c:	84 32       	cpi	r24, 0x24	; 36
     f9e:	09 f0       	breq	.+2      	; 0xfa2 <_ZN13GPS_L70_Light5startEP5gps_tP7TickTagjbb+0x228>
     fa0:	88 cf       	rjmp	.-240    	; 0xeb2 <_ZN13GPS_L70_Light5startEP5gps_tP7TickTagjbb+0x138>
     fa2:	05 c0       	rjmp	.+10     	; 0xfae <_ZN13GPS_L70_Light5startEP5gps_tP7TickTagjbb+0x234>
     fa4:	8a 81       	ldd	r24, Y+2	; 0x02
     fa6:	87 34       	cpi	r24, 0x47	; 71
     fa8:	09 f0       	breq	.+2      	; 0xfac <_ZN13GPS_L70_Light5startEP5gps_tP7TickTagjbb+0x232>
     faa:	62 cf       	rjmp	.-316    	; 0xe70 <_ZN13GPS_L70_Light5startEP5gps_tP7TickTagjbb+0xf6>
     fac:	50 cf       	rjmp	.-352    	; 0xe4e <_ZN13GPS_L70_Light5startEP5gps_tP7TickTagjbb+0xd4>
     fae:	8a 81       	ldd	r24, Y+2	; 0x02
     fb0:	87 34       	cpi	r24, 0x47	; 71
     fb2:	09 f0       	breq	.+2      	; 0xfb6 <_ZN13GPS_L70_Light5startEP5gps_tP7TickTagjbb+0x23c>
     fb4:	7e cf       	rjmp	.-260    	; 0xeb2 <_ZN13GPS_L70_Light5startEP5gps_tP7TickTagjbb+0x138>
     fb6:	4b cf       	rjmp	.-362    	; 0xe4e <_ZN13GPS_L70_Light5startEP5gps_tP7TickTagjbb+0xd4>
			if(gpsData->year == 80) { _delay_ms(100); }
		}
		else { _delay_ms(100); }
	}
	return false;
     fb8:	ca 5a       	subi	r28, 0xAA	; 170
     fba:	df 4f       	sbci	r29, 0xFF	; 255
     fbc:	cd bf       	out	0x3d, r28	; 61
     fbe:	de bf       	out	0x3e, r29	; 62
     fc0:	df 91       	pop	r29
     fc2:	cf 91       	pop	r28
     fc4:	1f 91       	pop	r17
     fc6:	0f 91       	pop	r16
     fc8:	ff 90       	pop	r15
     fca:	ef 90       	pop	r14
     fcc:	df 90       	pop	r13
     fce:	cf 90       	pop	r12
     fd0:	bf 90       	pop	r11
     fd2:	af 90       	pop	r10
     fd4:	9f 90       	pop	r9
     fd6:	8f 90       	pop	r8
     fd8:	7f 90       	pop	r7
     fda:	6f 90       	pop	r6
     fdc:	5f 90       	pop	r5
     fde:	4f 90       	pop	r4
     fe0:	3f 90       	pop	r3
     fe2:	2f 90       	pop	r2
     fe4:	08 95       	ret

00000fe6 <_Z7i2cInitv>:
#include "i2c.h"

void i2cInit() {
	TWI0.MBAUD = (uint8_t)I2C_BAUD(400000); // set MBAUD register for 100kHz
     fe6:	e0 e1       	ldi	r30, 0x10	; 16
     fe8:	f8 e0       	ldi	r31, 0x08	; 8
     fea:	16 82       	std	Z+6, r1	; 0x06
	TWI0.MCTRLA = 1 << TWI_ENABLE_bp // Enable TWI Master: enabled
	| 0 << TWI_QCEN_bp // Quick Command Enable: disabled
	| 0 << TWI_RIEN_bp // Read Interrupt Enable: disabled
	| 1 << TWI_SMEN_bp // Smart Mode Enable: enabled
	| TWI_TIMEOUT_DISABLED_gc // Bus Timeout Disabled
	| 0 << TWI_WIEN_bp; // Write Interrupt Enable: disabled
     fec:	83 e0       	ldi	r24, 0x03	; 3
     fee:	83 83       	std	Z+3, r24	; 0x03
	TWI0.MCTRLB |= TWI_FLUSH_bm; // Purge MADDR and MDATA
     ff0:	84 81       	ldd	r24, Z+4	; 0x04
     ff2:	88 60       	ori	r24, 0x08	; 8
     ff4:	84 83       	std	Z+4, r24	; 0x04
	TWI0.MSTATUS |= TWI_BUSSTATE_IDLE_gc ; // Force TWI state machine into IDLE state
     ff6:	85 81       	ldd	r24, Z+5	; 0x05
     ff8:	81 60       	ori	r24, 0x01	; 1
     ffa:	85 83       	std	Z+5, r24	; 0x05
	TWI0.MSTATUS |= (TWI_RIF_bm | TWI_WIF_bm) ;
     ffc:	85 81       	ldd	r24, Z+5	; 0x05
     ffe:	80 6c       	ori	r24, 0xC0	; 192
    1000:	85 83       	std	Z+5, r24	; 0x05
    1002:	08 95       	ret

00001004 <_Z7pollRIFv>:
}

bool pollRIF() {
    1004:	88 e8       	ldi	r24, 0x88	; 136
    1006:	93 e1       	ldi	r25, 0x13	; 19
	uint16_t timeout = TIMEOUT_NUM_WAIT;
	while(!(TWI0.MSTATUS & TWI_RIF_bm)) {
    1008:	e0 e1       	ldi	r30, 0x10	; 16
    100a:	f8 e0       	ldi	r31, 0x08	; 8
    100c:	25 81       	ldd	r18, Z+5	; 0x05
    100e:	22 23       	and	r18, r18
    1010:	44 f0       	brlt	.+16     	; 0x1022 <_Z7pollRIFv+0x1e>
	#else
		//round up by default
		__ticks_dc = (uint32_t)(ceil(fabs(__tmp)));
	#endif

	__builtin_avr_delay_cycles(__ticks_dc);
    1012:	23 e0       	ldi	r18, 0x03	; 3
    1014:	2a 95       	dec	r18
    1016:	f1 f7       	brne	.-4      	; 0x1014 <_Z7pollRIFv+0x10>
    1018:	00 00       	nop
    101a:	01 97       	sbiw	r24, 0x01	; 1
		 _delay_us(TIMEOUT_US_WAIT);
		 timeout--;
		 if(timeout == 0) {
    101c:	b9 f7       	brne	.-18     	; 0x100c <_Z7pollRIFv+0x8>
			 return false; // failed
    101e:	80 e0       	ldi	r24, 0x00	; 0
    1020:	08 95       	ret
		 }
	}
	return true;
    1022:	81 e0       	ldi	r24, 0x01	; 1
}
    1024:	08 95       	ret

00001026 <_Z7pollWIFv>:

bool pollWIF() {
    1026:	88 e8       	ldi	r24, 0x88	; 136
    1028:	93 e1       	ldi	r25, 0x13	; 19
	uint16_t timeout = TIMEOUT_NUM_WAIT;
	while(!(TWI0.MSTATUS & TWI_WIF_bm)) {
    102a:	e0 e1       	ldi	r30, 0x10	; 16
    102c:	f8 e0       	ldi	r31, 0x08	; 8
    102e:	25 81       	ldd	r18, Z+5	; 0x05
    1030:	26 fd       	sbrc	r18, 6
    1032:	08 c0       	rjmp	.+16     	; 0x1044 <_Z7pollWIFv+0x1e>
    1034:	23 e0       	ldi	r18, 0x03	; 3
    1036:	2a 95       	dec	r18
    1038:	f1 f7       	brne	.-4      	; 0x1036 <_Z7pollWIFv+0x10>
    103a:	00 00       	nop
    103c:	01 97       	sbiw	r24, 0x01	; 1
		_delay_us(TIMEOUT_US_WAIT);
		timeout--;
		if(timeout == 0) {
    103e:	b9 f7       	brne	.-18     	; 0x102e <_Z7pollWIFv+0x8>
			return false; // failed
    1040:	80 e0       	ldi	r24, 0x00	; 0
    1042:	08 95       	ret
		}
	}
	return true;	
    1044:	81 e0       	ldi	r24, 0x01	; 1
}
    1046:	08 95       	ret

00001048 <_Z12i2cStartReadh>:

bool i2cStartRead(uint8_t deviceAddr) {
	deviceAddr = (deviceAddr << 1) | 1;  // lsb = 1 for read
	if((TWI0.MSTATUS & TWI_BUSSTATE_gm) != TWI_BUSSTATE_BUSY_gc) { // verify bus is not busy
    1048:	90 91 15 08 	lds	r25, 0x0815	; 0x800815 <__RODATA_PM_OFFSET__+0x7f8815>
    104c:	93 70       	andi	r25, 0x03	; 3
    104e:	93 30       	cpi	r25, 0x03	; 3
    1050:	59 f0       	breq	.+22     	; 0x1068 <_Z12i2cStartReadh+0x20>
		TWI0.MCTRLB &= ~(1 << TWI_ACKACT_bp);
    1052:	e0 e1       	ldi	r30, 0x10	; 16
    1054:	f8 e0       	ldi	r31, 0x08	; 8
    1056:	94 81       	ldd	r25, Z+4	; 0x04
    1058:	9b 7f       	andi	r25, 0xFB	; 251
    105a:	94 83       	std	Z+4, r25	; 0x04
	}
	return true;	
}

bool i2cStartRead(uint8_t deviceAddr) {
	deviceAddr = (deviceAddr << 1) | 1;  // lsb = 1 for read
    105c:	88 0f       	add	r24, r24
    105e:	81 60       	ori	r24, 0x01	; 1
	if((TWI0.MSTATUS & TWI_BUSSTATE_gm) != TWI_BUSSTATE_BUSY_gc) { // verify bus is not busy
		TWI0.MCTRLB &= ~(1 << TWI_ACKACT_bp);
		TWI0.MADDR = deviceAddr;
    1060:	87 83       	std	Z+7, r24	; 0x07
		//while(!(TWI0.MSTATUS & TWI_RIF_bm)); // read polling
		if(!pollRIF()) { return false; }
    1062:	0e 94 02 08 	call	0x1004	; 0x1004 <_Z7pollRIFv>
    1066:	08 95       	ret
		return true;
	}
	return false; // bus is busy
    1068:	80 e0       	ldi	r24, 0x00	; 0
}
    106a:	08 95       	ret

0000106c <_Z13i2cStartWriteh>:

bool i2cStartWrite(uint8_t deviceAddr) {
	deviceAddr = (deviceAddr << 1); // lsb = 0 for write
	if((TWI0.MSTATUS & TWI_BUSSTATE_gm) != TWI_BUSSTATE_BUSY_gc) { // verify bus is not busy
    106c:	90 91 15 08 	lds	r25, 0x0815	; 0x800815 <__RODATA_PM_OFFSET__+0x7f8815>
    1070:	93 70       	andi	r25, 0x03	; 3
    1072:	93 30       	cpi	r25, 0x03	; 3
    1074:	51 f0       	breq	.+20     	; 0x108a <_Z13i2cStartWriteh+0x1e>
		TWI0.MCTRLB &= ~(1 << TWI_ACKACT_bp);
    1076:	e0 e1       	ldi	r30, 0x10	; 16
    1078:	f8 e0       	ldi	r31, 0x08	; 8
    107a:	94 81       	ldd	r25, Z+4	; 0x04
    107c:	9b 7f       	andi	r25, 0xFB	; 251
    107e:	94 83       	std	Z+4, r25	; 0x04
	}
	return false; // bus is busy
}

bool i2cStartWrite(uint8_t deviceAddr) {
	deviceAddr = (deviceAddr << 1); // lsb = 0 for write
    1080:	88 0f       	add	r24, r24
	if((TWI0.MSTATUS & TWI_BUSSTATE_gm) != TWI_BUSSTATE_BUSY_gc) { // verify bus is not busy
		TWI0.MCTRLB &= ~(1 << TWI_ACKACT_bp);
		TWI0.MADDR = deviceAddr;
    1082:	87 83       	std	Z+7, r24	; 0x07
		//while(!(TWI0.MSTATUS & TWI_WIF_bm)); // write polling
		if(!pollWIF()) { return false; }
    1084:	0e 94 13 08 	call	0x1026	; 0x1026 <_Z7pollWIFv>
    1088:	08 95       	ret
		return true;
	}
	return false; // bus is busy
    108a:	80 e0       	ldi	r24, 0x00	; 0
}
    108c:	08 95       	ret

0000108e <_Z7i2cReadb>:

uint8_t i2cRead(bool ack) { // ACK=1 send ACK ; ACK=0 send NACK
    108e:	cf 93       	push	r28
	if((TWI0.MSTATUS & TWI_BUSSTATE_gm) == TWI_BUSSTATE_OWNER_gc) { // verify master owns the bus
    1090:	90 91 15 08 	lds	r25, 0x0815	; 0x800815 <__RODATA_PM_OFFSET__+0x7f8815>
    1094:	93 70       	andi	r25, 0x03	; 3
    1096:	92 30       	cpi	r25, 0x02	; 2
    1098:	a9 f4       	brne	.+42     	; 0x10c4 <_Z7i2cReadb+0x36>
    109a:	c8 2f       	mov	r28, r24
		//while(!(TWI0.MSTATUS & TWI_RIF_bm)); // wait until RIF set (ack of receiver)
		if(!pollRIF()) { return 0; }
    109c:	0e 94 02 08 	call	0x1004	; 0x1004 <_Z7pollRIFv>
    10a0:	88 23       	and	r24, r24
    10a2:	91 f0       	breq	.+36     	; 0x10c8 <_Z7i2cReadb+0x3a>
		uint8_t data = TWI0.MDATA;
    10a4:	80 91 18 08 	lds	r24, 0x0818	; 0x800818 <__RODATA_PM_OFFSET__+0x7f8818>
		if(ack) { TWI0.MCTRLB &= ~(1<<TWI_ACKACT_bp); } // send ack
    10a8:	cc 23       	and	r28, r28
    10aa:	31 f0       	breq	.+12     	; 0x10b8 <_Z7i2cReadb+0x2a>
    10ac:	e0 e1       	ldi	r30, 0x10	; 16
    10ae:	f8 e0       	ldi	r31, 0x08	; 8
    10b0:	94 81       	ldd	r25, Z+4	; 0x04
    10b2:	9b 7f       	andi	r25, 0xFB	; 251
    10b4:	94 83       	std	Z+4, r25	; 0x04
    10b6:	09 c0       	rjmp	.+18     	; 0x10ca <_Z7i2cReadb+0x3c>
		else { TWI0.MCTRLB |= (1<<TWI_ACKACT_bp); } // do not send ack, prepare for stop
    10b8:	e0 e1       	ldi	r30, 0x10	; 16
    10ba:	f8 e0       	ldi	r31, 0x08	; 8
    10bc:	94 81       	ldd	r25, Z+4	; 0x04
    10be:	94 60       	ori	r25, 0x04	; 4
    10c0:	94 83       	std	Z+4, r25	; 0x04
    10c2:	03 c0       	rjmp	.+6      	; 0x10ca <_Z7i2cReadb+0x3c>
		return data;
	}
	return 0; // master does not own the bus
    10c4:	80 e0       	ldi	r24, 0x00	; 0
    10c6:	01 c0       	rjmp	.+2      	; 0x10ca <_Z7i2cReadb+0x3c>
}

uint8_t i2cRead(bool ack) { // ACK=1 send ACK ; ACK=0 send NACK
	if((TWI0.MSTATUS & TWI_BUSSTATE_gm) == TWI_BUSSTATE_OWNER_gc) { // verify master owns the bus
		//while(!(TWI0.MSTATUS & TWI_RIF_bm)); // wait until RIF set (ack of receiver)
		if(!pollRIF()) { return 0; }
    10c8:	80 e0       	ldi	r24, 0x00	; 0
		if(ack) { TWI0.MCTRLB &= ~(1<<TWI_ACKACT_bp); } // send ack
		else { TWI0.MCTRLB |= (1<<TWI_ACKACT_bp); } // do not send ack, prepare for stop
		return data;
	}
	return 0; // master does not own the bus
}
    10ca:	cf 91       	pop	r28
    10cc:	08 95       	ret

000010ce <_Z8i2cWriteh>:

bool i2cWrite(uint8_t write_data) {
	uint16_t timeout = TIMEOUT_NUM_WAIT;
	if((TWI0.MSTATUS&TWI_BUSSTATE_gm) == TWI_BUSSTATE_OWNER_gc) { // verify Master owns the bus
    10ce:	90 91 15 08 	lds	r25, 0x0815	; 0x800815 <__RODATA_PM_OFFSET__+0x7f8815>
    10d2:	93 70       	andi	r25, 0x03	; 3
    10d4:	92 30       	cpi	r25, 0x02	; 2
    10d6:	a9 f4       	brne	.+42     	; 0x1102 <_Z8i2cWriteh+0x34>
		TWI0.MDATA = write_data;
    10d8:	80 93 18 08 	sts	0x0818, r24	; 0x800818 <__RODATA_PM_OFFSET__+0x7f8818>
    10dc:	28 e8       	ldi	r18, 0x88	; 136
    10de:	33 e1       	ldi	r19, 0x13	; 19
		while(!((TWI0.MSTATUS & TWI_WIF_bm) | (TWI0.MSTATUS & TWI_RXACK_bm))) { // wait until WIF set and RXACK cleared
    10e0:	e0 e1       	ldi	r30, 0x10	; 16
    10e2:	f8 e0       	ldi	r31, 0x08	; 8
    10e4:	85 81       	ldd	r24, Z+5	; 0x05
    10e6:	95 81       	ldd	r25, Z+5	; 0x05
    10e8:	90 71       	andi	r25, 0x10	; 16
    10ea:	80 74       	andi	r24, 0x40	; 64
    10ec:	89 2b       	or	r24, r25
    10ee:	59 f4       	brne	.+22     	; 0x1106 <_Z8i2cWriteh+0x38>
    10f0:	83 e0       	ldi	r24, 0x03	; 3
    10f2:	8a 95       	dec	r24
    10f4:	f1 f7       	brne	.-4      	; 0x10f2 <_Z8i2cWriteh+0x24>
    10f6:	00 00       	nop
    10f8:	21 50       	subi	r18, 0x01	; 1
    10fa:	31 09       	sbc	r19, r1
			_delay_us(TIMEOUT_US_WAIT);
			timeout--;
			if(timeout == 0) {
    10fc:	99 f7       	brne	.-26     	; 0x10e4 <_Z8i2cWriteh+0x16>
				return false; // failed
    10fe:	80 e0       	ldi	r24, 0x00	; 0
    1100:	08 95       	ret
			}
		}
		return true;
	}
	return false; // master does not own the bus
    1102:	80 e0       	ldi	r24, 0x00	; 0
    1104:	08 95       	ret
			timeout--;
			if(timeout == 0) {
				return false; // failed
			}
		}
		return true;
    1106:	81 e0       	ldi	r24, 0x01	; 1
	}
	return false; // master does not own the bus
}
    1108:	08 95       	ret

0000110a <_Z7i2cStopv>:

void i2cStop() {
	TWI0.MCTRLB |= TWI_ACKACT_NACK_gc;
    110a:	e0 e1       	ldi	r30, 0x10	; 16
    110c:	f8 e0       	ldi	r31, 0x08	; 8
    110e:	84 81       	ldd	r24, Z+4	; 0x04
    1110:	84 60       	ori	r24, 0x04	; 4
    1112:	84 83       	std	Z+4, r24	; 0x04
	TWI0.MCTRLB |= TWI_MCMD_STOP_gc;
    1114:	84 81       	ldd	r24, Z+4	; 0x04
    1116:	83 60       	ori	r24, 0x03	; 3
    1118:	84 83       	std	Z+4, r24	; 0x04
    111a:	08 95       	ret

0000111c <__vector_3>:
uint16_t batteryVoltage = 0;
volatile bool downloadInterrupt = false; // volatile because used in ISR
volatile bool rtcInterrupt = false; // volatile because used in ISR

/** Interrupt functions */
ISR(PORTA_PORT_vect) { downloadInterrupt = true; PORTA.INTFLAGS |= PORT_INT5_bm; } // clear interrupt pin flag, must do this to handle next interrupt 
    111c:	1f 92       	push	r1
    111e:	0f 92       	push	r0
    1120:	0f b6       	in	r0, 0x3f	; 63
    1122:	0f 92       	push	r0
    1124:	11 24       	eor	r1, r1
    1126:	8f 93       	push	r24
    1128:	ef 93       	push	r30
    112a:	ff 93       	push	r31
    112c:	81 e0       	ldi	r24, 0x01	; 1
    112e:	80 93 07 38 	sts	0x3807, r24	; 0x803807 <downloadInterrupt>
    1132:	e0 e0       	ldi	r30, 0x00	; 0
    1134:	f4 e0       	ldi	r31, 0x04	; 4
    1136:	81 85       	ldd	r24, Z+9	; 0x09
    1138:	80 62       	ori	r24, 0x20	; 32
    113a:	81 87       	std	Z+9, r24	; 0x09
    113c:	ff 91       	pop	r31
    113e:	ef 91       	pop	r30
    1140:	8f 91       	pop	r24
    1142:	0f 90       	pop	r0
    1144:	0f be       	out	0x3f, r0	; 63
    1146:	0f 90       	pop	r0
    1148:	1f 90       	pop	r1
    114a:	18 95       	reti

0000114c <__vector_6>:
ISR(RTC_CNT_vect) { rtcInterrupt = true; RTC.INTFLAGS = RTC_OVF_bm; } // for standby sleep
    114c:	1f 92       	push	r1
    114e:	0f 92       	push	r0
    1150:	0f b6       	in	r0, 0x3f	; 63
    1152:	0f 92       	push	r0
    1154:	11 24       	eor	r1, r1
    1156:	8f 93       	push	r24
    1158:	81 e0       	ldi	r24, 0x01	; 1
    115a:	80 93 06 38 	sts	0x3806, r24	; 0x803806 <rtcInterrupt>
    115e:	80 93 43 01 	sts	0x0143, r24	; 0x800143 <__RODATA_PM_OFFSET__+0x7f8143>
    1162:	8f 91       	pop	r24
    1164:	0f 90       	pop	r0
    1166:	0f be       	out	0x3f, r0	; 63
    1168:	0f 90       	pop	r0
    116a:	1f 90       	pop	r1
    116c:	18 95       	reti

0000116e <__vector_8>:
ISR(TCA0_OVF_vect) { device.incrementTimer(); TCA0.SINGLE.INTFLAGS = TCA_SINGLE_OVF_bm; }  // Clear the interrupt flag (to reset TCA0.CNT)
    116e:	1f 92       	push	r1
    1170:	0f 92       	push	r0
    1172:	0f b6       	in	r0, 0x3f	; 63
    1174:	0f 92       	push	r0
    1176:	11 24       	eor	r1, r1
    1178:	2f 93       	push	r18
    117a:	3f 93       	push	r19
    117c:	4f 93       	push	r20
    117e:	5f 93       	push	r21
    1180:	6f 93       	push	r22
    1182:	7f 93       	push	r23
    1184:	8f 93       	push	r24
    1186:	9f 93       	push	r25
    1188:	af 93       	push	r26
    118a:	bf 93       	push	r27
    118c:	ef 93       	push	r30
    118e:	ff 93       	push	r31
    1190:	8d e0       	ldi	r24, 0x0D	; 13
    1192:	98 e3       	ldi	r25, 0x38	; 56
    1194:	0e 94 74 00 	call	0xe8	; 0xe8 <_ZN7TickTag14incrementTimerEv>
    1198:	81 e0       	ldi	r24, 0x01	; 1
    119a:	80 93 0b 0a 	sts	0x0A0B, r24	; 0x800a0b <__RODATA_PM_OFFSET__+0x7f8a0b>
    119e:	ff 91       	pop	r31
    11a0:	ef 91       	pop	r30
    11a2:	bf 91       	pop	r27
    11a4:	af 91       	pop	r26
    11a6:	9f 91       	pop	r25
    11a8:	8f 91       	pop	r24
    11aa:	7f 91       	pop	r23
    11ac:	6f 91       	pop	r22
    11ae:	5f 91       	pop	r21
    11b0:	4f 91       	pop	r20
    11b2:	3f 91       	pop	r19
    11b4:	2f 91       	pop	r18
    11b6:	0f 90       	pop	r0
    11b8:	0f be       	out	0x3f, r0	; 63
    11ba:	0f 90       	pop	r0
    11bc:	1f 90       	pop	r1
    11be:	18 95       	reti

000011c0 <_Z13arrayToUint32Ph>:
#define STORE_MEMORY_RETURN_ERROR				0
#define STORE_MEMORY_RETURN_MEMORY_FULL			1
#define STORE_MEMORY_RETURN_SUCCESS				2


uint32_t arrayToUint32(uint8_t *buffer) {
    11c0:	fc 01       	movw	r30, r24
	uint32_t result;
	result = (((uint32_t) buffer[0]) << 24) | (((uint32_t) buffer[1]) << 16) | (((uint32_t) buffer[2]) << 8) | (((uint32_t) buffer[3]));
	return result;
    11c2:	20 81       	ld	r18, Z
    11c4:	61 81       	ldd	r22, Z+1	; 0x01
    11c6:	86 2f       	mov	r24, r22
    11c8:	90 e0       	ldi	r25, 0x00	; 0
    11ca:	a0 e0       	ldi	r26, 0x00	; 0
    11cc:	b0 e0       	ldi	r27, 0x00	; 0
    11ce:	dc 01       	movw	r26, r24
    11d0:	99 27       	eor	r25, r25
    11d2:	88 27       	eor	r24, r24
    11d4:	b2 2b       	or	r27, r18
    11d6:	23 81       	ldd	r18, Z+3	; 0x03
    11d8:	82 2b       	or	r24, r18
    11da:	22 81       	ldd	r18, Z+2	; 0x02
    11dc:	bc 01       	movw	r22, r24
    11de:	cd 01       	movw	r24, r26
    11e0:	72 2b       	or	r23, r18
}
    11e2:	08 95       	ret

000011e4 <_Z10readMemoryv>:


bool readMemory() {
    11e4:	2f 92       	push	r2
    11e6:	3f 92       	push	r3
    11e8:	4f 92       	push	r4
    11ea:	5f 92       	push	r5
    11ec:	6f 92       	push	r6
    11ee:	7f 92       	push	r7
    11f0:	8f 92       	push	r8
    11f2:	9f 92       	push	r9
    11f4:	af 92       	push	r10
    11f6:	bf 92       	push	r11
    11f8:	cf 92       	push	r12
    11fa:	df 92       	push	r13
    11fc:	ef 92       	push	r14
    11fe:	ff 92       	push	r15
    1200:	0f 93       	push	r16
    1202:	1f 93       	push	r17
    1204:	cf 93       	push	r28
    1206:	df 93       	push	r29
    1208:	cd b7       	in	r28, 0x3d	; 61
    120a:	de b7       	in	r29, 0x3e	; 62
    120c:	63 97       	sbiw	r28, 0x13	; 19
    120e:	cd bf       	out	0x3d, r28	; 61
    1210:	de bf       	out	0x3e, r29	; 62
	uint8_t buffer[DATA_FIX_LENGTH] = { 0 };
    1212:	9e 01       	movw	r18, r28
    1214:	2f 5f       	subi	r18, 0xFF	; 255
    1216:	3f 4f       	sbci	r19, 0xFF	; 255
    1218:	8c e0       	ldi	r24, 0x0C	; 12
    121a:	d9 01       	movw	r26, r18
    121c:	1d 92       	st	X+, r1
    121e:	8a 95       	dec	r24
    1220:	e9 f7       	brne	.-6      	; 0x121c <_Z10readMemoryv+0x38>
	uint32_t cnt, addressPointer, addressIterator, timestamp, lat, lon;
	
	// read address pointer
	if(!eeprom.readMemory(0, buffer, 4)) { return false; } // read current memory position
    1222:	14 e0       	ldi	r17, 0x04	; 4
    1224:	e1 2e       	mov	r14, r17
    1226:	f1 2c       	mov	r15, r1
    1228:	00 e0       	ldi	r16, 0x00	; 0
    122a:	10 e0       	ldi	r17, 0x00	; 0
    122c:	40 e0       	ldi	r20, 0x00	; 0
    122e:	50 e0       	ldi	r21, 0x00	; 0
    1230:	ba 01       	movw	r22, r20
    1232:	8c e0       	ldi	r24, 0x0C	; 12
    1234:	98 e3       	ldi	r25, 0x38	; 56
    1236:	0e 94 4c 01 	call	0x298	; 0x298 <_ZN15EEPROM_CAT24M0110readMemoryEmPhm>
    123a:	18 2f       	mov	r17, r24
    123c:	88 23       	and	r24, r24
    123e:	09 f4       	brne	.+2      	; 0x1242 <_Z10readMemoryv+0x5e>
    1240:	79 c0       	rjmp	.+242    	; 0x1334 <_Z10readMemoryv+0x150>
	addressPointer = arrayToUint32(buffer);
    1242:	ce 01       	movw	r24, r28
    1244:	01 96       	adiw	r24, 0x01	; 1
    1246:	0e 94 e0 08 	call	0x11c0	; 0x11c0 <_Z13arrayToUint32Ph>
    124a:	68 8b       	std	Y+16, r22	; 0x10
    124c:	79 8b       	std	Y+17, r23	; 0x11
    124e:	8a 8b       	std	Y+18, r24	; 0x12
    1250:	9b 8b       	std	Y+19, r25	; 0x13
	if((addressPointer == 0xFFFFFFFF) || (addressPointer > EEPROM_CAT24M01_MEM_SIZE)) { // assuming memory is empty or other issue
    1252:	61 30       	cpi	r22, 0x01	; 1
    1254:	71 05       	cpc	r23, r1
    1256:	82 40       	sbci	r24, 0x02	; 2
    1258:	91 05       	cpc	r25, r1
    125a:	08 f0       	brcs	.+2      	; 0x125e <_Z10readMemoryv+0x7a>
    125c:	6a c0       	rjmp	.+212    	; 0x1332 <_Z10readMemoryv+0x14e>
	}
	
	// read data over uart until address pointer
	addressIterator = DATA_PREFIX_LENGTH_IN_MEMORY; // start reading data at first data address
	cnt = 1;
	printf("count,timestamp,lat,lon\n\r");
    125e:	85 eb       	ldi	r24, 0xB5	; 181
    1260:	93 ea       	ldi	r25, 0xA3	; 163
    1262:	9f 93       	push	r25
    1264:	8f 93       	push	r24
    1266:	0e 94 bb 0e 	call	0x1d76	; 0x1d76 <printf>
    126a:	0f 90       	pop	r0
    126c:	0f 90       	pop	r0
	if((addressPointer == 0xFFFFFFFF) || (addressPointer > EEPROM_CAT24M01_MEM_SIZE)) { // assuming memory is empty or other issue
		return false;
	}
	
	// read data over uart until address pointer
	addressIterator = DATA_PREFIX_LENGTH_IN_MEMORY; // start reading data at first data address
    126e:	81 2c       	mov	r8, r1
    1270:	91 2c       	mov	r9, r1
    1272:	54 01       	movw	r10, r8
    1274:	68 94       	set
    1276:	84 f8       	bld	r8, 4
	cnt = 1;
    1278:	41 2c       	mov	r4, r1
    127a:	51 2c       	mov	r5, r1
    127c:	32 01       	movw	r6, r4
    127e:	43 94       	inc	r4
	while(1) {
		if(!eeprom.readMemory(addressIterator, buffer, DATA_FIX_LENGTH)) { return false; } // read one dataset in memory
		timestamp = arrayToUint32(&buffer[0]);
		lat = arrayToUint32(&buffer[4]);
		lon = arrayToUint32(&buffer[8]);
		printf("%lu,%lu,%lu,%lu\n\r", cnt, timestamp, lat, lon);
    1280:	0f 2e       	mov	r0, r31
    1282:	ff ec       	ldi	r31, 0xCF	; 207
    1284:	2f 2e       	mov	r2, r31
    1286:	f3 ea       	ldi	r31, 0xA3	; 163
    1288:	3f 2e       	mov	r3, r31
    128a:	f0 2d       	mov	r31, r0
	// read data over uart until address pointer
	addressIterator = DATA_PREFIX_LENGTH_IN_MEMORY; // start reading data at first data address
	cnt = 1;
	printf("count,timestamp,lat,lon\n\r");
	while(1) {
		if(!eeprom.readMemory(addressIterator, buffer, DATA_FIX_LENGTH)) { return false; } // read one dataset in memory
    128c:	1c e0       	ldi	r17, 0x0C	; 12
    128e:	e1 2e       	mov	r14, r17
    1290:	f1 2c       	mov	r15, r1
    1292:	00 e0       	ldi	r16, 0x00	; 0
    1294:	10 e0       	ldi	r17, 0x00	; 0
    1296:	9e 01       	movw	r18, r28
    1298:	2f 5f       	subi	r18, 0xFF	; 255
    129a:	3f 4f       	sbci	r19, 0xFF	; 255
    129c:	b5 01       	movw	r22, r10
    129e:	a4 01       	movw	r20, r8
    12a0:	8c e0       	ldi	r24, 0x0C	; 12
    12a2:	98 e3       	ldi	r25, 0x38	; 56
    12a4:	0e 94 4c 01 	call	0x298	; 0x298 <_ZN15EEPROM_CAT24M0110readMemoryEmPhm>
    12a8:	18 2f       	mov	r17, r24
    12aa:	88 23       	and	r24, r24
    12ac:	09 f4       	brne	.+2      	; 0x12b0 <_Z10readMemoryv+0xcc>
    12ae:	42 c0       	rjmp	.+132    	; 0x1334 <_Z10readMemoryv+0x150>
		timestamp = arrayToUint32(&buffer[0]);
    12b0:	ce 01       	movw	r24, r28
    12b2:	01 96       	adiw	r24, 0x01	; 1
    12b4:	0e 94 e0 08 	call	0x11c0	; 0x11c0 <_Z13arrayToUint32Ph>
    12b8:	06 2f       	mov	r16, r22
    12ba:	f7 2e       	mov	r15, r23
    12bc:	e8 2e       	mov	r14, r24
    12be:	d9 2e       	mov	r13, r25
		lat = arrayToUint32(&buffer[4]);
    12c0:	ce 01       	movw	r24, r28
    12c2:	05 96       	adiw	r24, 0x05	; 5
    12c4:	0e 94 e0 08 	call	0x11c0	; 0x11c0 <_Z13arrayToUint32Ph>
    12c8:	c6 2e       	mov	r12, r22
    12ca:	7d 87       	std	Y+13, r23	; 0x0d
    12cc:	8e 87       	std	Y+14, r24	; 0x0e
    12ce:	9f 87       	std	Y+15, r25	; 0x0f
		lon = arrayToUint32(&buffer[8]);
    12d0:	ce 01       	movw	r24, r28
    12d2:	09 96       	adiw	r24, 0x09	; 9
    12d4:	0e 94 e0 08 	call	0x11c0	; 0x11c0 <_Z13arrayToUint32Ph>
		printf("%lu,%lu,%lu,%lu\n\r", cnt, timestamp, lat, lon);
    12d8:	9f 93       	push	r25
    12da:	8f 93       	push	r24
    12dc:	7f 93       	push	r23
    12de:	6f 93       	push	r22
    12e0:	ef 85       	ldd	r30, Y+15	; 0x0f
    12e2:	ef 93       	push	r30
    12e4:	fe 85       	ldd	r31, Y+14	; 0x0e
    12e6:	ff 93       	push	r31
    12e8:	2d 85       	ldd	r18, Y+13	; 0x0d
    12ea:	2f 93       	push	r18
    12ec:	cf 92       	push	r12
    12ee:	df 92       	push	r13
    12f0:	ef 92       	push	r14
    12f2:	ff 92       	push	r15
    12f4:	0f 93       	push	r16
    12f6:	7f 92       	push	r7
    12f8:	6f 92       	push	r6
    12fa:	5f 92       	push	r5
    12fc:	4f 92       	push	r4
    12fe:	3f 92       	push	r3
    1300:	2f 92       	push	r2
    1302:	0e 94 bb 0e 	call	0x1d76	; 0x1d76 <printf>
		
		addressIterator += DATA_FIX_LENGTH;
    1306:	8c e0       	ldi	r24, 0x0C	; 12
    1308:	88 0e       	add	r8, r24
    130a:	91 1c       	adc	r9, r1
    130c:	a1 1c       	adc	r10, r1
    130e:	b1 1c       	adc	r11, r1
		if(addressIterator >= addressPointer) { break; }
    1310:	cd bf       	out	0x3d, r28	; 61
    1312:	de bf       	out	0x3e, r29	; 62
    1314:	88 89       	ldd	r24, Y+16	; 0x10
    1316:	99 89       	ldd	r25, Y+17	; 0x11
    1318:	aa 89       	ldd	r26, Y+18	; 0x12
    131a:	bb 89       	ldd	r27, Y+19	; 0x13
    131c:	88 16       	cp	r8, r24
    131e:	99 06       	cpc	r9, r25
    1320:	aa 06       	cpc	r10, r26
    1322:	bb 06       	cpc	r11, r27
    1324:	38 f4       	brcc	.+14     	; 0x1334 <_Z10readMemoryv+0x150>
		cnt++;
    1326:	9f ef       	ldi	r25, 0xFF	; 255
    1328:	49 1a       	sub	r4, r25
    132a:	59 0a       	sbc	r5, r25
    132c:	69 0a       	sbc	r6, r25
    132e:	79 0a       	sbc	r7, r25
	
	// read data over uart until address pointer
	addressIterator = DATA_PREFIX_LENGTH_IN_MEMORY; // start reading data at first data address
	cnt = 1;
	printf("count,timestamp,lat,lon\n\r");
	while(1) {
    1330:	ad cf       	rjmp	.-166    	; 0x128c <_Z10readMemoryv+0xa8>
	
	// read address pointer
	if(!eeprom.readMemory(0, buffer, 4)) { return false; } // read current memory position
	addressPointer = arrayToUint32(buffer);
	if((addressPointer == 0xFFFFFFFF) || (addressPointer > EEPROM_CAT24M01_MEM_SIZE)) { // assuming memory is empty or other issue
		return false;
    1332:	10 e0       	ldi	r17, 0x00	; 0
		addressIterator += DATA_FIX_LENGTH;
		if(addressIterator >= addressPointer) { break; }
		cnt++;
	}
	return true;
}
    1334:	81 2f       	mov	r24, r17
    1336:	63 96       	adiw	r28, 0x13	; 19
    1338:	cd bf       	out	0x3d, r28	; 61
    133a:	de bf       	out	0x3e, r29	; 62
    133c:	df 91       	pop	r29
    133e:	cf 91       	pop	r28
    1340:	1f 91       	pop	r17
    1342:	0f 91       	pop	r16
    1344:	ff 90       	pop	r15
    1346:	ef 90       	pop	r14
    1348:	df 90       	pop	r13
    134a:	cf 90       	pop	r12
    134c:	bf 90       	pop	r11
    134e:	af 90       	pop	r10
    1350:	9f 90       	pop	r9
    1352:	8f 90       	pop	r8
    1354:	7f 90       	pop	r7
    1356:	6f 90       	pop	r6
    1358:	5f 90       	pop	r5
    135a:	4f 90       	pop	r4
    135c:	3f 90       	pop	r3
    135e:	2f 90       	pop	r2
    1360:	08 95       	ret

00001362 <_Z5blinkh>:

void blink(uint8_t times) {
    1362:	cf 93       	push	r28
    1364:	c8 2f       	mov	r28, r24
	while(times > 0) {
    1366:	88 23       	and	r24, r24
    1368:	c1 f0       	breq	.+48     	; 0x139a <_Z5blinkh+0x38>
		device.ledOn();
    136a:	8d e0       	ldi	r24, 0x0D	; 13
    136c:	98 e3       	ldi	r25, 0x38	; 56
    136e:	0e 94 3c 01 	call	0x278	; 0x278 <_ZN7TickTag5ledOnEv>
	#else
		//round up by default
		__ticks_dc = (uint32_t)(ceil(fabs(__tmp)));
	#endif

	__builtin_avr_delay_cycles(__ticks_dc);
    1372:	87 ea       	ldi	r24, 0xA7	; 167
    1374:	91 e6       	ldi	r25, 0x61	; 97
    1376:	01 97       	sbiw	r24, 0x01	; 1
    1378:	f1 f7       	brne	.-4      	; 0x1376 <_Z5blinkh+0x14>
    137a:	00 c0       	rjmp	.+0      	; 0x137c <_Z5blinkh+0x1a>
    137c:	00 00       	nop
		_delay_ms(100);
		device.ledOff();
    137e:	8d e0       	ldi	r24, 0x0D	; 13
    1380:	98 e3       	ldi	r25, 0x38	; 56
    1382:	0e 94 44 01 	call	0x288	; 0x288 <_ZN7TickTag6ledOffEv>
		if(times != 1) { _delay_ms(100); }
    1386:	c1 30       	cpi	r28, 0x01	; 1
    1388:	41 f0       	breq	.+16     	; 0x139a <_Z5blinkh+0x38>
    138a:	87 ea       	ldi	r24, 0xA7	; 167
    138c:	91 e6       	ldi	r25, 0x61	; 97
    138e:	01 97       	sbiw	r24, 0x01	; 1
    1390:	f1 f7       	brne	.-4      	; 0x138e <_Z5blinkh+0x2c>
    1392:	00 c0       	rjmp	.+0      	; 0x1394 <_Z5blinkh+0x32>
    1394:	00 00       	nop
		times--;
    1396:	c1 50       	subi	r28, 0x01	; 1
	}
	return true;
}

void blink(uint8_t times) {
	while(times > 0) {
    1398:	41 f7       	brne	.-48     	; 0x136a <_Z5blinkh+0x8>
		_delay_ms(100);
		device.ledOff();
		if(times != 1) { _delay_ms(100); }
		times--;
	}
}
    139a:	cf 91       	pop	r28
    139c:	08 95       	ret

0000139e <_Z9showMenuev>:

void showMenue() {
    139e:	0f 93       	push	r16
    13a0:	1f 93       	push	r17
    13a2:	cf 93       	push	r28
    13a4:	df 93       	push	r29
    13a6:	cd b7       	in	r28, 0x3d	; 61
    13a8:	de b7       	in	r29, 0x3e	; 62
    13aa:	a0 97       	sbiw	r28, 0x20	; 32
    13ac:	cd bf       	out	0x3d, r28	; 61
    13ae:	de bf       	out	0x3e, r29	; 62
    13b0:	87 ea       	ldi	r24, 0xA7	; 167
    13b2:	91 e6       	ldi	r25, 0x61	; 97
    13b4:	01 97       	sbiw	r24, 0x01	; 1
    13b6:	f1 f7       	brne	.-4      	; 0x13b4 <_Z9showMenuev+0x16>
    13b8:	00 c0       	rjmp	.+0      	; 0x13ba <_Z9showMenuev+0x1c>
    13ba:	00 00       	nop
	const uint8_t LEN = 32;
	char command[LEN];
	_delay_ms(100);
	printf("-------------------\n\r");
    13bc:	01 ee       	ldi	r16, 0xE1	; 225
    13be:	13 ea       	ldi	r17, 0xA3	; 163
    13c0:	1f 93       	push	r17
    13c2:	0f 93       	push	r16
    13c4:	0e 94 bb 0e 	call	0x1d76	; 0x1d76 <printf>
	printf("---TICK-TAG-V0.1---\n\r");
    13c8:	87 ef       	ldi	r24, 0xF7	; 247
    13ca:	93 ea       	ldi	r25, 0xA3	; 163
    13cc:	9f 93       	push	r25
    13ce:	8f 93       	push	r24
    13d0:	0e 94 bb 0e 	call	0x1d76	; 0x1d76 <printf>
	printf("-------------------\n\r");
    13d4:	1f 93       	push	r17
    13d6:	0f 93       	push	r16
    13d8:	0e 94 bb 0e 	call	0x1d76	; 0x1d76 <printf>
	printf("(0) Read memory\n\r");
    13dc:	8d e0       	ldi	r24, 0x0D	; 13
    13de:	94 ea       	ldi	r25, 0xA4	; 164
    13e0:	9f 93       	push	r25
    13e2:	8f 93       	push	r24
    13e4:	0e 94 bb 0e 	call	0x1d76	; 0x1d76 <printf>
	printf("(1) Reset memory\n\r");
    13e8:	8f e1       	ldi	r24, 0x1F	; 31
    13ea:	94 ea       	ldi	r25, 0xA4	; 164
    13ec:	9f 93       	push	r25
    13ee:	8f 93       	push	r24
    13f0:	0e 94 bb 0e 	call	0x1d76	; 0x1d76 <printf>
	printf("(2) Set minimum voltage\n\r");
    13f4:	82 e3       	ldi	r24, 0x32	; 50
    13f6:	94 ea       	ldi	r25, 0xA4	; 164
    13f8:	9f 93       	push	r25
    13fa:	8f 93       	push	r24
    13fc:	0e 94 bb 0e 	call	0x1d76	; 0x1d76 <printf>
	printf("(3) Set frequency\n\r");
    1400:	8c e4       	ldi	r24, 0x4C	; 76
    1402:	94 ea       	ldi	r25, 0xA4	; 164
    1404:	9f 93       	push	r25
    1406:	8f 93       	push	r24
    1408:	0e 94 bb 0e 	call	0x1d76	; 0x1d76 <printf>
	
	if(!readMemory()) { printf("Memory empty\n\r"); }
    140c:	0e 94 f2 08 	call	0x11e4	; 0x11e4 <_Z10readMemoryv>
    1410:	cd bf       	out	0x3d, r28	; 61
    1412:	de bf       	out	0x3e, r29	; 62
    1414:	81 11       	cpse	r24, r1
    1416:	08 c0       	rjmp	.+16     	; 0x1428 <_Z9showMenuev+0x8a>
    1418:	80 e6       	ldi	r24, 0x60	; 96
    141a:	94 ea       	ldi	r25, 0xA4	; 164
    141c:	9f 93       	push	r25
    141e:	8f 93       	push	r24
    1420:	0e 94 bb 0e 	call	0x1d76	; 0x1d76 <printf>
    1424:	0f 90       	pop	r0
    1426:	0f 90       	pop	r0
	
	if(!uartRead('\r', command, LEN, 10000)) { printf("Timeout\n\r"); return; }
    1428:	20 e1       	ldi	r18, 0x10	; 16
    142a:	37 e2       	ldi	r19, 0x27	; 39
    142c:	40 e2       	ldi	r20, 0x20	; 32
    142e:	be 01       	movw	r22, r28
    1430:	6f 5f       	subi	r22, 0xFF	; 255
    1432:	7f 4f       	sbci	r23, 0xFF	; 255
    1434:	8d e0       	ldi	r24, 0x0D	; 13
    1436:	0e 94 ba 0d 	call	0x1b74	; 0x1b74 <_Z8uartReadcPchj>
    143a:	81 11       	cpse	r24, r1
    143c:	09 c0       	rjmp	.+18     	; 0x1450 <_Z9showMenuev+0xb2>
    143e:	8f e6       	ldi	r24, 0x6F	; 111
    1440:	94 ea       	ldi	r25, 0xA4	; 164
    1442:	9f 93       	push	r25
    1444:	8f 93       	push	r24
    1446:	0e 94 bb 0e 	call	0x1d76	; 0x1d76 <printf>
    144a:	0f 90       	pop	r0
    144c:	0f 90       	pop	r0
    144e:	69 c0       	rjmp	.+210    	; 0x1522 <_Z9showMenuev+0x184>
	if(command[0] == '0') {
    1450:	89 81       	ldd	r24, Y+1	; 0x01
    1452:	80 33       	cpi	r24, 0x30	; 48
    1454:	49 f4       	brne	.+18     	; 0x1468 <_Z9showMenuev+0xca>
		printf("Memory:\n\r");
    1456:	89 e7       	ldi	r24, 0x79	; 121
    1458:	94 ea       	ldi	r25, 0xA4	; 164
    145a:	9f 93       	push	r25
    145c:	8f 93       	push	r24
    145e:	0e 94 bb 0e 	call	0x1d76	; 0x1d76 <printf>
    1462:	0f 90       	pop	r0
    1464:	0f 90       	pop	r0
    1466:	55 c0       	rjmp	.+170    	; 0x1512 <_Z9showMenuev+0x174>
	}
	else if(command[0] == '1') {
    1468:	81 33       	cpi	r24, 0x31	; 49
    146a:	49 f4       	brne	.+18     	; 0x147e <_Z9showMenuev+0xe0>
		// TODO: "DELETE" FIRST 4 MEMORY BYTES IN EEPROM
		printf("Resetting:\n\r");
    146c:	83 e8       	ldi	r24, 0x83	; 131
    146e:	94 ea       	ldi	r25, 0xA4	; 164
    1470:	9f 93       	push	r25
    1472:	8f 93       	push	r24
    1474:	0e 94 bb 0e 	call	0x1d76	; 0x1d76 <printf>
    1478:	0f 90       	pop	r0
    147a:	0f 90       	pop	r0
    147c:	4a c0       	rjmp	.+148    	; 0x1512 <_Z9showMenuev+0x174>
	}
	else if(command[0] == '2') {
    147e:	82 33       	cpi	r24, 0x32	; 50
    1480:	09 f0       	breq	.+2      	; 0x1484 <_Z9showMenuev+0xe6>
    1482:	3f c0       	rjmp	.+126    	; 0x1502 <_Z9showMenuev+0x164>
		printf("-------------------\n\r");
    1484:	01 ee       	ldi	r16, 0xE1	; 225
    1486:	13 ea       	ldi	r17, 0xA3	; 163
    1488:	1f 93       	push	r17
    148a:	0f 93       	push	r16
    148c:	0e 94 bb 0e 	call	0x1d76	; 0x1d76 <printf>
		printf("Enter mV (3000 - 4300):\n\r");
    1490:	80 e9       	ldi	r24, 0x90	; 144
    1492:	94 ea       	ldi	r25, 0xA4	; 164
    1494:	9f 93       	push	r25
    1496:	8f 93       	push	r24
    1498:	0e 94 bb 0e 	call	0x1d76	; 0x1d76 <printf>
		printf("-------------------\n\r");
    149c:	1f 93       	push	r17
    149e:	0f 93       	push	r16
    14a0:	0e 94 bb 0e 	call	0x1d76	; 0x1d76 <printf>
		if(!uartRead('\r', command, LEN, 60000)) { printf("Timeout\n\r"); return; }
    14a4:	20 e6       	ldi	r18, 0x60	; 96
    14a6:	3a ee       	ldi	r19, 0xEA	; 234
    14a8:	40 e2       	ldi	r20, 0x20	; 32
    14aa:	be 01       	movw	r22, r28
    14ac:	6f 5f       	subi	r22, 0xFF	; 255
    14ae:	7f 4f       	sbci	r23, 0xFF	; 255
    14b0:	8d e0       	ldi	r24, 0x0D	; 13
    14b2:	0e 94 ba 0d 	call	0x1b74	; 0x1b74 <_Z8uartReadcPchj>
    14b6:	0f 90       	pop	r0
    14b8:	0f 90       	pop	r0
    14ba:	0f 90       	pop	r0
    14bc:	0f 90       	pop	r0
    14be:	0f 90       	pop	r0
    14c0:	0f 90       	pop	r0
    14c2:	81 11       	cpse	r24, r1
    14c4:	09 c0       	rjmp	.+18     	; 0x14d8 <_Z9showMenuev+0x13a>
    14c6:	8f e6       	ldi	r24, 0x6F	; 111
    14c8:	94 ea       	ldi	r25, 0xA4	; 164
    14ca:	9f 93       	push	r25
    14cc:	8f 93       	push	r24
    14ce:	0e 94 bb 0e 	call	0x1d76	; 0x1d76 <printf>
    14d2:	0f 90       	pop	r0
    14d4:	0f 90       	pop	r0
    14d6:	25 c0       	rjmp	.+74     	; 0x1522 <_Z9showMenuev+0x184>
		int32_t minVoltage = atol(command);
    14d8:	ce 01       	movw	r24, r28
    14da:	01 96       	adiw	r24, 0x01	; 1
    14dc:	0e 94 78 0e 	call	0x1cf0	; 0x1cf0 <atol>
		//for(uint8_t i=0; i<LEN; i++) { uint8_t t = command[i]; printf("%02X ", t); }
		printf("SET TO %ld\n\r", minVoltage);
    14e0:	9f 93       	push	r25
    14e2:	8f 93       	push	r24
    14e4:	7f 93       	push	r23
    14e6:	6f 93       	push	r22
    14e8:	8a ea       	ldi	r24, 0xAA	; 170
    14ea:	94 ea       	ldi	r25, 0xA4	; 164
    14ec:	9f 93       	push	r25
    14ee:	8f 93       	push	r24
    14f0:	0e 94 bb 0e 	call	0x1d76	; 0x1d76 <printf>
    14f4:	0f 90       	pop	r0
    14f6:	0f 90       	pop	r0
    14f8:	0f 90       	pop	r0
    14fa:	0f 90       	pop	r0
    14fc:	0f 90       	pop	r0
    14fe:	0f 90       	pop	r0
    1500:	08 c0       	rjmp	.+16     	; 0x1512 <_Z9showMenuev+0x174>
		
		// TODO: write to EEPROM
	}
	else {
		printf("Unknown command!\n\r");
    1502:	87 eb       	ldi	r24, 0xB7	; 183
    1504:	94 ea       	ldi	r25, 0xA4	; 164
    1506:	9f 93       	push	r25
    1508:	8f 93       	push	r24
    150a:	0e 94 bb 0e 	call	0x1d76	; 0x1d76 <printf>
    150e:	0f 90       	pop	r0
    1510:	0f 90       	pop	r0
	}
	printf("GOOD NIGHT!\n\r");
    1512:	8a ec       	ldi	r24, 0xCA	; 202
    1514:	94 ea       	ldi	r25, 0xA4	; 164
    1516:	9f 93       	push	r25
    1518:	8f 93       	push	r24
    151a:	0e 94 bb 0e 	call	0x1d76	; 0x1d76 <printf>
    151e:	0f 90       	pop	r0
    1520:	0f 90       	pop	r0
}
    1522:	a0 96       	adiw	r28, 0x20	; 32
    1524:	cd bf       	out	0x3d, r28	; 61
    1526:	de bf       	out	0x3e, r29	; 62
    1528:	df 91       	pop	r29
    152a:	cf 91       	pop	r28
    152c:	1f 91       	pop	r17
    152e:	0f 91       	pop	r16
    1530:	08 95       	ret

00001532 <_Z4waitj>:

void wait(uint16_t seconds) {
	device.initInternalRTCInterrupt(seconds);
    1532:	bc 01       	movw	r22, r24
    1534:	8d e0       	ldi	r24, 0x0D	; 13
    1536:	98 e3       	ldi	r25, 0x38	; 56
    1538:	0e 94 f1 00 	call	0x1e2	; 0x1e2 <_ZN7TickTag24initInternalRTCInterruptEj>
	device.standbySleep();
    153c:	8d e0       	ldi	r24, 0x0D	; 13
    153e:	98 e3       	ldi	r25, 0x38	; 56
    1540:	0e 94 e0 00 	call	0x1c0	; 0x1c0 <_ZN7TickTag12standbySleepEv>
	RTC.CTRLA = 0; // disable RTC interrupt
    1544:	10 92 40 01 	sts	0x0140, r1	; 0x800140 <__RODATA_PM_OFFSET__+0x7f8140>
    1548:	08 95       	ret

0000154a <_Z14voltageNotOkayv>:
}



bool voltageNotOkay() {
	return (batteryVoltage < VOLTAGE_MIN) || (batteryVoltage > VOLTAGE_MAX);
    154a:	20 91 08 38 	lds	r18, 0x3808	; 0x803808 <batteryVoltage>
    154e:	30 91 09 38 	lds	r19, 0x3809	; 0x803809 <batteryVoltage+0x1>
    1552:	28 5b       	subi	r18, 0xB8	; 184
    1554:	3b 40       	sbci	r19, 0x0B	; 11
    1556:	81 e0       	ldi	r24, 0x01	; 1
    1558:	23 3e       	cpi	r18, 0xE3	; 227
    155a:	34 40       	sbci	r19, 0x04	; 4
    155c:	08 f4       	brcc	.+2      	; 0x1560 <_Z14voltageNotOkayv+0x16>
    155e:	80 e0       	ldi	r24, 0x00	; 0
}
    1560:	08 95       	ret

00001562 <_Z13storeInMemoryP5gps_t>:



uint8_t storeInMemory(gps_t *gpsData) {
    1562:	4f 92       	push	r4
    1564:	5f 92       	push	r5
    1566:	6f 92       	push	r6
    1568:	7f 92       	push	r7
    156a:	8f 92       	push	r8
    156c:	9f 92       	push	r9
    156e:	af 92       	push	r10
    1570:	bf 92       	push	r11
    1572:	cf 92       	push	r12
    1574:	df 92       	push	r13
    1576:	ef 92       	push	r14
    1578:	ff 92       	push	r15
    157a:	0f 93       	push	r16
    157c:	1f 93       	push	r17
    157e:	cf 93       	push	r28
    1580:	df 93       	push	r29
    1582:	cd b7       	in	r28, 0x3d	; 61
    1584:	de b7       	in	r29, 0x3e	; 62
    1586:	64 97       	sbiw	r28, 0x14	; 20
    1588:	cd bf       	out	0x3d, r28	; 61
    158a:	de bf       	out	0x3e, r29	; 62
    158c:	6c 01       	movw	r12, r24
	const uint16_t BUFFER_LEN = 16;
	uint8_t buffer[BUFFER_LEN] = { 0 };
    158e:	ce 01       	movw	r24, r28
    1590:	01 96       	adiw	r24, 0x01	; 1
    1592:	5c 01       	movw	r10, r24
    1594:	80 e1       	ldi	r24, 0x10	; 16
    1596:	d5 01       	movw	r26, r10
    1598:	1d 92       	st	X+, r1
    159a:	8a 95       	dec	r24
    159c:	e9 f7       	brne	.-6      	; 0x1598 <_Z13storeInMemoryP5gps_t+0x36>
	uint32_t addressPointer, ttfSum;
	uint8_t j = 0;
	uint32_t timestamp;
	device.powerMemoryAndI2COn();
    159e:	8d e0       	ldi	r24, 0x0D	; 13
    15a0:	98 e3       	ldi	r25, 0x38	; 56
    15a2:	0e 94 d2 00 	call	0x1a4	; 0x1a4 <_ZN7TickTag19powerMemoryAndI2COnEv>
	i2cInit();
    15a6:	0e 94 f3 07 	call	0xfe6	; 0xfe6 <_Z7i2cInitv>

	// read address pointer
	if(!eeprom.readMemory(0, buffer, 4)) { device.powerMemoryAndI2COff(); return STORE_MEMORY_RETURN_ERROR; } // read current memory position
    15aa:	14 e0       	ldi	r17, 0x04	; 4
    15ac:	e1 2e       	mov	r14, r17
    15ae:	f1 2c       	mov	r15, r1
    15b0:	00 e0       	ldi	r16, 0x00	; 0
    15b2:	10 e0       	ldi	r17, 0x00	; 0
    15b4:	95 01       	movw	r18, r10
    15b6:	40 e0       	ldi	r20, 0x00	; 0
    15b8:	50 e0       	ldi	r21, 0x00	; 0
    15ba:	ba 01       	movw	r22, r20
    15bc:	8c e0       	ldi	r24, 0x0C	; 12
    15be:	98 e3       	ldi	r25, 0x38	; 56
    15c0:	0e 94 4c 01 	call	0x298	; 0x298 <_ZN15EEPROM_CAT24M0110readMemoryEmPhm>
    15c4:	81 11       	cpse	r24, r1
    15c6:	06 c0       	rjmp	.+12     	; 0x15d4 <_Z13storeInMemoryP5gps_t+0x72>
    15c8:	8d e0       	ldi	r24, 0x0D	; 13
    15ca:	98 e3       	ldi	r25, 0x38	; 56
    15cc:	0e 94 ca 00 	call	0x194	; 0x194 <_ZN7TickTag20powerMemoryAndI2COffEv>
    15d0:	80 e0       	ldi	r24, 0x00	; 0
    15d2:	00 c1       	rjmp	.+512    	; 0x17d4 <_Z13storeInMemoryP5gps_t+0x272>
	addressPointer = arrayToUint32(buffer);
    15d4:	ce 01       	movw	r24, r28
    15d6:	01 96       	adiw	r24, 0x01	; 1
    15d8:	0e 94 e0 08 	call	0x11c0	; 0x11c0 <_Z13arrayToUint32Ph>
    15dc:	4b 01       	movw	r8, r22
    15de:	5c 01       	movw	r10, r24
	if((addressPointer == 0xFFFFFFFF) || (addressPointer < DATA_PREFIX_LENGTH_IN_MEMORY) || (addressPointer > EEPROM_CAT24M01_MEM_SIZE)) { // first time ever writing stuff or error in memory
    15e0:	dc 01       	movw	r26, r24
    15e2:	cb 01       	movw	r24, r22
    15e4:	40 97       	sbiw	r24, 0x10	; 16
    15e6:	a1 09       	sbc	r26, r1
    15e8:	b1 09       	sbc	r27, r1
    15ea:	81 3f       	cpi	r24, 0xF1	; 241
    15ec:	9f 4f       	sbci	r25, 0xFF	; 255
    15ee:	a1 40       	sbci	r26, 0x01	; 1
    15f0:	b1 05       	cpc	r27, r1
    15f2:	28 f0       	brcs	.+10     	; 0x15fe <_Z13storeInMemoryP5gps_t+0x9c>
		addressPointer = DATA_PREFIX_LENGTH_IN_MEMORY;
    15f4:	81 2c       	mov	r8, r1
    15f6:	91 2c       	mov	r9, r1
    15f8:	54 01       	movw	r10, r8
    15fa:	68 94       	set
    15fc:	84 f8       	bld	r8, 4
	}
	
	// read ttf sum
	if(!eeprom.readMemory(4, buffer, 4)) { device.powerMemoryAndI2COff(); return STORE_MEMORY_RETURN_ERROR; } // read current memory position
    15fe:	14 e0       	ldi	r17, 0x04	; 4
    1600:	e1 2e       	mov	r14, r17
    1602:	f1 2c       	mov	r15, r1
    1604:	00 e0       	ldi	r16, 0x00	; 0
    1606:	10 e0       	ldi	r17, 0x00	; 0
    1608:	9e 01       	movw	r18, r28
    160a:	2f 5f       	subi	r18, 0xFF	; 255
    160c:	3f 4f       	sbci	r19, 0xFF	; 255
    160e:	44 e0       	ldi	r20, 0x04	; 4
    1610:	50 e0       	ldi	r21, 0x00	; 0
    1612:	60 e0       	ldi	r22, 0x00	; 0
    1614:	70 e0       	ldi	r23, 0x00	; 0
    1616:	8c e0       	ldi	r24, 0x0C	; 12
    1618:	98 e3       	ldi	r25, 0x38	; 56
    161a:	0e 94 4c 01 	call	0x298	; 0x298 <_ZN15EEPROM_CAT24M0110readMemoryEmPhm>
    161e:	81 11       	cpse	r24, r1
    1620:	06 c0       	rjmp	.+12     	; 0x162e <_Z13storeInMemoryP5gps_t+0xcc>
    1622:	8d e0       	ldi	r24, 0x0D	; 13
    1624:	98 e3       	ldi	r25, 0x38	; 56
    1626:	0e 94 ca 00 	call	0x194	; 0x194 <_ZN7TickTag20powerMemoryAndI2COffEv>
    162a:	80 e0       	ldi	r24, 0x00	; 0
    162c:	d3 c0       	rjmp	.+422    	; 0x17d4 <_Z13storeInMemoryP5gps_t+0x272>
	ttfSum = arrayToUint32(buffer);
    162e:	ce 01       	movw	r24, r28
    1630:	01 96       	adiw	r24, 0x01	; 1
    1632:	0e 94 e0 08 	call	0x11c0	; 0x11c0 <_Z13arrayToUint32Ph>
    1636:	2b 01       	movw	r4, r22
    1638:	3c 01       	movw	r6, r24
	if(ttfSum == 0xFFFFFFFF) { ttfSum = 0; } // first time ever writing stuff
    163a:	6f 3f       	cpi	r22, 0xFF	; 255
    163c:	7f 4f       	sbci	r23, 0xFF	; 255
    163e:	8f 4f       	sbci	r24, 0xFF	; 255
    1640:	9f 4f       	sbci	r25, 0xFF	; 255
    1642:	19 f4       	brne	.+6      	; 0x164a <_Z13storeInMemoryP5gps_t+0xe8>
    1644:	41 2c       	mov	r4, r1
    1646:	51 2c       	mov	r5, r1
    1648:	32 01       	movw	r6, r4

	#ifdef DEBUGGING
		printf("Old: AddressP: %lu, ttfSum: %lu\n\r", addressPointer, ttfSum);
    164a:	7f 92       	push	r7
    164c:	6f 92       	push	r6
    164e:	5f 92       	push	r5
    1650:	4f 92       	push	r4
    1652:	bf 92       	push	r11
    1654:	af 92       	push	r10
    1656:	9f 92       	push	r9
    1658:	8f 92       	push	r8
    165a:	88 ed       	ldi	r24, 0xD8	; 216
    165c:	94 ea       	ldi	r25, 0xA4	; 164
    165e:	9f 93       	push	r25
    1660:	8f 93       	push	r24
    1662:	0e 94 bb 0e 	call	0x1d76	; 0x1d76 <printf>
	#endif
	
	// fill data
	timestamp = gps.getUTCTimestamp(gpsData);
    1666:	b6 01       	movw	r22, r12
    1668:	8b e0       	ldi	r24, 0x0B	; 11
    166a:	98 e3       	ldi	r25, 0x38	; 56
    166c:	0e 94 62 03 	call	0x6c4	; 0x6c4 <_ZN13GPS_L70_Light15getUTCTimestampEP5gps_t>
	buffer[j++] = (timestamp >> 24); buffer[j++] = (timestamp >> 16); buffer[j++] = (timestamp >> 8); buffer[j++] = timestamp; // 4 bytes timestamp
    1670:	99 83       	std	Y+1, r25	; 0x01
    1672:	8a 83       	std	Y+2, r24	; 0x02
    1674:	7b 83       	std	Y+3, r23	; 0x03
    1676:	6c 83       	std	Y+4, r22	; 0x04
	buffer[j++] = (gpsData->latitude >> 24); buffer[j++] = (gpsData->latitude >> 16); buffer[j++] = (gpsData->latitude >> 8); buffer[j++] = gpsData->latitude; // 4 bytes lat
    1678:	d6 01       	movw	r26, r12
    167a:	16 96       	adiw	r26, 0x06	; 6
    167c:	8c 91       	ld	r24, X
    167e:	16 97       	sbiw	r26, 0x06	; 6
    1680:	17 96       	adiw	r26, 0x07	; 7
    1682:	9c 91       	ld	r25, X
    1684:	17 97       	sbiw	r26, 0x07	; 7
    1686:	18 96       	adiw	r26, 0x08	; 8
    1688:	2c 91       	ld	r18, X
    168a:	18 97       	sbiw	r26, 0x08	; 8
    168c:	19 96       	adiw	r26, 0x09	; 9
    168e:	3c 91       	ld	r19, X
    1690:	19 97       	sbiw	r26, 0x09	; 9
    1692:	3d 83       	std	Y+5, r19	; 0x05
    1694:	2e 83       	std	Y+6, r18	; 0x06
    1696:	9f 83       	std	Y+7, r25	; 0x07
    1698:	88 87       	std	Y+8, r24	; 0x08
	buffer[j++] = (gpsData->longitude >> 24); buffer[j++] = (gpsData->longitude >> 16); buffer[j++] = (gpsData->longitude >> 8); buffer[j++] = gpsData->longitude; // 4 bytes lon
    169a:	1a 96       	adiw	r26, 0x0a	; 10
    169c:	8c 91       	ld	r24, X
    169e:	1a 97       	sbiw	r26, 0x0a	; 10
    16a0:	1b 96       	adiw	r26, 0x0b	; 11
    16a2:	9c 91       	ld	r25, X
    16a4:	1b 97       	sbiw	r26, 0x0b	; 11
    16a6:	1c 96       	adiw	r26, 0x0c	; 12
    16a8:	2c 91       	ld	r18, X
    16aa:	1c 97       	sbiw	r26, 0x0c	; 12
    16ac:	1d 96       	adiw	r26, 0x0d	; 13
    16ae:	3c 91       	ld	r19, X
    16b0:	39 87       	std	Y+9, r19	; 0x09
    16b2:	2a 87       	std	Y+10, r18	; 0x0a
    16b4:	9b 87       	std	Y+11, r25	; 0x0b
    16b6:	8c 87       	std	Y+12, r24	; 0x0c
	if(addressPointer + DATA_FIX_LENGTH > EEPROM_CAT24M01_MEM_SIZE) { device.powerMemoryAndI2COff(); return STORE_MEMORY_RETURN_MEMORY_FULL; }
    16b8:	d5 01       	movw	r26, r10
    16ba:	c4 01       	movw	r24, r8
    16bc:	0c 96       	adiw	r24, 0x0c	; 12
    16be:	a1 1d       	adc	r26, r1
    16c0:	b1 1d       	adc	r27, r1
    16c2:	89 8b       	std	Y+17, r24	; 0x11
    16c4:	9a 8b       	std	Y+18, r25	; 0x12
    16c6:	ab 8b       	std	Y+19, r26	; 0x13
    16c8:	bc 8b       	std	Y+20, r27	; 0x14
    16ca:	cd bf       	out	0x3d, r28	; 61
    16cc:	de bf       	out	0x3e, r29	; 62
    16ce:	89 89       	ldd	r24, Y+17	; 0x11
    16d0:	9a 89       	ldd	r25, Y+18	; 0x12
    16d2:	ab 89       	ldd	r26, Y+19	; 0x13
    16d4:	bc 89       	ldd	r27, Y+20	; 0x14
    16d6:	01 97       	sbiw	r24, 0x01	; 1
    16d8:	a2 40       	sbci	r26, 0x02	; 2
    16da:	b1 05       	cpc	r27, r1
    16dc:	30 f0       	brcs	.+12     	; 0x16ea <_Z13storeInMemoryP5gps_t+0x188>
    16de:	8d e0       	ldi	r24, 0x0D	; 13
    16e0:	98 e3       	ldi	r25, 0x38	; 56
    16e2:	0e 94 ca 00 	call	0x194	; 0x194 <_ZN7TickTag20powerMemoryAndI2COffEv>
    16e6:	81 e0       	ldi	r24, 0x01	; 1
    16e8:	75 c0       	rjmp	.+234    	; 0x17d4 <_Z13storeInMemoryP5gps_t+0x272>
	
	// storing data
	if(!eeprom.writeMemory(addressPointer, buffer, DATA_FIX_LENGTH)) { device.powerMemoryAndI2COff(); return STORE_MEMORY_RETURN_ERROR; }
    16ea:	1c e0       	ldi	r17, 0x0C	; 12
    16ec:	e1 2e       	mov	r14, r17
    16ee:	f1 2c       	mov	r15, r1
    16f0:	00 e0       	ldi	r16, 0x00	; 0
    16f2:	10 e0       	ldi	r17, 0x00	; 0
    16f4:	9e 01       	movw	r18, r28
    16f6:	2f 5f       	subi	r18, 0xFF	; 255
    16f8:	3f 4f       	sbci	r19, 0xFF	; 255
    16fa:	b5 01       	movw	r22, r10
    16fc:	a4 01       	movw	r20, r8
    16fe:	8c e0       	ldi	r24, 0x0C	; 12
    1700:	98 e3       	ldi	r25, 0x38	; 56
    1702:	0e 94 e6 01 	call	0x3cc	; 0x3cc <_ZN15EEPROM_CAT24M0111writeMemoryEmPhm>
    1706:	81 11       	cpse	r24, r1
    1708:	06 c0       	rjmp	.+12     	; 0x1716 <_Z13storeInMemoryP5gps_t+0x1b4>
    170a:	8d e0       	ldi	r24, 0x0D	; 13
    170c:	98 e3       	ldi	r25, 0x38	; 56
    170e:	0e 94 ca 00 	call	0x194	; 0x194 <_ZN7TickTag20powerMemoryAndI2COffEv>
    1712:	80 e0       	ldi	r24, 0x00	; 0
    1714:	5f c0       	rjmp	.+190    	; 0x17d4 <_Z13storeInMemoryP5gps_t+0x272>

	// update address pointer
	addressPointer += DATA_FIX_LENGTH;
	buffer[0] = (addressPointer >> 24); buffer[1] = (addressPointer >> 16); buffer[2] = (addressPointer >> 8); buffer[3] = addressPointer;
    1716:	fc 89       	ldd	r31, Y+20	; 0x14
    1718:	f9 83       	std	Y+1, r31	; 0x01
    171a:	2b 89       	ldd	r18, Y+19	; 0x13
    171c:	2a 83       	std	Y+2, r18	; 0x02
    171e:	8a 89       	ldd	r24, Y+18	; 0x12
    1720:	8b 83       	std	Y+3, r24	; 0x03
    1722:	99 89       	ldd	r25, Y+17	; 0x11
    1724:	9c 83       	std	Y+4, r25	; 0x04
	if(!eeprom.writeMemory(0, buffer, 4)) { device.powerMemoryAndI2COff(); return STORE_MEMORY_RETURN_ERROR; }
    1726:	14 e0       	ldi	r17, 0x04	; 4
    1728:	e1 2e       	mov	r14, r17
    172a:	f1 2c       	mov	r15, r1
    172c:	00 e0       	ldi	r16, 0x00	; 0
    172e:	10 e0       	ldi	r17, 0x00	; 0
    1730:	9e 01       	movw	r18, r28
    1732:	2f 5f       	subi	r18, 0xFF	; 255
    1734:	3f 4f       	sbci	r19, 0xFF	; 255
    1736:	40 e0       	ldi	r20, 0x00	; 0
    1738:	50 e0       	ldi	r21, 0x00	; 0
    173a:	ba 01       	movw	r22, r20
    173c:	8c e0       	ldi	r24, 0x0C	; 12
    173e:	98 e3       	ldi	r25, 0x38	; 56
    1740:	0e 94 e6 01 	call	0x3cc	; 0x3cc <_ZN15EEPROM_CAT24M0111writeMemoryEmPhm>
    1744:	81 11       	cpse	r24, r1
    1746:	06 c0       	rjmp	.+12     	; 0x1754 <_Z13storeInMemoryP5gps_t+0x1f2>
    1748:	8d e0       	ldi	r24, 0x0D	; 13
    174a:	98 e3       	ldi	r25, 0x38	; 56
    174c:	0e 94 ca 00 	call	0x194	; 0x194 <_ZN7TickTag20powerMemoryAndI2COffEv>
    1750:	80 e0       	ldi	r24, 0x00	; 0
    1752:	40 c0       	rjmp	.+128    	; 0x17d4 <_Z13storeInMemoryP5gps_t+0x272>
		
	// update ttf sum
	ttfSum += gpsData->ttfSeconds;
    1754:	d6 01       	movw	r26, r12
    1756:	1f 96       	adiw	r26, 0x0f	; 15
    1758:	8d 91       	ld	r24, X+
    175a:	9c 91       	ld	r25, X
    175c:	50 97       	sbiw	r26, 0x10	; 16
    175e:	48 0e       	add	r4, r24
    1760:	59 1e       	adc	r5, r25
    1762:	61 1c       	adc	r6, r1
    1764:	71 1c       	adc	r7, r1
	buffer[0] = (ttfSum >> 24); buffer[1] = (ttfSum >> 16); buffer[2] = (ttfSum >> 8); buffer[3] = ttfSum;
    1766:	79 82       	std	Y+1, r7	; 0x01
    1768:	6a 82       	std	Y+2, r6	; 0x02
    176a:	5b 82       	std	Y+3, r5	; 0x03
    176c:	4c 82       	std	Y+4, r4	; 0x04
	if(!eeprom.writeMemory(4, buffer, 4)) { device.powerMemoryAndI2COff(); return STORE_MEMORY_RETURN_ERROR; }
    176e:	14 e0       	ldi	r17, 0x04	; 4
    1770:	e1 2e       	mov	r14, r17
    1772:	f1 2c       	mov	r15, r1
    1774:	00 e0       	ldi	r16, 0x00	; 0
    1776:	10 e0       	ldi	r17, 0x00	; 0
    1778:	9e 01       	movw	r18, r28
    177a:	2f 5f       	subi	r18, 0xFF	; 255
    177c:	3f 4f       	sbci	r19, 0xFF	; 255
    177e:	44 e0       	ldi	r20, 0x04	; 4
    1780:	50 e0       	ldi	r21, 0x00	; 0
    1782:	60 e0       	ldi	r22, 0x00	; 0
    1784:	70 e0       	ldi	r23, 0x00	; 0
    1786:	8c e0       	ldi	r24, 0x0C	; 12
    1788:	98 e3       	ldi	r25, 0x38	; 56
    178a:	0e 94 e6 01 	call	0x3cc	; 0x3cc <_ZN15EEPROM_CAT24M0111writeMemoryEmPhm>
    178e:	81 11       	cpse	r24, r1
    1790:	06 c0       	rjmp	.+12     	; 0x179e <_Z13storeInMemoryP5gps_t+0x23c>
    1792:	8d e0       	ldi	r24, 0x0D	; 13
    1794:	98 e3       	ldi	r25, 0x38	; 56
    1796:	0e 94 ca 00 	call	0x194	; 0x194 <_ZN7TickTag20powerMemoryAndI2COffEv>
    179a:	80 e0       	ldi	r24, 0x00	; 0
    179c:	1b c0       	rjmp	.+54     	; 0x17d4 <_Z13storeInMemoryP5gps_t+0x272>
	
	#ifdef DEBUGGING
		printf("New: AddressP: %lu, ttfSum: %lu\n\r", addressPointer, ttfSum);
    179e:	7f 92       	push	r7
    17a0:	6f 92       	push	r6
    17a2:	5f 92       	push	r5
    17a4:	4f 92       	push	r4
    17a6:	bc 89       	ldd	r27, Y+20	; 0x14
    17a8:	bf 93       	push	r27
    17aa:	eb 89       	ldd	r30, Y+19	; 0x13
    17ac:	ef 93       	push	r30
    17ae:	fa 89       	ldd	r31, Y+18	; 0x12
    17b0:	ff 93       	push	r31
    17b2:	29 89       	ldd	r18, Y+17	; 0x11
    17b4:	2f 93       	push	r18
    17b6:	8a ef       	ldi	r24, 0xFA	; 250
    17b8:	94 ea       	ldi	r25, 0xA4	; 164
    17ba:	9f 93       	push	r25
    17bc:	8f 93       	push	r24
    17be:	0e 94 bb 0e 	call	0x1d76	; 0x1d76 <printf>
		readMemory();
    17c2:	0e 94 f2 08 	call	0x11e4	; 0x11e4 <_Z10readMemoryv>
	#endif
	
	device.powerMemoryAndI2COff();
    17c6:	8d e0       	ldi	r24, 0x0D	; 13
    17c8:	98 e3       	ldi	r25, 0x38	; 56
    17ca:	0e 94 ca 00 	call	0x194	; 0x194 <_ZN7TickTag20powerMemoryAndI2COffEv>
	
	return STORE_MEMORY_RETURN_SUCCESS;
    17ce:	cd bf       	out	0x3d, r28	; 61
    17d0:	de bf       	out	0x3e, r29	; 62
    17d2:	82 e0       	ldi	r24, 0x02	; 2
}
    17d4:	64 96       	adiw	r28, 0x14	; 20
    17d6:	cd bf       	out	0x3d, r28	; 61
    17d8:	de bf       	out	0x3e, r29	; 62
    17da:	df 91       	pop	r29
    17dc:	cf 91       	pop	r28
    17de:	1f 91       	pop	r17
    17e0:	0f 91       	pop	r16
    17e2:	ff 90       	pop	r15
    17e4:	ef 90       	pop	r14
    17e6:	df 90       	pop	r13
    17e8:	cf 90       	pop	r12
    17ea:	bf 90       	pop	r11
    17ec:	af 90       	pop	r10
    17ee:	9f 90       	pop	r9
    17f0:	8f 90       	pop	r8
    17f2:	7f 90       	pop	r7
    17f4:	6f 90       	pop	r6
    17f6:	5f 90       	pop	r5
    17f8:	4f 90       	pop	r4
    17fa:	08 95       	ret

000017fc <main>:

/** State machine */
int main(void) {
    17fc:	cf 93       	push	r28
    17fe:	df 93       	push	r29
    1800:	cd b7       	in	r28, 0x3d	; 61
    1802:	de b7       	in	r29, 0x3e	; 62
    1804:	61 97       	sbiw	r28, 0x11	; 17
    1806:	cd bf       	out	0x3d, r28	; 61
    1808:	de bf       	out	0x3e, r29	; 62
	while(1) {
		// TODO: disable DOWNLOAD interrupt?? how to handle download interrupt at all?
		// TODO: reset also RTC counter value
		
		// Do on every wake up
		RTC.CTRLA = 0; // disable RTC interrupt
    180a:	68 94       	set
    180c:	aa 24       	eor	r10, r10
    180e:	a6 f8       	bld	r10, 6
    1810:	bb 24       	eor	r11, r11
    1812:	b3 94       	inc	r11
				#endif

				device.initTimer(); // for getting current system time
				device.L70powerOn();
				_delay_ms(1000); // wait until L70 is booted
				gps_t gpsData = { 0 };
    1814:	ce 01       	movw	r24, r28
    1816:	01 96       	adiw	r24, 0x01	; 1
    1818:	4c 01       	movw	r8, r24
						printf("St: no fix\n\r");
					#endif				
				}
				#ifdef DEBUGGING
					uint32_t timestamp = gps.getUTCTimestamp(&gpsData);
					printf("FIX %d: %lu, %lu, %lu, TTF %d (sleep: %lu)\n\r", gpsData.fix, timestamp, gpsData.latitude, gpsData.longitude, gpsData.ttfSeconds, TIME_BETWEEN_FIXES_SECONDS - (device.getMillis() / 1000));
    181a:	0f 2e       	mov	r0, r31
    181c:	ff e0       	ldi	r31, 0x0F	; 15
    181e:	2f 2e       	mov	r2, r31
    1820:	31 2c       	mov	r3, r1
    1822:	41 2c       	mov	r4, r1
    1824:	51 2c       	mov	r5, r1
    1826:	f0 2d       	mov	r31, r0
					//printf("GOT: %d.%d.%d %d:%d:%d, %lu, %lu, %d, %d\n\r", gpsData.day, gpsData.month, gpsData.year, gpsData.hour, gpsData.minute, gpsData.second, gpsData.latitude, gpsData.longitude, gpsData.fix, gpsData.ttfSeconds);
					_delay_ms(20); // wait until printf finished
				#endif
			
				USART0.CTRLB = 0; // uart off, otherwise +~500 uA in standby sleep
				PORTA.DIR |= PIN1_bm; // TXD2 = output, otherwise leakage
    1828:	c1 2c       	mov	r12, r1
    182a:	68 94       	set
    182c:	dd 24       	eor	r13, r13
    182e:	d2 f8       	bld	r13, 2
				PORTA.DIR |= PIN2_bm; // RXD2 = output, otherwise leakage
				
				device.initDownloadPinInterruptInDeepSleep(); // strange, changes interrupt time of 10 seconds (counter not reset!)
				device.initInternalRTCInterrupt(TIME_BETWEEN_FIXES_SECONDS - (device.getMillis() / 1000));
    1830:	0f 2e       	mov	r0, r31
    1832:	ff e0       	ldi	r31, 0x0F	; 15
    1834:	6f 2e       	mov	r6, r31
    1836:	71 2c       	mov	r7, r1
    1838:	f0 2d       	mov	r31, r0
	while(1) {
		// TODO: disable DOWNLOAD interrupt?? how to handle download interrupt at all?
		// TODO: reset also RTC counter value
		
		// Do on every wake up
		RTC.CTRLA = 0; // disable RTC interrupt
    183a:	f5 01       	movw	r30, r10
    183c:	10 82       	st	Z, r1
		if(state == ST_FIRST_START_HARD_RESET) { device.setCPUSpeed(OSC16_PRESCALER_CPU_1MHZ);  } // 1MHz = 701uA @while(1)
    183e:	80 91 0a 38 	lds	r24, 0x380A	; 0x80380a <state>
    1842:	81 11       	cpse	r24, r1
    1844:	05 c0       	rjmp	.+10     	; 0x1850 <main+0x54>
    1846:	66 e0       	ldi	r22, 0x06	; 6
    1848:	8d e0       	ldi	r24, 0x0D	; 13
    184a:	98 e3       	ldi	r25, 0x38	; 56
    184c:	0e 94 2c 01 	call	0x258	; 0x258 <_ZN7TickTag11setCPUSpeedEh>
		batteryVoltage = device.readSupplyVoltage(); // perform as first thing in every state
    1850:	61 e0       	ldi	r22, 0x01	; 1
    1852:	8d e0       	ldi	r24, 0x0D	; 13
    1854:	98 e3       	ldi	r25, 0x38	; 56
    1856:	0e 94 06 01 	call	0x20c	; 0x20c <_ZN7TickTag17readSupplyVoltageEh>
    185a:	80 93 08 38 	sts	0x3808, r24	; 0x803808 <batteryVoltage>
    185e:	90 93 09 38 	sts	0x3809, r25	; 0x803809 <batteryVoltage+0x1>

		// State machine
		if(state == ST_FIRST_START_HARD_RESET) {
    1862:	80 91 0a 38 	lds	r24, 0x380A	; 0x80380a <state>
    1866:	81 11       	cpse	r24, r1
    1868:	26 c0       	rjmp	.+76     	; 0x18b6 <main+0xba>
			device.initPins(); // reset all pins
    186a:	8d e0       	ldi	r24, 0x0D	; 13
    186c:	98 e3       	ldi	r25, 0x38	; 56
    186e:	0e 94 5d 00 	call	0xba	; 0xba <_ZN7TickTag8initPinsEv>
			usePrintf(); // use printf function for uart communication
    1872:	0e 94 fc 0d 	call	0x1bf8	; 0x1bf8 <_Z9usePrintfv>
			wait(6);
    1876:	86 e0       	ldi	r24, 0x06	; 6
    1878:	90 e0       	ldi	r25, 0x00	; 0
    187a:	0e 94 99 0a 	call	0x1532	; 0x1532 <_Z4waitj>
			if(voltageNotOkay()) { // TODO: read from EEPROM
    187e:	0e 94 a5 0a 	call	0x154a	; 0x154a <_Z14voltageNotOkayv>
    1882:	88 23       	and	r24, r24
    1884:	39 f0       	breq	.+14     	; 0x1894 <main+0x98>
				device.initInternalRTCInterrupt(SLEEP_TIME_SECONDS_WHEN_VOLTAGE_INCORRECT);
    1886:	6a e0       	ldi	r22, 0x0A	; 10
    1888:	70 e0       	ldi	r23, 0x00	; 0
    188a:	8d e0       	ldi	r24, 0x0D	; 13
    188c:	98 e3       	ldi	r25, 0x38	; 56
    188e:	0e 94 f1 00 	call	0x1e2	; 0x1e2 <_ZN7TickTag24initInternalRTCInterruptEj>
    1892:	04 c1       	rjmp	.+520    	; 0x1a9c <main+0x2a0>
			}
			else {
				blink(7);
    1894:	87 e0       	ldi	r24, 0x07	; 7
    1896:	0e 94 b1 09 	call	0x1362	; 0x1362 <_Z5blinkh>
				state = ST_TRACKING;
    189a:	81 e0       	ldi	r24, 0x01	; 1
    189c:	80 93 0a 38 	sts	0x380A, r24	; 0x80380a <state>
				// TODO: configure wake up after x seconds
				// TODO: check if memory full?
				device.initInternalRTCInterrupt(1); // go into tracking after 1 second
    18a0:	61 e0       	ldi	r22, 0x01	; 1
    18a2:	70 e0       	ldi	r23, 0x00	; 0
    18a4:	8d e0       	ldi	r24, 0x0D	; 13
    18a6:	98 e3       	ldi	r25, 0x38	; 56
    18a8:	0e 94 f1 00 	call	0x1e2	; 0x1e2 <_ZN7TickTag24initInternalRTCInterruptEj>
				device.L70backupOn();
    18ac:	8d e0       	ldi	r24, 0x0D	; 13
    18ae:	98 e3       	ldi	r25, 0x38	; 56
    18b0:	0e 94 c2 00 	call	0x184	; 0x184 <_ZN7TickTag11L70backupOnEv>
    18b4:	f3 c0       	rjmp	.+486    	; 0x1a9c <main+0x2a0>
				// TODO: configure L70 here? uart msgs and so on?
			}
		}
		else if(state == ST_TRACKING) {
    18b6:	81 30       	cpi	r24, 0x01	; 1
    18b8:	09 f0       	breq	.+2      	; 0x18bc <main+0xc0>
    18ba:	f0 c0       	rjmp	.+480    	; 0x1a9c <main+0x2a0>
			// TODO: handle download button interrupt while running

			if(voltageNotOkay()) { // TODO: read from EEPROM
    18bc:	0e 94 a5 0a 	call	0x154a	; 0x154a <_Z14voltageNotOkayv>
    18c0:	88 23       	and	r24, r24
    18c2:	39 f0       	breq	.+14     	; 0x18d2 <main+0xd6>
				device.initInternalRTCInterrupt(SLEEP_TIME_SECONDS_WHEN_VOLTAGE_INCORRECT);
    18c4:	6a e0       	ldi	r22, 0x0A	; 10
    18c6:	70 e0       	ldi	r23, 0x00	; 0
    18c8:	8d e0       	ldi	r24, 0x0D	; 13
    18ca:	98 e3       	ldi	r25, 0x38	; 56
    18cc:	0e 94 f1 00 	call	0x1e2	; 0x1e2 <_ZN7TickTag24initInternalRTCInterruptEj>
    18d0:	e5 c0       	rjmp	.+458    	; 0x1a9c <main+0x2a0>
				// TODO: vermute: download interrupt, dann undervoltage -> RTC nicht richtig zurck gesetzt
				// TODO: shut off backup pin, reset all pins
				// TODO: but STAY in tracking state
				//state = ST_VOLTAGE_INCORRECT;
			}
			else if(downloadInterrupt) {
    18d2:	80 91 07 38 	lds	r24, 0x3807	; 0x803807 <downloadInterrupt>
    18d6:	88 23       	and	r24, r24
    18d8:	f1 f0       	breq	.+60     	; 0x1916 <main+0x11a>
				uint8_t cntStart = 30;
				bool pressInterrupted = false;
				downloadInterrupt = false;
    18da:	10 92 07 38 	sts	0x3807, r1	; 0x803807 <downloadInterrupt>
					
				// check if pin is pulled low long enough
				while(cntStart > 0) {
					if(PORTA.IN & PIN5_bm) { pressInterrupted = true; break; } // not long enough pulled low
    18de:	f6 01       	movw	r30, r12
    18e0:	80 85       	ldd	r24, Z+8	; 0x08
    18e2:	85 ff       	sbrs	r24, 5
    18e4:	ff c0       	rjmp	.+510    	; 0x1ae4 <main+0x2e8>
    18e6:	0d c0       	rjmp	.+26     	; 0x1902 <main+0x106>
    18e8:	f6 01       	movw	r30, r12
    18ea:	90 85       	ldd	r25, Z+8	; 0x08
    18ec:	95 fd       	sbrc	r25, 5
    18ee:	09 c0       	rjmp	.+18     	; 0x1902 <main+0x106>
    18f0:	e7 ea       	ldi	r30, 0xA7	; 167
    18f2:	f1 e6       	ldi	r31, 0x61	; 97
    18f4:	31 97       	sbiw	r30, 0x01	; 1
    18f6:	f1 f7       	brne	.-4      	; 0x18f4 <main+0xf8>
    18f8:	00 c0       	rjmp	.+0      	; 0x18fa <main+0xfe>
    18fa:	00 00       	nop
    18fc:	81 50       	subi	r24, 0x01	; 1
				uint8_t cntStart = 30;
				bool pressInterrupted = false;
				downloadInterrupt = false;
					
				// check if pin is pulled low long enough
				while(cntStart > 0) {
    18fe:	a1 f7       	brne	.-24     	; 0x18e8 <main+0xec>
    1900:	d6 c0       	rjmp	.+428    	; 0x1aae <main+0x2b2>
					USART0.CTRLB = 0; // uart off, otherwise +~500 uA in standby sleep
					PORTA.DIR |= PIN1_bm; // TXD2 = output, otherwise leakage
					PORTA.DIR |= PIN2_bm; // RXD2 = output, otherwise leakage							
					device.powerMemoryAndI2COff();
				}
				device.initInternalRTCInterrupt(TIME_BETWEEN_FIXES_SECONDS);
    1902:	b3 01       	movw	r22, r6
    1904:	8d e0       	ldi	r24, 0x0D	; 13
    1906:	98 e3       	ldi	r25, 0x38	; 56
    1908:	0e 94 f1 00 	call	0x1e2	; 0x1e2 <_ZN7TickTag24initInternalRTCInterruptEj>
				device.initDownloadPinInterruptInDeepSleep(); // strange, changes interrupt time of 10 seconds (counter not reset!)
    190c:	8d e0       	ldi	r24, 0x0D	; 13
    190e:	98 e3       	ldi	r25, 0x38	; 56
    1910:	0e 94 6a 00 	call	0xd4	; 0xd4 <_ZN7TickTag35initDownloadPinInterruptInDeepSleepEv>
    1914:	c3 c0       	rjmp	.+390    	; 0x1a9c <main+0x2a0>
				//USART0.CTRLB |= (USART_TXEN_bm | USART_RXEN_bm); // enable uart (again)
				// TODO: uart EN hier notwendig?
				
				// TODO: try PMTK225 as wake up
				#ifdef DEBUGGING
					initSecondUARTwith9600(); // + some uA
    1916:	0e 94 98 0d 	call	0x1b30	; 0x1b30 <_Z22initSecondUARTwith9600v>
				#endif

				device.initTimer(); // for getting current system time
    191a:	8d e0       	ldi	r24, 0x0D	; 13
    191c:	98 e3       	ldi	r25, 0x38	; 56
    191e:	0e 94 88 00 	call	0x110	; 0x110 <_ZN7TickTag9initTimerEv>
				device.L70powerOn();
    1922:	8d e0       	ldi	r24, 0x0D	; 13
    1924:	98 e3       	ldi	r25, 0x38	; 56
    1926:	0e 94 b2 00 	call	0x164	; 0x164 <_ZN7TickTag10L70powerOnEv>
    192a:	ff e3       	ldi	r31, 0x3F	; 63
    192c:	2d e0       	ldi	r18, 0x0D	; 13
    192e:	83 e0       	ldi	r24, 0x03	; 3
    1930:	f1 50       	subi	r31, 0x01	; 1
    1932:	20 40       	sbci	r18, 0x00	; 0
    1934:	80 40       	sbci	r24, 0x00	; 0
    1936:	e1 f7       	brne	.-8      	; 0x1930 <main+0x134>
    1938:	00 c0       	rjmp	.+0      	; 0x193a <main+0x13e>
    193a:	00 00       	nop
				_delay_ms(1000); // wait until L70 is booted
				gps_t gpsData = { 0 };
    193c:	81 e1       	ldi	r24, 0x11	; 17
    193e:	f4 01       	movw	r30, r8
    1940:	11 92       	st	Z+, r1
    1942:	8a 95       	dec	r24
    1944:	e9 f7       	brne	.-6      	; 0x1940 <main+0x144>
				bool gotFix = gps.start(&gpsData, &device, GET_FIX_TIMEOUT_SECONDS, false, true);
    1946:	ee 24       	eor	r14, r14
    1948:	e3 94       	inc	r14
    194a:	00 e0       	ldi	r16, 0x00	; 0
    194c:	22 e0       	ldi	r18, 0x02	; 2
    194e:	30 e0       	ldi	r19, 0x00	; 0
    1950:	4d e0       	ldi	r20, 0x0D	; 13
    1952:	58 e3       	ldi	r21, 0x38	; 56
    1954:	b4 01       	movw	r22, r8
    1956:	8b e0       	ldi	r24, 0x0B	; 11
    1958:	98 e3       	ldi	r25, 0x38	; 56
    195a:	0e 94 bd 06 	call	0xd7a	; 0xd7a <_ZN13GPS_L70_Light5startEP5gps_tP7TickTagjbb>
    195e:	18 2f       	mov	r17, r24
				device.L70powerOff();
    1960:	8d e0       	ldi	r24, 0x0D	; 13
    1962:	98 e3       	ldi	r25, 0x38	; 56
    1964:	0e 94 ba 00 	call	0x174	; 0x174 <_ZN7TickTag11L70powerOffEv>
				uartFlush();
    1968:	0e 94 ad 0d 	call	0x1b5a	; 0x1b5a <_Z9uartFlushv>
				#ifdef DEBUGGING
					initSecondUARTwith9600(); // + some uA in active
    196c:	0e 94 98 0d 	call	0x1b30	; 0x1b30 <_Z22initSecondUARTwith9600v>
    1970:	87 ea       	ldi	r24, 0xA7	; 167
    1972:	91 e6       	ldi	r25, 0x61	; 97
    1974:	01 97       	sbiw	r24, 0x01	; 1
    1976:	f1 f7       	brne	.-4      	; 0x1974 <main+0x178>
    1978:	00 c0       	rjmp	.+0      	; 0x197a <main+0x17e>
    197a:	00 00       	nop
					_delay_ms(100);
				#endif	
				if(gotFix) {
    197c:	11 23       	and	r17, r17
    197e:	11 f1       	breq	.+68     	; 0x19c4 <main+0x1c8>
					//blink(10);
					uint8_t storeResult = storeInMemory(&gpsData);
    1980:	c4 01       	movw	r24, r8
    1982:	0e 94 b1 0a 	call	0x1562	; 0x1562 <_Z13storeInMemoryP5gps_t>
					if(storeResult == STORE_MEMORY_RETURN_MEMORY_FULL) {
    1986:	81 30       	cpi	r24, 0x01	; 1
    1988:	49 f4       	brne	.+18     	; 0x199c <main+0x1a0>
						// TODO: if memory full -> ST_MEMORY_FULL, fully deactivate, also RTC, just listen on download pin
						#ifdef DEBUGGING
							printf("St: full\n\r");
    198a:	ec e1       	ldi	r30, 0x1C	; 28
    198c:	f5 ea       	ldi	r31, 0xA5	; 165
    198e:	ff 93       	push	r31
    1990:	ef 93       	push	r30
    1992:	0e 94 bb 0e 	call	0x1d76	; 0x1d76 <printf>
    1996:	0f 90       	pop	r0
    1998:	0f 90       	pop	r0
    199a:	1c c0       	rjmp	.+56     	; 0x19d4 <main+0x1d8>
						#endif
					}
					else if(storeResult == STORE_MEMORY_RETURN_ERROR) {
    199c:	81 11       	cpse	r24, r1
    199e:	09 c0       	rjmp	.+18     	; 0x19b2 <main+0x1b6>
						#ifdef DEBUGGING
							printf("St: error\n\r");
    19a0:	87 e2       	ldi	r24, 0x27	; 39
    19a2:	95 ea       	ldi	r25, 0xA5	; 165
    19a4:	9f 93       	push	r25
    19a6:	8f 93       	push	r24
    19a8:	0e 94 bb 0e 	call	0x1d76	; 0x1d76 <printf>
    19ac:	0f 90       	pop	r0
    19ae:	0f 90       	pop	r0
    19b0:	11 c0       	rjmp	.+34     	; 0x19d4 <main+0x1d8>
						#endif
					}
					else {
						#ifdef DEBUGGING
							printf("St: success\n\r");
    19b2:	83 e3       	ldi	r24, 0x33	; 51
    19b4:	95 ea       	ldi	r25, 0xA5	; 165
    19b6:	9f 93       	push	r25
    19b8:	8f 93       	push	r24
    19ba:	0e 94 bb 0e 	call	0x1d76	; 0x1d76 <printf>
    19be:	0f 90       	pop	r0
    19c0:	0f 90       	pop	r0
    19c2:	08 c0       	rjmp	.+16     	; 0x19d4 <main+0x1d8>
					}
				}
				else {
					// TODO: store FAILS in eeprom 16 bit
					#ifdef DEBUGGING
						printf("St: no fix\n\r");
    19c4:	81 e4       	ldi	r24, 0x41	; 65
    19c6:	95 ea       	ldi	r25, 0xA5	; 165
    19c8:	9f 93       	push	r25
    19ca:	8f 93       	push	r24
    19cc:	0e 94 bb 0e 	call	0x1d76	; 0x1d76 <printf>
    19d0:	0f 90       	pop	r0
    19d2:	0f 90       	pop	r0
					#endif				
				}
				#ifdef DEBUGGING
					uint32_t timestamp = gps.getUTCTimestamp(&gpsData);
    19d4:	b4 01       	movw	r22, r8
    19d6:	8b e0       	ldi	r24, 0x0B	; 11
    19d8:	98 e3       	ldi	r25, 0x38	; 56
    19da:	0e 94 62 03 	call	0x6c4	; 0x6c4 <_ZN13GPS_L70_Light15getUTCTimestampEP5gps_t>
    19de:	16 2f       	mov	r17, r22
    19e0:	07 2f       	mov	r16, r23
    19e2:	f8 2e       	mov	r15, r24
    19e4:	e9 2e       	mov	r14, r25
					printf("FIX %d: %lu, %lu, %lu, TTF %d (sleep: %lu)\n\r", gpsData.fix, timestamp, gpsData.latitude, gpsData.longitude, gpsData.ttfSeconds, TIME_BETWEEN_FIXES_SECONDS - (device.getMillis() / 1000));
    19e6:	8d e0       	ldi	r24, 0x0D	; 13
    19e8:	98 e3       	ldi	r25, 0x38	; 56
    19ea:	0e 94 9f 00 	call	0x13e	; 0x13e <_ZN7TickTag9getMillisEv>
    19ee:	28 ee       	ldi	r18, 0xE8	; 232
    19f0:	33 e0       	ldi	r19, 0x03	; 3
    19f2:	40 e0       	ldi	r20, 0x00	; 0
    19f4:	50 e0       	ldi	r21, 0x00	; 0
    19f6:	0e 94 1d 0e 	call	0x1c3a	; 0x1c3a <__udivmodsi4>
    19fa:	d2 01       	movw	r26, r4
    19fc:	c1 01       	movw	r24, r2
    19fe:	82 1b       	sub	r24, r18
    1a00:	93 0b       	sbc	r25, r19
    1a02:	a4 0b       	sbc	r26, r20
    1a04:	b5 0b       	sbc	r27, r21
    1a06:	bf 93       	push	r27
    1a08:	af 93       	push	r26
    1a0a:	9f 93       	push	r25
    1a0c:	8f 93       	push	r24
    1a0e:	89 89       	ldd	r24, Y+17	; 0x11
    1a10:	8f 93       	push	r24
    1a12:	88 89       	ldd	r24, Y+16	; 0x10
    1a14:	8f 93       	push	r24
    1a16:	8e 85       	ldd	r24, Y+14	; 0x0e
    1a18:	8f 93       	push	r24
    1a1a:	8d 85       	ldd	r24, Y+13	; 0x0d
    1a1c:	8f 93       	push	r24
    1a1e:	8c 85       	ldd	r24, Y+12	; 0x0c
    1a20:	8f 93       	push	r24
    1a22:	8b 85       	ldd	r24, Y+11	; 0x0b
    1a24:	8f 93       	push	r24
    1a26:	8a 85       	ldd	r24, Y+10	; 0x0a
    1a28:	8f 93       	push	r24
    1a2a:	89 85       	ldd	r24, Y+9	; 0x09
    1a2c:	8f 93       	push	r24
    1a2e:	88 85       	ldd	r24, Y+8	; 0x08
    1a30:	8f 93       	push	r24
    1a32:	8f 81       	ldd	r24, Y+7	; 0x07
    1a34:	8f 93       	push	r24
    1a36:	ef 92       	push	r14
    1a38:	ff 92       	push	r15
    1a3a:	0f 93       	push	r16
    1a3c:	1f 93       	push	r17
    1a3e:	8f 85       	ldd	r24, Y+15	; 0x0f
    1a40:	1f 92       	push	r1
    1a42:	8f 93       	push	r24
    1a44:	8e e4       	ldi	r24, 0x4E	; 78
    1a46:	95 ea       	ldi	r25, 0xA5	; 165
    1a48:	9f 93       	push	r25
    1a4a:	8f 93       	push	r24
    1a4c:	0e 94 bb 0e 	call	0x1d76	; 0x1d76 <printf>
    1a50:	87 e8       	ldi	r24, 0x87	; 135
    1a52:	93 e1       	ldi	r25, 0x13	; 19
    1a54:	01 97       	sbiw	r24, 0x01	; 1
    1a56:	f1 f7       	brne	.-4      	; 0x1a54 <main+0x258>
    1a58:	00 c0       	rjmp	.+0      	; 0x1a5a <main+0x25e>
    1a5a:	00 00       	nop
					//printf("GOT: %d.%d.%d %d:%d:%d, %lu, %lu, %d, %d\n\r", gpsData.day, gpsData.month, gpsData.year, gpsData.hour, gpsData.minute, gpsData.second, gpsData.latitude, gpsData.longitude, gpsData.fix, gpsData.ttfSeconds);
					_delay_ms(20); // wait until printf finished
				#endif
			
				USART0.CTRLB = 0; // uart off, otherwise +~500 uA in standby sleep
    1a5c:	10 92 06 08 	sts	0x0806, r1	; 0x800806 <__RODATA_PM_OFFSET__+0x7f8806>
				PORTA.DIR |= PIN1_bm; // TXD2 = output, otherwise leakage
    1a60:	f6 01       	movw	r30, r12
    1a62:	80 81       	ld	r24, Z
    1a64:	82 60       	ori	r24, 0x02	; 2
    1a66:	80 83       	st	Z, r24
				PORTA.DIR |= PIN2_bm; // RXD2 = output, otherwise leakage
    1a68:	80 81       	ld	r24, Z
    1a6a:	84 60       	ori	r24, 0x04	; 4
    1a6c:	80 83       	st	Z, r24
				
				device.initDownloadPinInterruptInDeepSleep(); // strange, changes interrupt time of 10 seconds (counter not reset!)
    1a6e:	8d e0       	ldi	r24, 0x0D	; 13
    1a70:	98 e3       	ldi	r25, 0x38	; 56
    1a72:	0e 94 6a 00 	call	0xd4	; 0xd4 <_ZN7TickTag35initDownloadPinInterruptInDeepSleepEv>
				device.initInternalRTCInterrupt(TIME_BETWEEN_FIXES_SECONDS - (device.getMillis() / 1000));
    1a76:	8d e0       	ldi	r24, 0x0D	; 13
    1a78:	98 e3       	ldi	r25, 0x38	; 56
    1a7a:	0e 94 9f 00 	call	0x13e	; 0x13e <_ZN7TickTag9getMillisEv>
    1a7e:	28 ee       	ldi	r18, 0xE8	; 232
    1a80:	33 e0       	ldi	r19, 0x03	; 3
    1a82:	40 e0       	ldi	r20, 0x00	; 0
    1a84:	50 e0       	ldi	r21, 0x00	; 0
    1a86:	0e 94 1d 0e 	call	0x1c3a	; 0x1c3a <__udivmodsi4>
    1a8a:	b3 01       	movw	r22, r6
    1a8c:	62 1b       	sub	r22, r18
    1a8e:	73 0b       	sbc	r23, r19
    1a90:	8d e0       	ldi	r24, 0x0D	; 13
    1a92:	98 e3       	ldi	r25, 0x38	; 56
    1a94:	0e 94 f1 00 	call	0x1e2	; 0x1e2 <_ZN7TickTag24initInternalRTCInterruptEj>
    1a98:	cd bf       	out	0x3d, r28	; 61
    1a9a:	de bf       	out	0x3e, r29	; 62
			}
		}
		else if(state == ST_MEMORY_FULL) {
			// TODO: listen on download pin only, full shut down
		}
		rtcInterrupt = false; // reset RTC interrupt flag
    1a9c:	10 92 06 38 	sts	0x3806, r1	; 0x803806 <rtcInterrupt>
		downloadInterrupt = false; // reset download interrupt flag
    1aa0:	10 92 07 38 	sts	0x3807, r1	; 0x803807 <downloadInterrupt>
		device.standbySleep();
    1aa4:	8d e0       	ldi	r24, 0x0D	; 13
    1aa6:	98 e3       	ldi	r25, 0x38	; 56
    1aa8:	0e 94 e0 00 	call	0x1c0	; 0x1c0 <_ZN7TickTag12standbySleepEv>
	return STORE_MEMORY_RETURN_SUCCESS;
}

/** State machine */
int main(void) {
	while(1) {
    1aac:	c6 ce       	rjmp	.-628    	; 0x183a <main+0x3e>
					if(PORTA.IN & PIN5_bm) { pressInterrupted = true; break; } // not long enough pulled low
					_delay_ms(100);
					cntStart--;
				}
				if(!pressInterrupted) {
					initSecondUARTwith9600(); // + some uA
    1aae:	0e 94 98 0d 	call	0x1b30	; 0x1b30 <_Z22initSecondUARTwith9600v>
					blink(10);
    1ab2:	8a e0       	ldi	r24, 0x0A	; 10
    1ab4:	0e 94 b1 09 	call	0x1362	; 0x1362 <_Z5blinkh>
					device.powerMemoryAndI2COn();
    1ab8:	8d e0       	ldi	r24, 0x0D	; 13
    1aba:	98 e3       	ldi	r25, 0x38	; 56
    1abc:	0e 94 d2 00 	call	0x1a4	; 0x1a4 <_ZN7TickTag19powerMemoryAndI2COnEv>
					i2cInit();
    1ac0:	0e 94 f3 07 	call	0xfe6	; 0xfe6 <_Z7i2cInitv>
					showMenue();
    1ac4:	0e 94 cf 09 	call	0x139e	; 0x139e <_Z9showMenuev>
					USART0.CTRLB = 0; // uart off, otherwise +~500 uA in standby sleep
    1ac8:	10 92 06 08 	sts	0x0806, r1	; 0x800806 <__RODATA_PM_OFFSET__+0x7f8806>
					PORTA.DIR |= PIN1_bm; // TXD2 = output, otherwise leakage
    1acc:	f6 01       	movw	r30, r12
    1ace:	80 81       	ld	r24, Z
    1ad0:	82 60       	ori	r24, 0x02	; 2
    1ad2:	80 83       	st	Z, r24
					PORTA.DIR |= PIN2_bm; // RXD2 = output, otherwise leakage							
    1ad4:	80 81       	ld	r24, Z
    1ad6:	84 60       	ori	r24, 0x04	; 4
    1ad8:	80 83       	st	Z, r24
					device.powerMemoryAndI2COff();
    1ada:	8d e0       	ldi	r24, 0x0D	; 13
    1adc:	98 e3       	ldi	r25, 0x38	; 56
    1ade:	0e 94 ca 00 	call	0x194	; 0x194 <_ZN7TickTag20powerMemoryAndI2COffEv>
    1ae2:	0f cf       	rjmp	.-482    	; 0x1902 <main+0x106>
    1ae4:	87 ea       	ldi	r24, 0xA7	; 167
    1ae6:	91 e6       	ldi	r25, 0x61	; 97
    1ae8:	01 97       	sbiw	r24, 0x01	; 1
    1aea:	f1 f7       	brne	.-4      	; 0x1ae8 <main+0x2ec>
    1aec:	00 c0       	rjmp	.+0      	; 0x1aee <main+0x2f2>
    1aee:	00 00       	nop
    1af0:	8d e1       	ldi	r24, 0x1D	; 29
    1af2:	fa ce       	rjmp	.-524    	; 0x18e8 <main+0xec>

00001af4 <_ZL17usePrintfFunctioncP6__file>:
		printU16(in / 10);
	}
	uint8_t digit = in % 10;
	while(!(USART0.STATUS & USART_DREIF_bm)) { ; }
	USART0.TXDATAL = '0' + digit;
}
    1af4:	e0 e0       	ldi	r30, 0x00	; 0
    1af6:	f8 e0       	ldi	r31, 0x08	; 8
    1af8:	94 81       	ldd	r25, Z+4	; 0x04
    1afa:	95 ff       	sbrs	r25, 5
    1afc:	fd cf       	rjmp	.-6      	; 0x1af8 <_ZL17usePrintfFunctioncP6__file+0x4>
    1afe:	80 93 02 08 	sts	0x0802, r24	; 0x800802 <__RODATA_PM_OFFSET__+0x7f8802>
    1b02:	80 e0       	ldi	r24, 0x00	; 0
    1b04:	90 e0       	ldi	r25, 0x00	; 0
    1b06:	08 95       	ret

00001b08 <_Z23initPrimaryUARTwith9600v>:
    1b08:	e0 e2       	ldi	r30, 0x20	; 32
    1b0a:	f4 e0       	ldi	r31, 0x04	; 4
    1b0c:	80 81       	ld	r24, Z
    1b0e:	84 60       	ori	r24, 0x04	; 4
    1b10:	80 83       	st	Z, r24
    1b12:	80 81       	ld	r24, Z
    1b14:	87 7f       	andi	r24, 0xF7	; 247
    1b16:	80 83       	st	Z, r24
    1b18:	10 92 01 02 	sts	0x0201, r1	; 0x800201 <__RODATA_PM_OFFSET__+0x7f8201>
    1b1c:	e0 e0       	ldi	r30, 0x00	; 0
    1b1e:	f8 e0       	ldi	r31, 0x08	; 8
    1b20:	81 ea       	ldi	r24, 0xA1	; 161
    1b22:	91 e0       	ldi	r25, 0x01	; 1
    1b24:	80 87       	std	Z+8, r24	; 0x08
    1b26:	91 87       	std	Z+9, r25	; 0x09
    1b28:	86 81       	ldd	r24, Z+6	; 0x06
    1b2a:	80 6c       	ori	r24, 0xC0	; 192
    1b2c:	86 83       	std	Z+6, r24	; 0x06
    1b2e:	08 95       	ret

00001b30 <_Z22initSecondUARTwith9600v>:
    1b30:	e0 e0       	ldi	r30, 0x00	; 0
    1b32:	f4 e0       	ldi	r31, 0x04	; 4
    1b34:	80 81       	ld	r24, Z
    1b36:	82 60       	ori	r24, 0x02	; 2
    1b38:	80 83       	st	Z, r24
    1b3a:	80 81       	ld	r24, Z
    1b3c:	8b 7f       	andi	r24, 0xFB	; 251
    1b3e:	80 83       	st	Z, r24
    1b40:	81 e0       	ldi	r24, 0x01	; 1
    1b42:	80 93 01 02 	sts	0x0201, r24	; 0x800201 <__RODATA_PM_OFFSET__+0x7f8201>
    1b46:	e0 e0       	ldi	r30, 0x00	; 0
    1b48:	f8 e0       	ldi	r31, 0x08	; 8
    1b4a:	81 ea       	ldi	r24, 0xA1	; 161
    1b4c:	91 e0       	ldi	r25, 0x01	; 1
    1b4e:	80 87       	std	Z+8, r24	; 0x08
    1b50:	91 87       	std	Z+9, r25	; 0x09
    1b52:	86 81       	ldd	r24, Z+6	; 0x06
    1b54:	80 6c       	ori	r24, 0xC0	; 192
    1b56:	86 83       	std	Z+6, r24	; 0x06
    1b58:	08 95       	ret

00001b5a <_Z9uartFlushv>:
    1b5a:	80 91 04 08 	lds	r24, 0x0804	; 0x800804 <__RODATA_PM_OFFSET__+0x7f8804>
    1b5e:	88 23       	and	r24, r24
    1b60:	3c f4       	brge	.+14     	; 0x1b70 <_Z9uartFlushv+0x16>
    1b62:	e0 e0       	ldi	r30, 0x00	; 0
    1b64:	f8 e0       	ldi	r31, 0x08	; 8
    1b66:	80 81       	ld	r24, Z
    1b68:	94 81       	ldd	r25, Z+4	; 0x04
    1b6a:	99 23       	and	r25, r25
    1b6c:	e4 f3       	brlt	.-8      	; 0x1b66 <_Z9uartFlushv+0xc>
    1b6e:	08 95       	ret
    1b70:	80 e0       	ldi	r24, 0x00	; 0
    1b72:	08 95       	ret

00001b74 <_Z8uartReadcPchj>:
    1b74:	ef 92       	push	r14
    1b76:	ff 92       	push	r15
    1b78:	0f 93       	push	r16
    1b7a:	1f 93       	push	r17
    1b7c:	cf 93       	push	r28
    1b7e:	df 93       	push	r29
    1b80:	18 2f       	mov	r17, r24
    1b82:	7b 01       	movw	r14, r22
    1b84:	04 2f       	mov	r16, r20
    1b86:	e9 01       	movw	r28, r18
    1b88:	50 e0       	ldi	r21, 0x00	; 0
    1b8a:	60 e0       	ldi	r22, 0x00	; 0
    1b8c:	70 e0       	ldi	r23, 0x00	; 0
    1b8e:	c7 01       	movw	r24, r14
    1b90:	0e 94 9f 0e 	call	0x1d3e	; 0x1d3e <memset>
    1b94:	0e 94 ad 0d 	call	0x1b5a	; 0x1b5a <_Z9uartFlushv>
    1b98:	90 e0       	ldi	r25, 0x00	; 0
    1b9a:	e0 e0       	ldi	r30, 0x00	; 0
    1b9c:	f8 e0       	ldi	r31, 0x08	; 8
    1b9e:	84 81       	ldd	r24, Z+4	; 0x04
    1ba0:	88 23       	and	r24, r24
    1ba2:	54 f0       	brlt	.+20     	; 0x1bb8 <_Z8uartReadcPchj+0x44>
    1ba4:	21 97       	sbiw	r28, 0x01	; 1
    1ba6:	a9 ef       	ldi	r26, 0xF9	; 249
    1ba8:	b0 e0       	ldi	r27, 0x00	; 0
    1baa:	11 97       	sbiw	r26, 0x01	; 1
    1bac:	f1 f7       	brne	.-4      	; 0x1baa <_Z8uartReadcPchj+0x36>
    1bae:	00 c0       	rjmp	.+0      	; 0x1bb0 <_Z8uartReadcPchj+0x3c>
    1bb0:	00 00       	nop
    1bb2:	20 97       	sbiw	r28, 0x00	; 0
    1bb4:	a1 f7       	brne	.-24     	; 0x1b9e <_Z8uartReadcPchj+0x2a>
    1bb6:	18 c0       	rjmp	.+48     	; 0x1be8 <_Z8uartReadcPchj+0x74>
    1bb8:	80 81       	ld	r24, Z
    1bba:	8a 30       	cpi	r24, 0x0A	; 10
    1bbc:	69 f0       	breq	.+26     	; 0x1bd8 <_Z8uartReadcPchj+0x64>
    1bbe:	8d 30       	cpi	r24, 0x0D	; 13
    1bc0:	59 f0       	breq	.+22     	; 0x1bd8 <_Z8uartReadcPchj+0x64>
    1bc2:	21 e0       	ldi	r18, 0x01	; 1
    1bc4:	29 0f       	add	r18, r25
    1bc6:	d7 01       	movw	r26, r14
    1bc8:	a9 0f       	add	r26, r25
    1bca:	b1 1d       	adc	r27, r1
    1bcc:	8c 93       	st	X, r24
    1bce:	02 17       	cp	r16, r18
    1bd0:	10 f4       	brcc	.+4      	; 0x1bd6 <_Z8uartReadcPchj+0x62>
    1bd2:	90 e0       	ldi	r25, 0x00	; 0
    1bd4:	01 c0       	rjmp	.+2      	; 0x1bd8 <_Z8uartReadcPchj+0x64>
    1bd6:	92 2f       	mov	r25, r18
    1bd8:	81 13       	cpse	r24, r17
    1bda:	e1 cf       	rjmp	.-62     	; 0x1b9e <_Z8uartReadcPchj+0x2a>
    1bdc:	f7 01       	movw	r30, r14
    1bde:	e9 0f       	add	r30, r25
    1be0:	f1 1d       	adc	r31, r1
    1be2:	10 82       	st	Z, r1
    1be4:	81 e0       	ldi	r24, 0x01	; 1
    1be6:	01 c0       	rjmp	.+2      	; 0x1bea <_Z8uartReadcPchj+0x76>
    1be8:	80 e0       	ldi	r24, 0x00	; 0
    1bea:	df 91       	pop	r29
    1bec:	cf 91       	pop	r28
    1bee:	1f 91       	pop	r17
    1bf0:	0f 91       	pop	r16
    1bf2:	ff 90       	pop	r15
    1bf4:	ef 90       	pop	r14
    1bf6:	08 95       	ret

00001bf8 <_Z9usePrintfv>:

void usePrintf() {
	static FILE mystdout;
	fdev_setup_stream(&mystdout, usePrintfFunction, NULL, _FDEV_SETUP_WRITE);
    1bf8:	ee e0       	ldi	r30, 0x0E	; 14
    1bfa:	f8 e3       	ldi	r31, 0x38	; 56
    1bfc:	8a e7       	ldi	r24, 0x7A	; 122
    1bfe:	9d e0       	ldi	r25, 0x0D	; 13
    1c00:	80 87       	std	Z+8, r24	; 0x08
    1c02:	91 87       	std	Z+9, r25	; 0x09
    1c04:	12 86       	std	Z+10, r1	; 0x0a
    1c06:	13 86       	std	Z+11, r1	; 0x0b
    1c08:	82 e0       	ldi	r24, 0x02	; 2
    1c0a:	83 83       	std	Z+3, r24	; 0x03
    1c0c:	14 86       	std	Z+12, r1	; 0x0c
    1c0e:	15 86       	std	Z+13, r1	; 0x0d
	stdout = &mystdout;
    1c10:	e0 93 1e 38 	sts	0x381E, r30	; 0x80381e <__iob+0x2>
    1c14:	f0 93 1f 38 	sts	0x381F, r31	; 0x80381f <__iob+0x3>
    1c18:	08 95       	ret

00001c1a <__mulsi3>:
    1c1a:	db 01       	movw	r26, r22
    1c1c:	8f 93       	push	r24
    1c1e:	9f 93       	push	r25
    1c20:	0e 94 6d 0e 	call	0x1cda	; 0x1cda <__muluhisi3>
    1c24:	bf 91       	pop	r27
    1c26:	af 91       	pop	r26
    1c28:	a2 9f       	mul	r26, r18
    1c2a:	80 0d       	add	r24, r0
    1c2c:	91 1d       	adc	r25, r1
    1c2e:	a3 9f       	mul	r26, r19
    1c30:	90 0d       	add	r25, r0
    1c32:	b2 9f       	mul	r27, r18
    1c34:	90 0d       	add	r25, r0
    1c36:	11 24       	eor	r1, r1
    1c38:	08 95       	ret

00001c3a <__udivmodsi4>:
    1c3a:	a1 e2       	ldi	r26, 0x21	; 33
    1c3c:	1a 2e       	mov	r1, r26
    1c3e:	aa 1b       	sub	r26, r26
    1c40:	bb 1b       	sub	r27, r27
    1c42:	fd 01       	movw	r30, r26
    1c44:	0d c0       	rjmp	.+26     	; 0x1c60 <__udivmodsi4_ep>

00001c46 <__udivmodsi4_loop>:
    1c46:	aa 1f       	adc	r26, r26
    1c48:	bb 1f       	adc	r27, r27
    1c4a:	ee 1f       	adc	r30, r30
    1c4c:	ff 1f       	adc	r31, r31
    1c4e:	a2 17       	cp	r26, r18
    1c50:	b3 07       	cpc	r27, r19
    1c52:	e4 07       	cpc	r30, r20
    1c54:	f5 07       	cpc	r31, r21
    1c56:	20 f0       	brcs	.+8      	; 0x1c60 <__udivmodsi4_ep>
    1c58:	a2 1b       	sub	r26, r18
    1c5a:	b3 0b       	sbc	r27, r19
    1c5c:	e4 0b       	sbc	r30, r20
    1c5e:	f5 0b       	sbc	r31, r21

00001c60 <__udivmodsi4_ep>:
    1c60:	66 1f       	adc	r22, r22
    1c62:	77 1f       	adc	r23, r23
    1c64:	88 1f       	adc	r24, r24
    1c66:	99 1f       	adc	r25, r25
    1c68:	1a 94       	dec	r1
    1c6a:	69 f7       	brne	.-38     	; 0x1c46 <__udivmodsi4_loop>
    1c6c:	60 95       	com	r22
    1c6e:	70 95       	com	r23
    1c70:	80 95       	com	r24
    1c72:	90 95       	com	r25
    1c74:	9b 01       	movw	r18, r22
    1c76:	ac 01       	movw	r20, r24
    1c78:	bd 01       	movw	r22, r26
    1c7a:	cf 01       	movw	r24, r30
    1c7c:	08 95       	ret

00001c7e <__divmodsi4>:
    1c7e:	05 2e       	mov	r0, r21
    1c80:	97 fb       	bst	r25, 7
    1c82:	1e f4       	brtc	.+6      	; 0x1c8a <__divmodsi4+0xc>
    1c84:	00 94       	com	r0
    1c86:	0e 94 56 0e 	call	0x1cac	; 0x1cac <__negsi2>
    1c8a:	57 fd       	sbrc	r21, 7
    1c8c:	07 d0       	rcall	.+14     	; 0x1c9c <__divmodsi4_neg2>
    1c8e:	0e 94 1d 0e 	call	0x1c3a	; 0x1c3a <__udivmodsi4>
    1c92:	07 fc       	sbrc	r0, 7
    1c94:	03 d0       	rcall	.+6      	; 0x1c9c <__divmodsi4_neg2>
    1c96:	4e f4       	brtc	.+18     	; 0x1caa <__divmodsi4_exit>
    1c98:	0c 94 56 0e 	jmp	0x1cac	; 0x1cac <__negsi2>

00001c9c <__divmodsi4_neg2>:
    1c9c:	50 95       	com	r21
    1c9e:	40 95       	com	r20
    1ca0:	30 95       	com	r19
    1ca2:	21 95       	neg	r18
    1ca4:	3f 4f       	sbci	r19, 0xFF	; 255
    1ca6:	4f 4f       	sbci	r20, 0xFF	; 255
    1ca8:	5f 4f       	sbci	r21, 0xFF	; 255

00001caa <__divmodsi4_exit>:
    1caa:	08 95       	ret

00001cac <__negsi2>:
    1cac:	90 95       	com	r25
    1cae:	80 95       	com	r24
    1cb0:	70 95       	com	r23
    1cb2:	61 95       	neg	r22
    1cb4:	7f 4f       	sbci	r23, 0xFF	; 255
    1cb6:	8f 4f       	sbci	r24, 0xFF	; 255
    1cb8:	9f 4f       	sbci	r25, 0xFF	; 255
    1cba:	08 95       	ret

00001cbc <__umulhisi3>:
    1cbc:	a2 9f       	mul	r26, r18
    1cbe:	b0 01       	movw	r22, r0
    1cc0:	b3 9f       	mul	r27, r19
    1cc2:	c0 01       	movw	r24, r0
    1cc4:	a3 9f       	mul	r26, r19
    1cc6:	70 0d       	add	r23, r0
    1cc8:	81 1d       	adc	r24, r1
    1cca:	11 24       	eor	r1, r1
    1ccc:	91 1d       	adc	r25, r1
    1cce:	b2 9f       	mul	r27, r18
    1cd0:	70 0d       	add	r23, r0
    1cd2:	81 1d       	adc	r24, r1
    1cd4:	11 24       	eor	r1, r1
    1cd6:	91 1d       	adc	r25, r1
    1cd8:	08 95       	ret

00001cda <__muluhisi3>:
    1cda:	0e 94 5e 0e 	call	0x1cbc	; 0x1cbc <__umulhisi3>
    1cde:	a5 9f       	mul	r26, r21
    1ce0:	90 0d       	add	r25, r0
    1ce2:	b4 9f       	mul	r27, r20
    1ce4:	90 0d       	add	r25, r0
    1ce6:	a4 9f       	mul	r26, r20
    1ce8:	80 0d       	add	r24, r0
    1cea:	91 1d       	adc	r25, r1
    1cec:	11 24       	eor	r1, r1
    1cee:	08 95       	ret

00001cf0 <atol>:
    1cf0:	1f 93       	push	r17
    1cf2:	fc 01       	movw	r30, r24
    1cf4:	99 27       	eor	r25, r25
    1cf6:	88 27       	eor	r24, r24
    1cf8:	bc 01       	movw	r22, r24
    1cfa:	e8 94       	clt
    1cfc:	11 91       	ld	r17, Z+
    1cfe:	10 32       	cpi	r17, 0x20	; 32
    1d00:	e9 f3       	breq	.-6      	; 0x1cfc <atol+0xc>
    1d02:	19 30       	cpi	r17, 0x09	; 9
    1d04:	10 f0       	brcs	.+4      	; 0x1d0a <atol+0x1a>
    1d06:	1e 30       	cpi	r17, 0x0E	; 14
    1d08:	c8 f3       	brcs	.-14     	; 0x1cfc <atol+0xc>
    1d0a:	1b 32       	cpi	r17, 0x2B	; 43
    1d0c:	51 f0       	breq	.+20     	; 0x1d22 <atol+0x32>
    1d0e:	1d 32       	cpi	r17, 0x2D	; 45
    1d10:	49 f4       	brne	.+18     	; 0x1d24 <atol+0x34>
    1d12:	68 94       	set
    1d14:	06 c0       	rjmp	.+12     	; 0x1d22 <atol+0x32>
    1d16:	0e 94 a6 0e 	call	0x1d4c	; 0x1d4c <__mulsi_const_10>
    1d1a:	61 0f       	add	r22, r17
    1d1c:	71 1d       	adc	r23, r1
    1d1e:	81 1d       	adc	r24, r1
    1d20:	91 1d       	adc	r25, r1
    1d22:	11 91       	ld	r17, Z+
    1d24:	10 53       	subi	r17, 0x30	; 48
    1d26:	1a 30       	cpi	r17, 0x0A	; 10
    1d28:	b0 f3       	brcs	.-20     	; 0x1d16 <atol+0x26>
    1d2a:	3e f4       	brtc	.+14     	; 0x1d3a <atol+0x4a>
    1d2c:	90 95       	com	r25
    1d2e:	80 95       	com	r24
    1d30:	70 95       	com	r23
    1d32:	61 95       	neg	r22
    1d34:	7f 4f       	sbci	r23, 0xFF	; 255
    1d36:	8f 4f       	sbci	r24, 0xFF	; 255
    1d38:	9f 4f       	sbci	r25, 0xFF	; 255
    1d3a:	1f 91       	pop	r17
    1d3c:	08 95       	ret

00001d3e <memset>:
    1d3e:	dc 01       	movw	r26, r24
    1d40:	01 c0       	rjmp	.+2      	; 0x1d44 <memset+0x6>
    1d42:	6d 93       	st	X+, r22
    1d44:	41 50       	subi	r20, 0x01	; 1
    1d46:	50 40       	sbci	r21, 0x00	; 0
    1d48:	e0 f7       	brcc	.-8      	; 0x1d42 <memset+0x4>
    1d4a:	08 95       	ret

00001d4c <__mulsi_const_10>:
    1d4c:	59 2f       	mov	r21, r25
    1d4e:	48 2f       	mov	r20, r24
    1d50:	37 2f       	mov	r19, r23
    1d52:	26 2f       	mov	r18, r22
    1d54:	66 0f       	add	r22, r22
    1d56:	77 1f       	adc	r23, r23
    1d58:	88 1f       	adc	r24, r24
    1d5a:	99 1f       	adc	r25, r25
    1d5c:	66 0f       	add	r22, r22
    1d5e:	77 1f       	adc	r23, r23
    1d60:	88 1f       	adc	r24, r24
    1d62:	99 1f       	adc	r25, r25
    1d64:	62 0f       	add	r22, r18
    1d66:	73 1f       	adc	r23, r19
    1d68:	84 1f       	adc	r24, r20
    1d6a:	95 1f       	adc	r25, r21
    1d6c:	66 0f       	add	r22, r22
    1d6e:	77 1f       	adc	r23, r23
    1d70:	88 1f       	adc	r24, r24
    1d72:	99 1f       	adc	r25, r25
    1d74:	08 95       	ret

00001d76 <printf>:
    1d76:	a0 e0       	ldi	r26, 0x00	; 0
    1d78:	b0 e0       	ldi	r27, 0x00	; 0
    1d7a:	e1 ec       	ldi	r30, 0xC1	; 193
    1d7c:	fe e0       	ldi	r31, 0x0E	; 14
    1d7e:	0c 94 72 11 	jmp	0x22e4	; 0x22e4 <__prologue_saves__+0x20>
    1d82:	ae 01       	movw	r20, r28
    1d84:	4b 5f       	subi	r20, 0xFB	; 251
    1d86:	5f 4f       	sbci	r21, 0xFF	; 255
    1d88:	fa 01       	movw	r30, r20
    1d8a:	61 91       	ld	r22, Z+
    1d8c:	71 91       	ld	r23, Z+
    1d8e:	af 01       	movw	r20, r30
    1d90:	80 91 1e 38 	lds	r24, 0x381E	; 0x80381e <__iob+0x2>
    1d94:	90 91 1f 38 	lds	r25, 0x381F	; 0x80381f <__iob+0x3>
    1d98:	0e 94 d1 0e 	call	0x1da2	; 0x1da2 <vfprintf>
    1d9c:	e2 e0       	ldi	r30, 0x02	; 2
    1d9e:	0c 94 8b 11 	jmp	0x2316	; 0x2316 <__epilogue_restores__+0x20>

00001da2 <vfprintf>:
    1da2:	ab e0       	ldi	r26, 0x0B	; 11
    1da4:	b0 e0       	ldi	r27, 0x00	; 0
    1da6:	e7 ed       	ldi	r30, 0xD7	; 215
    1da8:	fe e0       	ldi	r31, 0x0E	; 14
    1daa:	0c 94 62 11 	jmp	0x22c4	; 0x22c4 <__prologue_saves__>
    1dae:	6c 01       	movw	r12, r24
    1db0:	7b 01       	movw	r14, r22
    1db2:	8a 01       	movw	r16, r20
    1db4:	fc 01       	movw	r30, r24
    1db6:	16 82       	std	Z+6, r1	; 0x06
    1db8:	17 82       	std	Z+7, r1	; 0x07
    1dba:	83 81       	ldd	r24, Z+3	; 0x03
    1dbc:	81 ff       	sbrs	r24, 1
    1dbe:	cc c1       	rjmp	.+920    	; 0x2158 <vfprintf+0x3b6>
    1dc0:	ce 01       	movw	r24, r28
    1dc2:	01 96       	adiw	r24, 0x01	; 1
    1dc4:	3c 01       	movw	r6, r24
    1dc6:	f6 01       	movw	r30, r12
    1dc8:	93 81       	ldd	r25, Z+3	; 0x03
    1dca:	f7 01       	movw	r30, r14
    1dcc:	93 fd       	sbrc	r25, 3
    1dce:	85 91       	lpm	r24, Z+
    1dd0:	93 ff       	sbrs	r25, 3
    1dd2:	81 91       	ld	r24, Z+
    1dd4:	7f 01       	movw	r14, r30
    1dd6:	88 23       	and	r24, r24
    1dd8:	09 f4       	brne	.+2      	; 0x1ddc <vfprintf+0x3a>
    1dda:	ba c1       	rjmp	.+884    	; 0x2150 <vfprintf+0x3ae>
    1ddc:	85 32       	cpi	r24, 0x25	; 37
    1dde:	39 f4       	brne	.+14     	; 0x1dee <vfprintf+0x4c>
    1de0:	93 fd       	sbrc	r25, 3
    1de2:	85 91       	lpm	r24, Z+
    1de4:	93 ff       	sbrs	r25, 3
    1de6:	81 91       	ld	r24, Z+
    1de8:	7f 01       	movw	r14, r30
    1dea:	85 32       	cpi	r24, 0x25	; 37
    1dec:	29 f4       	brne	.+10     	; 0x1df8 <vfprintf+0x56>
    1dee:	b6 01       	movw	r22, r12
    1df0:	90 e0       	ldi	r25, 0x00	; 0
    1df2:	0e 94 c8 10 	call	0x2190	; 0x2190 <fputc>
    1df6:	e7 cf       	rjmp	.-50     	; 0x1dc6 <vfprintf+0x24>
    1df8:	91 2c       	mov	r9, r1
    1dfa:	21 2c       	mov	r2, r1
    1dfc:	31 2c       	mov	r3, r1
    1dfe:	ff e1       	ldi	r31, 0x1F	; 31
    1e00:	f3 15       	cp	r31, r3
    1e02:	d8 f0       	brcs	.+54     	; 0x1e3a <vfprintf+0x98>
    1e04:	8b 32       	cpi	r24, 0x2B	; 43
    1e06:	79 f0       	breq	.+30     	; 0x1e26 <vfprintf+0x84>
    1e08:	38 f4       	brcc	.+14     	; 0x1e18 <vfprintf+0x76>
    1e0a:	80 32       	cpi	r24, 0x20	; 32
    1e0c:	79 f0       	breq	.+30     	; 0x1e2c <vfprintf+0x8a>
    1e0e:	83 32       	cpi	r24, 0x23	; 35
    1e10:	a1 f4       	brne	.+40     	; 0x1e3a <vfprintf+0x98>
    1e12:	23 2d       	mov	r18, r3
    1e14:	20 61       	ori	r18, 0x10	; 16
    1e16:	1d c0       	rjmp	.+58     	; 0x1e52 <vfprintf+0xb0>
    1e18:	8d 32       	cpi	r24, 0x2D	; 45
    1e1a:	61 f0       	breq	.+24     	; 0x1e34 <vfprintf+0x92>
    1e1c:	80 33       	cpi	r24, 0x30	; 48
    1e1e:	69 f4       	brne	.+26     	; 0x1e3a <vfprintf+0x98>
    1e20:	23 2d       	mov	r18, r3
    1e22:	21 60       	ori	r18, 0x01	; 1
    1e24:	16 c0       	rjmp	.+44     	; 0x1e52 <vfprintf+0xb0>
    1e26:	83 2d       	mov	r24, r3
    1e28:	82 60       	ori	r24, 0x02	; 2
    1e2a:	38 2e       	mov	r3, r24
    1e2c:	e3 2d       	mov	r30, r3
    1e2e:	e4 60       	ori	r30, 0x04	; 4
    1e30:	3e 2e       	mov	r3, r30
    1e32:	2a c0       	rjmp	.+84     	; 0x1e88 <vfprintf+0xe6>
    1e34:	f3 2d       	mov	r31, r3
    1e36:	f8 60       	ori	r31, 0x08	; 8
    1e38:	1d c0       	rjmp	.+58     	; 0x1e74 <vfprintf+0xd2>
    1e3a:	37 fc       	sbrc	r3, 7
    1e3c:	2d c0       	rjmp	.+90     	; 0x1e98 <vfprintf+0xf6>
    1e3e:	20 ed       	ldi	r18, 0xD0	; 208
    1e40:	28 0f       	add	r18, r24
    1e42:	2a 30       	cpi	r18, 0x0A	; 10
    1e44:	40 f0       	brcs	.+16     	; 0x1e56 <vfprintf+0xb4>
    1e46:	8e 32       	cpi	r24, 0x2E	; 46
    1e48:	b9 f4       	brne	.+46     	; 0x1e78 <vfprintf+0xd6>
    1e4a:	36 fc       	sbrc	r3, 6
    1e4c:	81 c1       	rjmp	.+770    	; 0x2150 <vfprintf+0x3ae>
    1e4e:	23 2d       	mov	r18, r3
    1e50:	20 64       	ori	r18, 0x40	; 64
    1e52:	32 2e       	mov	r3, r18
    1e54:	19 c0       	rjmp	.+50     	; 0x1e88 <vfprintf+0xe6>
    1e56:	36 fe       	sbrs	r3, 6
    1e58:	06 c0       	rjmp	.+12     	; 0x1e66 <vfprintf+0xc4>
    1e5a:	8a e0       	ldi	r24, 0x0A	; 10
    1e5c:	98 9e       	mul	r9, r24
    1e5e:	20 0d       	add	r18, r0
    1e60:	11 24       	eor	r1, r1
    1e62:	92 2e       	mov	r9, r18
    1e64:	11 c0       	rjmp	.+34     	; 0x1e88 <vfprintf+0xe6>
    1e66:	ea e0       	ldi	r30, 0x0A	; 10
    1e68:	2e 9e       	mul	r2, r30
    1e6a:	20 0d       	add	r18, r0
    1e6c:	11 24       	eor	r1, r1
    1e6e:	22 2e       	mov	r2, r18
    1e70:	f3 2d       	mov	r31, r3
    1e72:	f0 62       	ori	r31, 0x20	; 32
    1e74:	3f 2e       	mov	r3, r31
    1e76:	08 c0       	rjmp	.+16     	; 0x1e88 <vfprintf+0xe6>
    1e78:	8c 36       	cpi	r24, 0x6C	; 108
    1e7a:	21 f4       	brne	.+8      	; 0x1e84 <vfprintf+0xe2>
    1e7c:	83 2d       	mov	r24, r3
    1e7e:	80 68       	ori	r24, 0x80	; 128
    1e80:	38 2e       	mov	r3, r24
    1e82:	02 c0       	rjmp	.+4      	; 0x1e88 <vfprintf+0xe6>
    1e84:	88 36       	cpi	r24, 0x68	; 104
    1e86:	41 f4       	brne	.+16     	; 0x1e98 <vfprintf+0xf6>
    1e88:	f7 01       	movw	r30, r14
    1e8a:	93 fd       	sbrc	r25, 3
    1e8c:	85 91       	lpm	r24, Z+
    1e8e:	93 ff       	sbrs	r25, 3
    1e90:	81 91       	ld	r24, Z+
    1e92:	7f 01       	movw	r14, r30
    1e94:	81 11       	cpse	r24, r1
    1e96:	b3 cf       	rjmp	.-154    	; 0x1dfe <vfprintf+0x5c>
    1e98:	98 2f       	mov	r25, r24
    1e9a:	9f 7d       	andi	r25, 0xDF	; 223
    1e9c:	95 54       	subi	r25, 0x45	; 69
    1e9e:	93 30       	cpi	r25, 0x03	; 3
    1ea0:	28 f4       	brcc	.+10     	; 0x1eac <vfprintf+0x10a>
    1ea2:	0c 5f       	subi	r16, 0xFC	; 252
    1ea4:	1f 4f       	sbci	r17, 0xFF	; 255
    1ea6:	9f e3       	ldi	r25, 0x3F	; 63
    1ea8:	99 83       	std	Y+1, r25	; 0x01
    1eaa:	0d c0       	rjmp	.+26     	; 0x1ec6 <vfprintf+0x124>
    1eac:	83 36       	cpi	r24, 0x63	; 99
    1eae:	31 f0       	breq	.+12     	; 0x1ebc <vfprintf+0x11a>
    1eb0:	83 37       	cpi	r24, 0x73	; 115
    1eb2:	71 f0       	breq	.+28     	; 0x1ed0 <vfprintf+0x12e>
    1eb4:	83 35       	cpi	r24, 0x53	; 83
    1eb6:	09 f0       	breq	.+2      	; 0x1eba <vfprintf+0x118>
    1eb8:	59 c0       	rjmp	.+178    	; 0x1f6c <vfprintf+0x1ca>
    1eba:	21 c0       	rjmp	.+66     	; 0x1efe <vfprintf+0x15c>
    1ebc:	f8 01       	movw	r30, r16
    1ebe:	80 81       	ld	r24, Z
    1ec0:	89 83       	std	Y+1, r24	; 0x01
    1ec2:	0e 5f       	subi	r16, 0xFE	; 254
    1ec4:	1f 4f       	sbci	r17, 0xFF	; 255
    1ec6:	88 24       	eor	r8, r8
    1ec8:	83 94       	inc	r8
    1eca:	91 2c       	mov	r9, r1
    1ecc:	53 01       	movw	r10, r6
    1ece:	13 c0       	rjmp	.+38     	; 0x1ef6 <vfprintf+0x154>
    1ed0:	28 01       	movw	r4, r16
    1ed2:	f2 e0       	ldi	r31, 0x02	; 2
    1ed4:	4f 0e       	add	r4, r31
    1ed6:	51 1c       	adc	r5, r1
    1ed8:	f8 01       	movw	r30, r16
    1eda:	a0 80       	ld	r10, Z
    1edc:	b1 80       	ldd	r11, Z+1	; 0x01
    1ede:	36 fe       	sbrs	r3, 6
    1ee0:	03 c0       	rjmp	.+6      	; 0x1ee8 <vfprintf+0x146>
    1ee2:	69 2d       	mov	r22, r9
    1ee4:	70 e0       	ldi	r23, 0x00	; 0
    1ee6:	02 c0       	rjmp	.+4      	; 0x1eec <vfprintf+0x14a>
    1ee8:	6f ef       	ldi	r22, 0xFF	; 255
    1eea:	7f ef       	ldi	r23, 0xFF	; 255
    1eec:	c5 01       	movw	r24, r10
    1eee:	0e 94 bd 10 	call	0x217a	; 0x217a <strnlen>
    1ef2:	4c 01       	movw	r8, r24
    1ef4:	82 01       	movw	r16, r4
    1ef6:	f3 2d       	mov	r31, r3
    1ef8:	ff 77       	andi	r31, 0x7F	; 127
    1efa:	3f 2e       	mov	r3, r31
    1efc:	16 c0       	rjmp	.+44     	; 0x1f2a <vfprintf+0x188>
    1efe:	28 01       	movw	r4, r16
    1f00:	22 e0       	ldi	r18, 0x02	; 2
    1f02:	42 0e       	add	r4, r18
    1f04:	51 1c       	adc	r5, r1
    1f06:	f8 01       	movw	r30, r16
    1f08:	a0 80       	ld	r10, Z
    1f0a:	b1 80       	ldd	r11, Z+1	; 0x01
    1f0c:	36 fe       	sbrs	r3, 6
    1f0e:	03 c0       	rjmp	.+6      	; 0x1f16 <vfprintf+0x174>
    1f10:	69 2d       	mov	r22, r9
    1f12:	70 e0       	ldi	r23, 0x00	; 0
    1f14:	02 c0       	rjmp	.+4      	; 0x1f1a <vfprintf+0x178>
    1f16:	6f ef       	ldi	r22, 0xFF	; 255
    1f18:	7f ef       	ldi	r23, 0xFF	; 255
    1f1a:	c5 01       	movw	r24, r10
    1f1c:	0e 94 b2 10 	call	0x2164	; 0x2164 <strnlen_P>
    1f20:	4c 01       	movw	r8, r24
    1f22:	f3 2d       	mov	r31, r3
    1f24:	f0 68       	ori	r31, 0x80	; 128
    1f26:	3f 2e       	mov	r3, r31
    1f28:	82 01       	movw	r16, r4
    1f2a:	33 fc       	sbrc	r3, 3
    1f2c:	1b c0       	rjmp	.+54     	; 0x1f64 <vfprintf+0x1c2>
    1f2e:	82 2d       	mov	r24, r2
    1f30:	90 e0       	ldi	r25, 0x00	; 0
    1f32:	88 16       	cp	r8, r24
    1f34:	99 06       	cpc	r9, r25
    1f36:	b0 f4       	brcc	.+44     	; 0x1f64 <vfprintf+0x1c2>
    1f38:	b6 01       	movw	r22, r12
    1f3a:	80 e2       	ldi	r24, 0x20	; 32
    1f3c:	90 e0       	ldi	r25, 0x00	; 0
    1f3e:	0e 94 c8 10 	call	0x2190	; 0x2190 <fputc>
    1f42:	2a 94       	dec	r2
    1f44:	f4 cf       	rjmp	.-24     	; 0x1f2e <vfprintf+0x18c>
    1f46:	f5 01       	movw	r30, r10
    1f48:	37 fc       	sbrc	r3, 7
    1f4a:	85 91       	lpm	r24, Z+
    1f4c:	37 fe       	sbrs	r3, 7
    1f4e:	81 91       	ld	r24, Z+
    1f50:	5f 01       	movw	r10, r30
    1f52:	b6 01       	movw	r22, r12
    1f54:	90 e0       	ldi	r25, 0x00	; 0
    1f56:	0e 94 c8 10 	call	0x2190	; 0x2190 <fputc>
    1f5a:	21 10       	cpse	r2, r1
    1f5c:	2a 94       	dec	r2
    1f5e:	21 e0       	ldi	r18, 0x01	; 1
    1f60:	82 1a       	sub	r8, r18
    1f62:	91 08       	sbc	r9, r1
    1f64:	81 14       	cp	r8, r1
    1f66:	91 04       	cpc	r9, r1
    1f68:	71 f7       	brne	.-36     	; 0x1f46 <vfprintf+0x1a4>
    1f6a:	e8 c0       	rjmp	.+464    	; 0x213c <vfprintf+0x39a>
    1f6c:	84 36       	cpi	r24, 0x64	; 100
    1f6e:	11 f0       	breq	.+4      	; 0x1f74 <vfprintf+0x1d2>
    1f70:	89 36       	cpi	r24, 0x69	; 105
    1f72:	41 f5       	brne	.+80     	; 0x1fc4 <vfprintf+0x222>
    1f74:	f8 01       	movw	r30, r16
    1f76:	37 fe       	sbrs	r3, 7
    1f78:	07 c0       	rjmp	.+14     	; 0x1f88 <vfprintf+0x1e6>
    1f7a:	60 81       	ld	r22, Z
    1f7c:	71 81       	ldd	r23, Z+1	; 0x01
    1f7e:	82 81       	ldd	r24, Z+2	; 0x02
    1f80:	93 81       	ldd	r25, Z+3	; 0x03
    1f82:	0c 5f       	subi	r16, 0xFC	; 252
    1f84:	1f 4f       	sbci	r17, 0xFF	; 255
    1f86:	08 c0       	rjmp	.+16     	; 0x1f98 <vfprintf+0x1f6>
    1f88:	60 81       	ld	r22, Z
    1f8a:	71 81       	ldd	r23, Z+1	; 0x01
    1f8c:	07 2e       	mov	r0, r23
    1f8e:	00 0c       	add	r0, r0
    1f90:	88 0b       	sbc	r24, r24
    1f92:	99 0b       	sbc	r25, r25
    1f94:	0e 5f       	subi	r16, 0xFE	; 254
    1f96:	1f 4f       	sbci	r17, 0xFF	; 255
    1f98:	f3 2d       	mov	r31, r3
    1f9a:	ff 76       	andi	r31, 0x6F	; 111
    1f9c:	3f 2e       	mov	r3, r31
    1f9e:	97 ff       	sbrs	r25, 7
    1fa0:	09 c0       	rjmp	.+18     	; 0x1fb4 <vfprintf+0x212>
    1fa2:	90 95       	com	r25
    1fa4:	80 95       	com	r24
    1fa6:	70 95       	com	r23
    1fa8:	61 95       	neg	r22
    1faa:	7f 4f       	sbci	r23, 0xFF	; 255
    1fac:	8f 4f       	sbci	r24, 0xFF	; 255
    1fae:	9f 4f       	sbci	r25, 0xFF	; 255
    1fb0:	f0 68       	ori	r31, 0x80	; 128
    1fb2:	3f 2e       	mov	r3, r31
    1fb4:	2a e0       	ldi	r18, 0x0A	; 10
    1fb6:	30 e0       	ldi	r19, 0x00	; 0
    1fb8:	a3 01       	movw	r20, r6
    1fba:	0e 94 04 11 	call	0x2208	; 0x2208 <__ultoa_invert>
    1fbe:	88 2e       	mov	r8, r24
    1fc0:	86 18       	sub	r8, r6
    1fc2:	45 c0       	rjmp	.+138    	; 0x204e <vfprintf+0x2ac>
    1fc4:	85 37       	cpi	r24, 0x75	; 117
    1fc6:	31 f4       	brne	.+12     	; 0x1fd4 <vfprintf+0x232>
    1fc8:	23 2d       	mov	r18, r3
    1fca:	2f 7e       	andi	r18, 0xEF	; 239
    1fcc:	b2 2e       	mov	r11, r18
    1fce:	2a e0       	ldi	r18, 0x0A	; 10
    1fd0:	30 e0       	ldi	r19, 0x00	; 0
    1fd2:	25 c0       	rjmp	.+74     	; 0x201e <vfprintf+0x27c>
    1fd4:	93 2d       	mov	r25, r3
    1fd6:	99 7f       	andi	r25, 0xF9	; 249
    1fd8:	b9 2e       	mov	r11, r25
    1fda:	8f 36       	cpi	r24, 0x6F	; 111
    1fdc:	c1 f0       	breq	.+48     	; 0x200e <vfprintf+0x26c>
    1fde:	18 f4       	brcc	.+6      	; 0x1fe6 <vfprintf+0x244>
    1fe0:	88 35       	cpi	r24, 0x58	; 88
    1fe2:	79 f0       	breq	.+30     	; 0x2002 <vfprintf+0x260>
    1fe4:	b5 c0       	rjmp	.+362    	; 0x2150 <vfprintf+0x3ae>
    1fe6:	80 37       	cpi	r24, 0x70	; 112
    1fe8:	19 f0       	breq	.+6      	; 0x1ff0 <vfprintf+0x24e>
    1fea:	88 37       	cpi	r24, 0x78	; 120
    1fec:	21 f0       	breq	.+8      	; 0x1ff6 <vfprintf+0x254>
    1fee:	b0 c0       	rjmp	.+352    	; 0x2150 <vfprintf+0x3ae>
    1ff0:	e9 2f       	mov	r30, r25
    1ff2:	e0 61       	ori	r30, 0x10	; 16
    1ff4:	be 2e       	mov	r11, r30
    1ff6:	b4 fe       	sbrs	r11, 4
    1ff8:	0d c0       	rjmp	.+26     	; 0x2014 <vfprintf+0x272>
    1ffa:	fb 2d       	mov	r31, r11
    1ffc:	f4 60       	ori	r31, 0x04	; 4
    1ffe:	bf 2e       	mov	r11, r31
    2000:	09 c0       	rjmp	.+18     	; 0x2014 <vfprintf+0x272>
    2002:	34 fe       	sbrs	r3, 4
    2004:	0a c0       	rjmp	.+20     	; 0x201a <vfprintf+0x278>
    2006:	29 2f       	mov	r18, r25
    2008:	26 60       	ori	r18, 0x06	; 6
    200a:	b2 2e       	mov	r11, r18
    200c:	06 c0       	rjmp	.+12     	; 0x201a <vfprintf+0x278>
    200e:	28 e0       	ldi	r18, 0x08	; 8
    2010:	30 e0       	ldi	r19, 0x00	; 0
    2012:	05 c0       	rjmp	.+10     	; 0x201e <vfprintf+0x27c>
    2014:	20 e1       	ldi	r18, 0x10	; 16
    2016:	30 e0       	ldi	r19, 0x00	; 0
    2018:	02 c0       	rjmp	.+4      	; 0x201e <vfprintf+0x27c>
    201a:	20 e1       	ldi	r18, 0x10	; 16
    201c:	32 e0       	ldi	r19, 0x02	; 2
    201e:	f8 01       	movw	r30, r16
    2020:	b7 fe       	sbrs	r11, 7
    2022:	07 c0       	rjmp	.+14     	; 0x2032 <vfprintf+0x290>
    2024:	60 81       	ld	r22, Z
    2026:	71 81       	ldd	r23, Z+1	; 0x01
    2028:	82 81       	ldd	r24, Z+2	; 0x02
    202a:	93 81       	ldd	r25, Z+3	; 0x03
    202c:	0c 5f       	subi	r16, 0xFC	; 252
    202e:	1f 4f       	sbci	r17, 0xFF	; 255
    2030:	06 c0       	rjmp	.+12     	; 0x203e <vfprintf+0x29c>
    2032:	60 81       	ld	r22, Z
    2034:	71 81       	ldd	r23, Z+1	; 0x01
    2036:	80 e0       	ldi	r24, 0x00	; 0
    2038:	90 e0       	ldi	r25, 0x00	; 0
    203a:	0e 5f       	subi	r16, 0xFE	; 254
    203c:	1f 4f       	sbci	r17, 0xFF	; 255
    203e:	a3 01       	movw	r20, r6
    2040:	0e 94 04 11 	call	0x2208	; 0x2208 <__ultoa_invert>
    2044:	88 2e       	mov	r8, r24
    2046:	86 18       	sub	r8, r6
    2048:	fb 2d       	mov	r31, r11
    204a:	ff 77       	andi	r31, 0x7F	; 127
    204c:	3f 2e       	mov	r3, r31
    204e:	36 fe       	sbrs	r3, 6
    2050:	0d c0       	rjmp	.+26     	; 0x206c <vfprintf+0x2ca>
    2052:	23 2d       	mov	r18, r3
    2054:	2e 7f       	andi	r18, 0xFE	; 254
    2056:	a2 2e       	mov	r10, r18
    2058:	89 14       	cp	r8, r9
    205a:	58 f4       	brcc	.+22     	; 0x2072 <vfprintf+0x2d0>
    205c:	34 fe       	sbrs	r3, 4
    205e:	0b c0       	rjmp	.+22     	; 0x2076 <vfprintf+0x2d4>
    2060:	32 fc       	sbrc	r3, 2
    2062:	09 c0       	rjmp	.+18     	; 0x2076 <vfprintf+0x2d4>
    2064:	83 2d       	mov	r24, r3
    2066:	8e 7e       	andi	r24, 0xEE	; 238
    2068:	a8 2e       	mov	r10, r24
    206a:	05 c0       	rjmp	.+10     	; 0x2076 <vfprintf+0x2d4>
    206c:	b8 2c       	mov	r11, r8
    206e:	a3 2c       	mov	r10, r3
    2070:	03 c0       	rjmp	.+6      	; 0x2078 <vfprintf+0x2d6>
    2072:	b8 2c       	mov	r11, r8
    2074:	01 c0       	rjmp	.+2      	; 0x2078 <vfprintf+0x2d6>
    2076:	b9 2c       	mov	r11, r9
    2078:	a4 fe       	sbrs	r10, 4
    207a:	0f c0       	rjmp	.+30     	; 0x209a <vfprintf+0x2f8>
    207c:	fe 01       	movw	r30, r28
    207e:	e8 0d       	add	r30, r8
    2080:	f1 1d       	adc	r31, r1
    2082:	80 81       	ld	r24, Z
    2084:	80 33       	cpi	r24, 0x30	; 48
    2086:	21 f4       	brne	.+8      	; 0x2090 <vfprintf+0x2ee>
    2088:	9a 2d       	mov	r25, r10
    208a:	99 7e       	andi	r25, 0xE9	; 233
    208c:	a9 2e       	mov	r10, r25
    208e:	09 c0       	rjmp	.+18     	; 0x20a2 <vfprintf+0x300>
    2090:	a2 fe       	sbrs	r10, 2
    2092:	06 c0       	rjmp	.+12     	; 0x20a0 <vfprintf+0x2fe>
    2094:	b3 94       	inc	r11
    2096:	b3 94       	inc	r11
    2098:	04 c0       	rjmp	.+8      	; 0x20a2 <vfprintf+0x300>
    209a:	8a 2d       	mov	r24, r10
    209c:	86 78       	andi	r24, 0x86	; 134
    209e:	09 f0       	breq	.+2      	; 0x20a2 <vfprintf+0x300>
    20a0:	b3 94       	inc	r11
    20a2:	a3 fc       	sbrc	r10, 3
    20a4:	11 c0       	rjmp	.+34     	; 0x20c8 <vfprintf+0x326>
    20a6:	a0 fe       	sbrs	r10, 0
    20a8:	06 c0       	rjmp	.+12     	; 0x20b6 <vfprintf+0x314>
    20aa:	b2 14       	cp	r11, r2
    20ac:	88 f4       	brcc	.+34     	; 0x20d0 <vfprintf+0x32e>
    20ae:	28 0c       	add	r2, r8
    20b0:	92 2c       	mov	r9, r2
    20b2:	9b 18       	sub	r9, r11
    20b4:	0e c0       	rjmp	.+28     	; 0x20d2 <vfprintf+0x330>
    20b6:	b2 14       	cp	r11, r2
    20b8:	60 f4       	brcc	.+24     	; 0x20d2 <vfprintf+0x330>
    20ba:	b6 01       	movw	r22, r12
    20bc:	80 e2       	ldi	r24, 0x20	; 32
    20be:	90 e0       	ldi	r25, 0x00	; 0
    20c0:	0e 94 c8 10 	call	0x2190	; 0x2190 <fputc>
    20c4:	b3 94       	inc	r11
    20c6:	f7 cf       	rjmp	.-18     	; 0x20b6 <vfprintf+0x314>
    20c8:	b2 14       	cp	r11, r2
    20ca:	18 f4       	brcc	.+6      	; 0x20d2 <vfprintf+0x330>
    20cc:	2b 18       	sub	r2, r11
    20ce:	02 c0       	rjmp	.+4      	; 0x20d4 <vfprintf+0x332>
    20d0:	98 2c       	mov	r9, r8
    20d2:	21 2c       	mov	r2, r1
    20d4:	a4 fe       	sbrs	r10, 4
    20d6:	10 c0       	rjmp	.+32     	; 0x20f8 <vfprintf+0x356>
    20d8:	b6 01       	movw	r22, r12
    20da:	80 e3       	ldi	r24, 0x30	; 48
    20dc:	90 e0       	ldi	r25, 0x00	; 0
    20de:	0e 94 c8 10 	call	0x2190	; 0x2190 <fputc>
    20e2:	a2 fe       	sbrs	r10, 2
    20e4:	17 c0       	rjmp	.+46     	; 0x2114 <vfprintf+0x372>
    20e6:	a1 fc       	sbrc	r10, 1
    20e8:	03 c0       	rjmp	.+6      	; 0x20f0 <vfprintf+0x34e>
    20ea:	88 e7       	ldi	r24, 0x78	; 120
    20ec:	90 e0       	ldi	r25, 0x00	; 0
    20ee:	02 c0       	rjmp	.+4      	; 0x20f4 <vfprintf+0x352>
    20f0:	88 e5       	ldi	r24, 0x58	; 88
    20f2:	90 e0       	ldi	r25, 0x00	; 0
    20f4:	b6 01       	movw	r22, r12
    20f6:	0c c0       	rjmp	.+24     	; 0x2110 <vfprintf+0x36e>
    20f8:	8a 2d       	mov	r24, r10
    20fa:	86 78       	andi	r24, 0x86	; 134
    20fc:	59 f0       	breq	.+22     	; 0x2114 <vfprintf+0x372>
    20fe:	a1 fe       	sbrs	r10, 1
    2100:	02 c0       	rjmp	.+4      	; 0x2106 <vfprintf+0x364>
    2102:	8b e2       	ldi	r24, 0x2B	; 43
    2104:	01 c0       	rjmp	.+2      	; 0x2108 <vfprintf+0x366>
    2106:	80 e2       	ldi	r24, 0x20	; 32
    2108:	a7 fc       	sbrc	r10, 7
    210a:	8d e2       	ldi	r24, 0x2D	; 45
    210c:	b6 01       	movw	r22, r12
    210e:	90 e0       	ldi	r25, 0x00	; 0
    2110:	0e 94 c8 10 	call	0x2190	; 0x2190 <fputc>
    2114:	89 14       	cp	r8, r9
    2116:	38 f4       	brcc	.+14     	; 0x2126 <vfprintf+0x384>
    2118:	b6 01       	movw	r22, r12
    211a:	80 e3       	ldi	r24, 0x30	; 48
    211c:	90 e0       	ldi	r25, 0x00	; 0
    211e:	0e 94 c8 10 	call	0x2190	; 0x2190 <fputc>
    2122:	9a 94       	dec	r9
    2124:	f7 cf       	rjmp	.-18     	; 0x2114 <vfprintf+0x372>
    2126:	8a 94       	dec	r8
    2128:	f3 01       	movw	r30, r6
    212a:	e8 0d       	add	r30, r8
    212c:	f1 1d       	adc	r31, r1
    212e:	80 81       	ld	r24, Z
    2130:	b6 01       	movw	r22, r12
    2132:	90 e0       	ldi	r25, 0x00	; 0
    2134:	0e 94 c8 10 	call	0x2190	; 0x2190 <fputc>
    2138:	81 10       	cpse	r8, r1
    213a:	f5 cf       	rjmp	.-22     	; 0x2126 <vfprintf+0x384>
    213c:	22 20       	and	r2, r2
    213e:	09 f4       	brne	.+2      	; 0x2142 <vfprintf+0x3a0>
    2140:	42 ce       	rjmp	.-892    	; 0x1dc6 <vfprintf+0x24>
    2142:	b6 01       	movw	r22, r12
    2144:	80 e2       	ldi	r24, 0x20	; 32
    2146:	90 e0       	ldi	r25, 0x00	; 0
    2148:	0e 94 c8 10 	call	0x2190	; 0x2190 <fputc>
    214c:	2a 94       	dec	r2
    214e:	f6 cf       	rjmp	.-20     	; 0x213c <vfprintf+0x39a>
    2150:	f6 01       	movw	r30, r12
    2152:	86 81       	ldd	r24, Z+6	; 0x06
    2154:	97 81       	ldd	r25, Z+7	; 0x07
    2156:	02 c0       	rjmp	.+4      	; 0x215c <vfprintf+0x3ba>
    2158:	8f ef       	ldi	r24, 0xFF	; 255
    215a:	9f ef       	ldi	r25, 0xFF	; 255
    215c:	2b 96       	adiw	r28, 0x0b	; 11
    215e:	e2 e1       	ldi	r30, 0x12	; 18
    2160:	0c 94 7b 11 	jmp	0x22f6	; 0x22f6 <__epilogue_restores__>

00002164 <strnlen_P>:
    2164:	fc 01       	movw	r30, r24
    2166:	05 90       	lpm	r0, Z+
    2168:	61 50       	subi	r22, 0x01	; 1
    216a:	70 40       	sbci	r23, 0x00	; 0
    216c:	01 10       	cpse	r0, r1
    216e:	d8 f7       	brcc	.-10     	; 0x2166 <strnlen_P+0x2>
    2170:	80 95       	com	r24
    2172:	90 95       	com	r25
    2174:	8e 0f       	add	r24, r30
    2176:	9f 1f       	adc	r25, r31
    2178:	08 95       	ret

0000217a <strnlen>:
    217a:	fc 01       	movw	r30, r24
    217c:	61 50       	subi	r22, 0x01	; 1
    217e:	70 40       	sbci	r23, 0x00	; 0
    2180:	01 90       	ld	r0, Z+
    2182:	01 10       	cpse	r0, r1
    2184:	d8 f7       	brcc	.-10     	; 0x217c <strnlen+0x2>
    2186:	80 95       	com	r24
    2188:	90 95       	com	r25
    218a:	8e 0f       	add	r24, r30
    218c:	9f 1f       	adc	r25, r31
    218e:	08 95       	ret

00002190 <fputc>:
    2190:	0f 93       	push	r16
    2192:	1f 93       	push	r17
    2194:	cf 93       	push	r28
    2196:	df 93       	push	r29
    2198:	fb 01       	movw	r30, r22
    219a:	23 81       	ldd	r18, Z+3	; 0x03
    219c:	21 fd       	sbrc	r18, 1
    219e:	03 c0       	rjmp	.+6      	; 0x21a6 <fputc+0x16>
    21a0:	8f ef       	ldi	r24, 0xFF	; 255
    21a2:	9f ef       	ldi	r25, 0xFF	; 255
    21a4:	2c c0       	rjmp	.+88     	; 0x21fe <fputc+0x6e>
    21a6:	22 ff       	sbrs	r18, 2
    21a8:	16 c0       	rjmp	.+44     	; 0x21d6 <fputc+0x46>
    21aa:	46 81       	ldd	r20, Z+6	; 0x06
    21ac:	57 81       	ldd	r21, Z+7	; 0x07
    21ae:	24 81       	ldd	r18, Z+4	; 0x04
    21b0:	35 81       	ldd	r19, Z+5	; 0x05
    21b2:	42 17       	cp	r20, r18
    21b4:	53 07       	cpc	r21, r19
    21b6:	44 f4       	brge	.+16     	; 0x21c8 <fputc+0x38>
    21b8:	a0 81       	ld	r26, Z
    21ba:	b1 81       	ldd	r27, Z+1	; 0x01
    21bc:	9d 01       	movw	r18, r26
    21be:	2f 5f       	subi	r18, 0xFF	; 255
    21c0:	3f 4f       	sbci	r19, 0xFF	; 255
    21c2:	20 83       	st	Z, r18
    21c4:	31 83       	std	Z+1, r19	; 0x01
    21c6:	8c 93       	st	X, r24
    21c8:	26 81       	ldd	r18, Z+6	; 0x06
    21ca:	37 81       	ldd	r19, Z+7	; 0x07
    21cc:	2f 5f       	subi	r18, 0xFF	; 255
    21ce:	3f 4f       	sbci	r19, 0xFF	; 255
    21d0:	26 83       	std	Z+6, r18	; 0x06
    21d2:	37 83       	std	Z+7, r19	; 0x07
    21d4:	14 c0       	rjmp	.+40     	; 0x21fe <fputc+0x6e>
    21d6:	8b 01       	movw	r16, r22
    21d8:	ec 01       	movw	r28, r24
    21da:	fb 01       	movw	r30, r22
    21dc:	00 84       	ldd	r0, Z+8	; 0x08
    21de:	f1 85       	ldd	r31, Z+9	; 0x09
    21e0:	e0 2d       	mov	r30, r0
    21e2:	09 95       	icall
    21e4:	89 2b       	or	r24, r25
    21e6:	e1 f6       	brne	.-72     	; 0x21a0 <fputc+0x10>
    21e8:	d8 01       	movw	r26, r16
    21ea:	16 96       	adiw	r26, 0x06	; 6
    21ec:	8d 91       	ld	r24, X+
    21ee:	9c 91       	ld	r25, X
    21f0:	17 97       	sbiw	r26, 0x07	; 7
    21f2:	01 96       	adiw	r24, 0x01	; 1
    21f4:	16 96       	adiw	r26, 0x06	; 6
    21f6:	8d 93       	st	X+, r24
    21f8:	9c 93       	st	X, r25
    21fa:	17 97       	sbiw	r26, 0x07	; 7
    21fc:	ce 01       	movw	r24, r28
    21fe:	df 91       	pop	r29
    2200:	cf 91       	pop	r28
    2202:	1f 91       	pop	r17
    2204:	0f 91       	pop	r16
    2206:	08 95       	ret

00002208 <__ultoa_invert>:
    2208:	fa 01       	movw	r30, r20
    220a:	aa 27       	eor	r26, r26
    220c:	28 30       	cpi	r18, 0x08	; 8
    220e:	51 f1       	breq	.+84     	; 0x2264 <__ultoa_invert+0x5c>
    2210:	20 31       	cpi	r18, 0x10	; 16
    2212:	81 f1       	breq	.+96     	; 0x2274 <__ultoa_invert+0x6c>
    2214:	e8 94       	clt
    2216:	6f 93       	push	r22
    2218:	6e 7f       	andi	r22, 0xFE	; 254
    221a:	6e 5f       	subi	r22, 0xFE	; 254
    221c:	7f 4f       	sbci	r23, 0xFF	; 255
    221e:	8f 4f       	sbci	r24, 0xFF	; 255
    2220:	9f 4f       	sbci	r25, 0xFF	; 255
    2222:	af 4f       	sbci	r26, 0xFF	; 255
    2224:	b1 e0       	ldi	r27, 0x01	; 1
    2226:	3e d0       	rcall	.+124    	; 0x22a4 <__ultoa_invert+0x9c>
    2228:	b4 e0       	ldi	r27, 0x04	; 4
    222a:	3c d0       	rcall	.+120    	; 0x22a4 <__ultoa_invert+0x9c>
    222c:	67 0f       	add	r22, r23
    222e:	78 1f       	adc	r23, r24
    2230:	89 1f       	adc	r24, r25
    2232:	9a 1f       	adc	r25, r26
    2234:	a1 1d       	adc	r26, r1
    2236:	68 0f       	add	r22, r24
    2238:	79 1f       	adc	r23, r25
    223a:	8a 1f       	adc	r24, r26
    223c:	91 1d       	adc	r25, r1
    223e:	a1 1d       	adc	r26, r1
    2240:	6a 0f       	add	r22, r26
    2242:	71 1d       	adc	r23, r1
    2244:	81 1d       	adc	r24, r1
    2246:	91 1d       	adc	r25, r1
    2248:	a1 1d       	adc	r26, r1
    224a:	20 d0       	rcall	.+64     	; 0x228c <__ultoa_invert+0x84>
    224c:	09 f4       	brne	.+2      	; 0x2250 <__ultoa_invert+0x48>
    224e:	68 94       	set
    2250:	3f 91       	pop	r19
    2252:	2a e0       	ldi	r18, 0x0A	; 10
    2254:	26 9f       	mul	r18, r22
    2256:	11 24       	eor	r1, r1
    2258:	30 19       	sub	r19, r0
    225a:	30 5d       	subi	r19, 0xD0	; 208
    225c:	31 93       	st	Z+, r19
    225e:	de f6       	brtc	.-74     	; 0x2216 <__ultoa_invert+0xe>
    2260:	cf 01       	movw	r24, r30
    2262:	08 95       	ret
    2264:	46 2f       	mov	r20, r22
    2266:	47 70       	andi	r20, 0x07	; 7
    2268:	40 5d       	subi	r20, 0xD0	; 208
    226a:	41 93       	st	Z+, r20
    226c:	b3 e0       	ldi	r27, 0x03	; 3
    226e:	0f d0       	rcall	.+30     	; 0x228e <__ultoa_invert+0x86>
    2270:	c9 f7       	brne	.-14     	; 0x2264 <__ultoa_invert+0x5c>
    2272:	f6 cf       	rjmp	.-20     	; 0x2260 <__ultoa_invert+0x58>
    2274:	46 2f       	mov	r20, r22
    2276:	4f 70       	andi	r20, 0x0F	; 15
    2278:	40 5d       	subi	r20, 0xD0	; 208
    227a:	4a 33       	cpi	r20, 0x3A	; 58
    227c:	18 f0       	brcs	.+6      	; 0x2284 <__ultoa_invert+0x7c>
    227e:	49 5d       	subi	r20, 0xD9	; 217
    2280:	31 fd       	sbrc	r19, 1
    2282:	40 52       	subi	r20, 0x20	; 32
    2284:	41 93       	st	Z+, r20
    2286:	02 d0       	rcall	.+4      	; 0x228c <__ultoa_invert+0x84>
    2288:	a9 f7       	brne	.-22     	; 0x2274 <__ultoa_invert+0x6c>
    228a:	ea cf       	rjmp	.-44     	; 0x2260 <__ultoa_invert+0x58>
    228c:	b4 e0       	ldi	r27, 0x04	; 4
    228e:	a6 95       	lsr	r26
    2290:	97 95       	ror	r25
    2292:	87 95       	ror	r24
    2294:	77 95       	ror	r23
    2296:	67 95       	ror	r22
    2298:	ba 95       	dec	r27
    229a:	c9 f7       	brne	.-14     	; 0x228e <__ultoa_invert+0x86>
    229c:	00 97       	sbiw	r24, 0x00	; 0
    229e:	61 05       	cpc	r22, r1
    22a0:	71 05       	cpc	r23, r1
    22a2:	08 95       	ret
    22a4:	9b 01       	movw	r18, r22
    22a6:	ac 01       	movw	r20, r24
    22a8:	0a 2e       	mov	r0, r26
    22aa:	06 94       	lsr	r0
    22ac:	57 95       	ror	r21
    22ae:	47 95       	ror	r20
    22b0:	37 95       	ror	r19
    22b2:	27 95       	ror	r18
    22b4:	ba 95       	dec	r27
    22b6:	c9 f7       	brne	.-14     	; 0x22aa <__ultoa_invert+0xa2>
    22b8:	62 0f       	add	r22, r18
    22ba:	73 1f       	adc	r23, r19
    22bc:	84 1f       	adc	r24, r20
    22be:	95 1f       	adc	r25, r21
    22c0:	a0 1d       	adc	r26, r0
    22c2:	08 95       	ret

000022c4 <__prologue_saves__>:
    22c4:	2f 92       	push	r2
    22c6:	3f 92       	push	r3
    22c8:	4f 92       	push	r4
    22ca:	5f 92       	push	r5
    22cc:	6f 92       	push	r6
    22ce:	7f 92       	push	r7
    22d0:	8f 92       	push	r8
    22d2:	9f 92       	push	r9
    22d4:	af 92       	push	r10
    22d6:	bf 92       	push	r11
    22d8:	cf 92       	push	r12
    22da:	df 92       	push	r13
    22dc:	ef 92       	push	r14
    22de:	ff 92       	push	r15
    22e0:	0f 93       	push	r16
    22e2:	1f 93       	push	r17
    22e4:	cf 93       	push	r28
    22e6:	df 93       	push	r29
    22e8:	cd b7       	in	r28, 0x3d	; 61
    22ea:	de b7       	in	r29, 0x3e	; 62
    22ec:	ca 1b       	sub	r28, r26
    22ee:	db 0b       	sbc	r29, r27
    22f0:	cd bf       	out	0x3d, r28	; 61
    22f2:	de bf       	out	0x3e, r29	; 62
    22f4:	09 94       	ijmp

000022f6 <__epilogue_restores__>:
    22f6:	2a 88       	ldd	r2, Y+18	; 0x12
    22f8:	39 88       	ldd	r3, Y+17	; 0x11
    22fa:	48 88       	ldd	r4, Y+16	; 0x10
    22fc:	5f 84       	ldd	r5, Y+15	; 0x0f
    22fe:	6e 84       	ldd	r6, Y+14	; 0x0e
    2300:	7d 84       	ldd	r7, Y+13	; 0x0d
    2302:	8c 84       	ldd	r8, Y+12	; 0x0c
    2304:	9b 84       	ldd	r9, Y+11	; 0x0b
    2306:	aa 84       	ldd	r10, Y+10	; 0x0a
    2308:	b9 84       	ldd	r11, Y+9	; 0x09
    230a:	c8 84       	ldd	r12, Y+8	; 0x08
    230c:	df 80       	ldd	r13, Y+7	; 0x07
    230e:	ee 80       	ldd	r14, Y+6	; 0x06
    2310:	fd 80       	ldd	r15, Y+5	; 0x05
    2312:	0c 81       	ldd	r16, Y+4	; 0x04
    2314:	1b 81       	ldd	r17, Y+3	; 0x03
    2316:	aa 81       	ldd	r26, Y+2	; 0x02
    2318:	b9 81       	ldd	r27, Y+1	; 0x01
    231a:	ce 0f       	add	r28, r30
    231c:	d1 1d       	adc	r29, r1
    231e:	cd bf       	out	0x3d, r28	; 61
    2320:	de bf       	out	0x3e, r29	; 62
    2322:	ed 01       	movw	r28, r26
    2324:	08 95       	ret

00002326 <_exit>:
    2326:	f8 94       	cli

00002328 <__stop_program>:
    2328:	ff cf       	rjmp	.-2      	; 0x2328 <__stop_program>
